Archive member included because of file (symbol)

c:/users/user/.platformio/packages/toolchain-gccarmnoneeabi@1.40804.0/bin/../lib/gcc/arm-none-eabi/4.8.4/../../../../arm-none-eabi/lib/armv7e-m\libc.a(lib_a-atoi.o)
                              .pio/build/lptm4c1294ncpdt/src/NeonRTOS/HTTPd/HTTPd.o (atoi)
c:/users/user/.platformio/packages/toolchain-gccarmnoneeabi@1.40804.0/bin/../lib/gcc/arm-none-eabi/4.8.4/../../../../arm-none-eabi/lib/armv7e-m\libc.a(lib_a-ctype_.o)
                              .pio/build/lptm4c1294ncpdt/src/Drivers/W-Link/cJSON/cJSON.o (__ctype_ptr__)
c:/users/user/.platformio/packages/toolchain-gccarmnoneeabi@1.40804.0/bin/../lib/gcc/arm-none-eabi/4.8.4/../../../../arm-none-eabi/lib/armv7e-m\libc.a(lib_a-isspace.o)
                              .pio/build/lptm4c1294ncpdt/src/Drivers/W-Link/Misc/Base64.o (isspace)
c:/users/user/.platformio/packages/toolchain-gccarmnoneeabi@1.40804.0/bin/../lib/gcc/arm-none-eabi/4.8.4/../../../../arm-none-eabi/lib/armv7e-m\libc.a(lib_a-memcmp.o)
                              .pio/build/lptm4c1294ncpdt/src/NeonRTOS/NeonAppInterface.o (memcmp)
c:/users/user/.platformio/packages/toolchain-gccarmnoneeabi@1.40804.0/bin/../lib/gcc/arm-none-eabi/4.8.4/../../../../arm-none-eabi/lib/armv7e-m\libc.a(lib_a-memcpy.o)
                              .pio/build/lptm4c1294ncpdt/src/Drivers/W-Link/Misc/sha1.o (memcpy)
c:/users/user/.platformio/packages/toolchain-gccarmnoneeabi@1.40804.0/bin/../lib/gcc/arm-none-eabi/4.8.4/../../../../arm-none-eabi/lib/armv7e-m\libc.a(lib_a-memmove.o)
                              .pio/build/lptm4c1294ncpdt/src/NeonRTOS/lwip/core/def.o (memmove)
c:/users/user/.platformio/packages/toolchain-gccarmnoneeabi@1.40804.0/bin/../lib/gcc/arm-none-eabi/4.8.4/../../../../arm-none-eabi/lib/armv7e-m\libc.a(lib_a-memset.o)
                              .pio/build/lptm4c1294ncpdt/src/APP/LED_PWM_API.o (memset)
c:/users/user/.platformio/packages/toolchain-gccarmnoneeabi@1.40804.0/bin/../lib/gcc/arm-none-eabi/4.8.4/../../../../arm-none-eabi/lib/armv7e-m\libc.a(lib_a-rand.o)
                              .pio/build/lptm4c1294ncpdt/src/NeonRTOS/lwip/core/dns.o (rand)
c:/users/user/.platformio/packages/toolchain-gccarmnoneeabi@1.40804.0/bin/../lib/gcc/arm-none-eabi/4.8.4/../../../../arm-none-eabi/lib/armv7e-m\libc.a(lib_a-reent.o)
                              .pio/build/lptm4c1294ncpdt/src/NeonRTOS/lwip/api/if_api.o (errno)
c:/users/user/.platformio/packages/toolchain-gccarmnoneeabi@1.40804.0/bin/../lib/gcc/arm-none-eabi/4.8.4/../../../../arm-none-eabi/lib/armv7e-m\libc.a(lib_a-s_fpclassify.o)
                              .pio/build/lptm4c1294ncpdt/src/Drivers/W-Link/cJSON/cJSON.o (__fpclassifyd)
c:/users/user/.platformio/packages/toolchain-gccarmnoneeabi@1.40804.0/bin/../lib/gcc/arm-none-eabi/4.8.4/../../../../arm-none-eabi/lib/armv7e-m\libc.a(lib_a-snprintf.o)
                              .pio/build/lptm4c1294ncpdt/src/NeonRTOS/NeonTCPIP.o (snprintf)
c:/users/user/.platformio/packages/toolchain-gccarmnoneeabi@1.40804.0/bin/../lib/gcc/arm-none-eabi/4.8.4/../../../../arm-none-eabi/lib/armv7e-m\libc.a(lib_a-sprintf.o)
                              .pio/build/lptm4c1294ncpdt/src/Drivers/W-Link/Misc/ftoa.o (sprintf)
c:/users/user/.platformio/packages/toolchain-gccarmnoneeabi@1.40804.0/bin/../lib/gcc/arm-none-eabi/4.8.4/../../../../arm-none-eabi/lib/armv7e-m\libc.a(lib_a-strcat.o)
                              .pio/build/lptm4c1294ncpdt/src/NeonRTOS/HTTPd/HTTPd.o (strcat)
c:/users/user/.platformio/packages/toolchain-gccarmnoneeabi@1.40804.0/bin/../lib/gcc/arm-none-eabi/4.8.4/../../../../arm-none-eabi/lib/armv7e-m\libc.a(lib_a-strchr.o)
                              .pio/build/lptm4c1294ncpdt/src/Drivers/W-Link/cJSON/cJSON.o (strchr)
c:/users/user/.platformio/packages/toolchain-gccarmnoneeabi@1.40804.0/bin/../lib/gcc/arm-none-eabi/4.8.4/../../../../arm-none-eabi/lib/armv7e-m\libc.a(lib_a-strcmp.o)
                              .pio/build/lptm4c1294ncpdt/src/APP/LED_PWM_APP.o (strcmp)
c:/users/user/.platformio/packages/toolchain-gccarmnoneeabi@1.40804.0/bin/../lib/gcc/arm-none-eabi/4.8.4/../../../../arm-none-eabi/lib/armv7e-m\libc.a(lib_a-strcpy.o)
                              .pio/build/lptm4c1294ncpdt/src/Drivers/W-Link/cJSON/cJSON.o (strcpy)
c:/users/user/.platformio/packages/toolchain-gccarmnoneeabi@1.40804.0/bin/../lib/gcc/arm-none-eabi/4.8.4/../../../../arm-none-eabi/lib/armv7e-m\libc.a(lib_a-strlen.o)
                              .pio/build/lptm4c1294ncpdt/src/Drivers/W-Link/cJSON/cJSON.o (strlen)
c:/users/user/.platformio/packages/toolchain-gccarmnoneeabi@1.40804.0/bin/../lib/gcc/arm-none-eabi/4.8.4/../../../../arm-none-eabi/lib/armv7e-m\libc.a(lib_a-strncmp.o)
                              .pio/build/lptm4c1294ncpdt/src/Drivers/W-Link/cJSON/cJSON.o (strncmp)
c:/users/user/.platformio/packages/toolchain-gccarmnoneeabi@1.40804.0/bin/../lib/gcc/arm-none-eabi/4.8.4/../../../../arm-none-eabi/lib/armv7e-m\libc.a(lib_a-strncpy.o)
                              .pio/build/lptm4c1294ncpdt/src/NeonRTOS/lwip/api/netdb.o (strncpy)
c:/users/user/.platformio/packages/toolchain-gccarmnoneeabi@1.40804.0/bin/../lib/gcc/arm-none-eabi/4.8.4/../../../../arm-none-eabi/lib/armv7e-m\libc.a(lib_a-strstr.o)
                              .pio/build/lptm4c1294ncpdt/src/NeonRTOS/HTTPd/HTTPd.o (strstr)
c:/users/user/.platformio/packages/toolchain-gccarmnoneeabi@1.40804.0/bin/../lib/gcc/arm-none-eabi/4.8.4/../../../../arm-none-eabi/lib/armv7e-m\libc.a(lib_a-strtol.o)
                              c:/users/user/.platformio/packages/toolchain-gccarmnoneeabi@1.40804.0/bin/../lib/gcc/arm-none-eabi/4.8.4/../../../../arm-none-eabi/lib/armv7e-m\libc.a(lib_a-atoi.o) (_strtol_r)
c:/users/user/.platformio/packages/toolchain-gccarmnoneeabi@1.40804.0/bin/../lib/gcc/arm-none-eabi/4.8.4/../../../../arm-none-eabi/lib/armv7e-m\libc.a(lib_a-svfprintf.o)
                              c:/users/user/.platformio/packages/toolchain-gccarmnoneeabi@1.40804.0/bin/../lib/gcc/arm-none-eabi/4.8.4/../../../../arm-none-eabi/lib/armv7e-m\libc.a(lib_a-snprintf.o) (_svfprintf_r)
c:/users/user/.platformio/packages/toolchain-gccarmnoneeabi@1.40804.0/bin/../lib/gcc/arm-none-eabi/4.8.4/../../../../arm-none-eabi/lib/armv7e-m\libc.a(lib_a-vsnprintf.o)
                              .pio/build/lptm4c1294ncpdt/src/Drivers/W-Link/Driver/UART/UART_TM4C1294.o (vsnprintf)
c:/users/user/.platformio/packages/toolchain-gccarmnoneeabi@1.40804.0/bin/../lib/gcc/arm-none-eabi/4.8.4/../../../../arm-none-eabi/lib/armv7e-m\libc.a(lib_a-dtoa.o)
                              c:/users/user/.platformio/packages/toolchain-gccarmnoneeabi@1.40804.0/bin/../lib/gcc/arm-none-eabi/4.8.4/../../../../arm-none-eabi/lib/armv7e-m\libc.a(lib_a-svfprintf.o) (_dtoa_r)
c:/users/user/.platformio/packages/toolchain-gccarmnoneeabi@1.40804.0/bin/../lib/gcc/arm-none-eabi/4.8.4/../../../../arm-none-eabi/lib/armv7e-m\libc.a(lib_a-impure.o)
                              c:/users/user/.platformio/packages/toolchain-gccarmnoneeabi@1.40804.0/bin/../lib/gcc/arm-none-eabi/4.8.4/../../../../arm-none-eabi/lib/armv7e-m\libc.a(lib_a-rand.o) (_impure_ptr)
c:/users/user/.platformio/packages/toolchain-gccarmnoneeabi@1.40804.0/bin/../lib/gcc/arm-none-eabi/4.8.4/../../../../arm-none-eabi/lib/armv7e-m\libc.a(lib_a-locale.o)
                              c:/users/user/.platformio/packages/toolchain-gccarmnoneeabi@1.40804.0/bin/../lib/gcc/arm-none-eabi/4.8.4/../../../../arm-none-eabi/lib/armv7e-m\libc.a(lib_a-svfprintf.o) (_localeconv_r)
c:/users/user/.platformio/packages/toolchain-gccarmnoneeabi@1.40804.0/bin/../lib/gcc/arm-none-eabi/4.8.4/../../../../arm-none-eabi/lib/armv7e-m\libc.a(lib_a-memchr-stub.o)
                              c:/users/user/.platformio/packages/toolchain-gccarmnoneeabi@1.40804.0/bin/../lib/gcc/arm-none-eabi/4.8.4/../../../../arm-none-eabi/lib/armv7e-m\libc.a(lib_a-strstr.o) (memchr)
c:/users/user/.platformio/packages/toolchain-gccarmnoneeabi@1.40804.0/bin/../lib/gcc/arm-none-eabi/4.8.4/../../../../arm-none-eabi/lib/armv7e-m\libc.a(lib_a-mprec.o)
                              c:/users/user/.platformio/packages/toolchain-gccarmnoneeabi@1.40804.0/bin/../lib/gcc/arm-none-eabi/4.8.4/../../../../arm-none-eabi/lib/armv7e-m\libc.a(lib_a-dtoa.o) (_Balloc)
c:/users/user/.platformio/packages/toolchain-gccarmnoneeabi@1.40804.0/bin/../lib/gcc/arm-none-eabi/4.8.4/../../../../arm-none-eabi/lib/armv7e-m\libc.a(lib_a-svfiprintf.o)
                              c:/users/user/.platformio/packages/toolchain-gccarmnoneeabi@1.40804.0/bin/../lib/gcc/arm-none-eabi/4.8.4/../../../../arm-none-eabi/lib/armv7e-m\libc.a(lib_a-svfprintf.o) (__ssprint_r)
c:/users/user/.platformio/packages/toolchain-gccarmnoneeabi@1.40804.0/bin/../lib/gcc/arm-none-eabi/4.8.4/armv7e-m\libgcc.a(_arm_addsubdf3.o)
                              .pio/build/lptm4c1294ncpdt/src/Drivers/W-Link/Misc/ftoa.o (__aeabi_dsub)
c:/users/user/.platformio/packages/toolchain-gccarmnoneeabi@1.40804.0/bin/../lib/gcc/arm-none-eabi/4.8.4/armv7e-m\libgcc.a(_arm_muldivdf3.o)
                              .pio/build/lptm4c1294ncpdt/src/Drivers/W-Link/Misc/ftoa.o (__aeabi_dmul)
c:/users/user/.platformio/packages/toolchain-gccarmnoneeabi@1.40804.0/bin/../lib/gcc/arm-none-eabi/4.8.4/armv7e-m\libgcc.a(_arm_cmpdf2.o)
                              .pio/build/lptm4c1294ncpdt/src/Drivers/W-Link/cJSON/cJSON.o (__aeabi_dcmpeq)
c:/users/user/.platformio/packages/toolchain-gccarmnoneeabi@1.40804.0/bin/../lib/gcc/arm-none-eabi/4.8.4/armv7e-m\libgcc.a(_arm_fixdfsi.o)
                              .pio/build/lptm4c1294ncpdt/src/Drivers/W-Link/Misc/ftoa.o (__aeabi_d2iz)
c:/users/user/.platformio/packages/toolchain-gccarmnoneeabi@1.40804.0/bin/../lib/gcc/arm-none-eabi/4.8.4/armv7e-m\libgcc.a(_aeabi_uldivmod.o)
                              c:/users/user/.platformio/packages/toolchain-gccarmnoneeabi@1.40804.0/bin/../lib/gcc/arm-none-eabi/4.8.4/../../../../arm-none-eabi/lib/armv7e-m\libc.a(lib_a-svfprintf.o) (__aeabi_uldivmod)
c:/users/user/.platformio/packages/toolchain-gccarmnoneeabi@1.40804.0/bin/../lib/gcc/arm-none-eabi/4.8.4/armv7e-m\libgcc.a(bpabi.o)
                              c:/users/user/.platformio/packages/toolchain-gccarmnoneeabi@1.40804.0/bin/../lib/gcc/arm-none-eabi/4.8.4/armv7e-m\libgcc.a(_aeabi_uldivmod.o) (__gnu_uldivmod_helper)
c:/users/user/.platformio/packages/toolchain-gccarmnoneeabi@1.40804.0/bin/../lib/gcc/arm-none-eabi/4.8.4/armv7e-m\libgcc.a(_dvmd_tls.o)
                              c:/users/user/.platformio/packages/toolchain-gccarmnoneeabi@1.40804.0/bin/../lib/gcc/arm-none-eabi/4.8.4/armv7e-m\libgcc.a(_aeabi_uldivmod.o) (__aeabi_ldiv0)
c:/users/user/.platformio/packages/toolchain-gccarmnoneeabi@1.40804.0/bin/../lib/gcc/arm-none-eabi/4.8.4/armv7e-m\libgcc.a(_divdi3.o)
                              c:/users/user/.platformio/packages/toolchain-gccarmnoneeabi@1.40804.0/bin/../lib/gcc/arm-none-eabi/4.8.4/armv7e-m\libgcc.a(bpabi.o) (__divdi3)
c:/users/user/.platformio/packages/toolchain-gccarmnoneeabi@1.40804.0/bin/../lib/gcc/arm-none-eabi/4.8.4/armv7e-m\libgcc.a(_udivdi3.o)
                              c:/users/user/.platformio/packages/toolchain-gccarmnoneeabi@1.40804.0/bin/../lib/gcc/arm-none-eabi/4.8.4/armv7e-m\libgcc.a(bpabi.o) (__udivdi3)
c:/users/user/.platformio/packages/toolchain-gccarmnoneeabi@1.40804.0/bin/../lib/gcc/arm-none-eabi/4.8.4/../../../../arm-none-eabi/lib/armv7e-m\libm.a(lib_a-w_pow.o)
                              .pio/build/lptm4c1294ncpdt/src/Drivers/W-Link/Misc/ftoa.o (pow)
c:/users/user/.platformio/packages/toolchain-gccarmnoneeabi@1.40804.0/bin/../lib/gcc/arm-none-eabi/4.8.4/../../../../arm-none-eabi/lib/armv7e-m\libm.a(lib_a-e_pow.o)
                              c:/users/user/.platformio/packages/toolchain-gccarmnoneeabi@1.40804.0/bin/../lib/gcc/arm-none-eabi/4.8.4/../../../../arm-none-eabi/lib/armv7e-m\libm.a(lib_a-w_pow.o) (__ieee754_pow)
c:/users/user/.platformio/packages/toolchain-gccarmnoneeabi@1.40804.0/bin/../lib/gcc/arm-none-eabi/4.8.4/../../../../arm-none-eabi/lib/armv7e-m\libm.a(lib_a-e_sqrt.o)
                              c:/users/user/.platformio/packages/toolchain-gccarmnoneeabi@1.40804.0/bin/../lib/gcc/arm-none-eabi/4.8.4/../../../../arm-none-eabi/lib/armv7e-m\libm.a(lib_a-e_pow.o) (__ieee754_sqrt)
c:/users/user/.platformio/packages/toolchain-gccarmnoneeabi@1.40804.0/bin/../lib/gcc/arm-none-eabi/4.8.4/../../../../arm-none-eabi/lib/armv7e-m\libm.a(lib_a-s_fabs.o)
                              c:/users/user/.platformio/packages/toolchain-gccarmnoneeabi@1.40804.0/bin/../lib/gcc/arm-none-eabi/4.8.4/../../../../arm-none-eabi/lib/armv7e-m\libm.a(lib_a-e_pow.o) (fabs)
c:/users/user/.platformio/packages/toolchain-gccarmnoneeabi@1.40804.0/bin/../lib/gcc/arm-none-eabi/4.8.4/../../../../arm-none-eabi/lib/armv7e-m\libm.a(lib_a-s_finite.o)
                              c:/users/user/.platformio/packages/toolchain-gccarmnoneeabi@1.40804.0/bin/../lib/gcc/arm-none-eabi/4.8.4/../../../../arm-none-eabi/lib/armv7e-m\libm.a(lib_a-w_pow.o) (finite)
c:/users/user/.platformio/packages/toolchain-gccarmnoneeabi@1.40804.0/bin/../lib/gcc/arm-none-eabi/4.8.4/../../../../arm-none-eabi/lib/armv7e-m\libm.a(lib_a-s_lib_ver.o)
                              c:/users/user/.platformio/packages/toolchain-gccarmnoneeabi@1.40804.0/bin/../lib/gcc/arm-none-eabi/4.8.4/../../../../arm-none-eabi/lib/armv7e-m\libm.a(lib_a-w_pow.o) (__fdlib_version)
c:/users/user/.platformio/packages/toolchain-gccarmnoneeabi@1.40804.0/bin/../lib/gcc/arm-none-eabi/4.8.4/../../../../arm-none-eabi/lib/armv7e-m\libm.a(lib_a-s_matherr.o)
                              c:/users/user/.platformio/packages/toolchain-gccarmnoneeabi@1.40804.0/bin/../lib/gcc/arm-none-eabi/4.8.4/../../../../arm-none-eabi/lib/armv7e-m\libm.a(lib_a-w_pow.o) (matherr)
c:/users/user/.platformio/packages/toolchain-gccarmnoneeabi@1.40804.0/bin/../lib/gcc/arm-none-eabi/4.8.4/../../../../arm-none-eabi/lib/armv7e-m\libm.a(lib_a-s_nan.o)
                              c:/users/user/.platformio/packages/toolchain-gccarmnoneeabi@1.40804.0/bin/../lib/gcc/arm-none-eabi/4.8.4/../../../../arm-none-eabi/lib/armv7e-m\libm.a(lib_a-e_pow.o) (nan)
c:/users/user/.platformio/packages/toolchain-gccarmnoneeabi@1.40804.0/bin/../lib/gcc/arm-none-eabi/4.8.4/../../../../arm-none-eabi/lib/armv7e-m\libm.a(lib_a-s_rint.o)
                              c:/users/user/.platformio/packages/toolchain-gccarmnoneeabi@1.40804.0/bin/../lib/gcc/arm-none-eabi/4.8.4/../../../../arm-none-eabi/lib/armv7e-m\libm.a(lib_a-w_pow.o) (rint)
c:/users/user/.platformio/packages/toolchain-gccarmnoneeabi@1.40804.0/bin/../lib/gcc/arm-none-eabi/4.8.4/../../../../arm-none-eabi/lib/armv7e-m\libm.a(lib_a-s_scalbn.o)
                              c:/users/user/.platformio/packages/toolchain-gccarmnoneeabi@1.40804.0/bin/../lib/gcc/arm-none-eabi/4.8.4/../../../../arm-none-eabi/lib/armv7e-m\libm.a(lib_a-e_pow.o) (scalbn)
c:/users/user/.platformio/packages/toolchain-gccarmnoneeabi@1.40804.0/bin/../lib/gcc/arm-none-eabi/4.8.4/../../../../arm-none-eabi/lib/armv7e-m\libm.a(lib_a-s_copysign.o)
                              c:/users/user/.platformio/packages/toolchain-gccarmnoneeabi@1.40804.0/bin/../lib/gcc/arm-none-eabi/4.8.4/../../../../arm-none-eabi/lib/armv7e-m\libm.a(lib_a-s_scalbn.o) (copysign)
c:/users/user/.platformio/packages/toolchain-gccarmnoneeabi@1.40804.0/bin/../lib/gcc/arm-none-eabi/4.8.4/../../../../arm-none-eabi/lib/armv7e-m\libc.a(lib_a-errno.o)
                              c:/users/user/.platformio/packages/toolchain-gccarmnoneeabi@1.40804.0/bin/../lib/gcc/arm-none-eabi/4.8.4/../../../../arm-none-eabi/lib/armv7e-m\libm.a(lib_a-w_pow.o) (__errno)

Allocating common symbols
Common symbol       size              file

memp_memory_NETDB_base
                    0x137             .pio/build/lptm4c1294ncpdt/src/NeonRTOS/lwip/core/memp.o
netif_list          0x4               .pio/build/lptm4c1294ncpdt/src/NeonRTOS/lwip/core/netif.o
ip_data             0x18              .pio/build/lptm4c1294ncpdt/src/NeonRTOS/lwip/core/ip.o
memp_memory_NETBUF_base
                    0x23              .pio/build/lptm4c1294ncpdt/src/NeonRTOS/lwip/core/memp.o
tcp_active_pcbs_changed
                    0x1               .pio/build/lptm4c1294ncpdt/src/NeonRTOS/lwip/core/tcp.o
tcp_active_pcbs     0x4               .pio/build/lptm4c1294ncpdt/src/NeonRTOS/lwip/core/tcp.o
udp_pcbs            0x4               .pio/build/lptm4c1294ncpdt/src/NeonRTOS/lwip/core/udp.o
errno               0x4               c:/users/user/.platformio/packages/toolchain-gccarmnoneeabi@1.40804.0/bin/../lib/gcc/arm-none-eabi/4.8.4/../../../../arm-none-eabi/lib/armv7e-m\libc.a(lib_a-reent.o)
memp_memory_TCPIP_MSG_INPKT_base
                    0x83              .pio/build/lptm4c1294ncpdt/src/NeonRTOS/lwip/core/memp.o
tcp_ticks           0x4               .pio/build/lptm4c1294ncpdt/src/NeonRTOS/lwip/core/tcp.o
tcp_listen_pcbs     0x4               .pio/build/lptm4c1294ncpdt/src/NeonRTOS/lwip/core/tcp.o
All_LED_Status      0x20              .pio/build/lptm4c1294ncpdt/src/APP/LED_PWM_API.o
memp_memory_RAW_PCB_base
                    0x73              .pio/build/lptm4c1294ncpdt/src/NeonRTOS/lwip/core/memp.o
memp_memory_TCP_SEG_base
                    0x503             .pio/build/lptm4c1294ncpdt/src/NeonRTOS/lwip/core/memp.o
gnetif              0x3c              .pio/build/lptm4c1294ncpdt/src/NeonRTOS/NeonTCPIP.o
xQueueRegistry      0x40              .pio/build/lptm4c1294ncpdt/src/NeonRTOS/kernel/queue.o
memp_memory_PBUF_POOL_base
                    0xf0a3            .pio/build/lptm4c1294ncpdt/src/NeonRTOS/lwip/core/memp.o
g_pTxDescriptors    0x2d0             .pio/build/lptm4c1294ncpdt/src/Drivers/ethernetif/ethernetif_tm4c1294.o
memp_memory_FRAG_PBUF_base
                    0x16b             .pio/build/lptm4c1294ncpdt/src/NeonRTOS/lwip/core/memp.o
memp_memory_TCPIP_MSG_API_base
                    0x83              .pio/build/lptm4c1294ncpdt/src/NeonRTOS/lwip/core/memp.o
h_errno             0x4               .pio/build/lptm4c1294ncpdt/src/NeonRTOS/lwip/api/netdb.o
g_pRxDescriptors    0x2d0             .pio/build/lptm4c1294ncpdt/src/Drivers/ethernetif/ethernetif_tm4c1294.o
tcp_input_pcb       0x4               .pio/build/lptm4c1294ncpdt/src/NeonRTOS/lwip/core/tcp_in.o
HTTPd_WebSocketd_Client_List
                    0x50              .pio/build/lptm4c1294ncpdt/src/NeonRTOS/HTTPd/HTTPd.o
memp_memory_PBUF_base
                    0x503             .pio/build/lptm4c1294ncpdt/src/NeonRTOS/lwip/core/memp.o
tcp_bound_pcbs      0x4               .pio/build/lptm4c1294ncpdt/src/NeonRTOS/lwip/core/tcp.o
memp_memory_TCP_PCB_LISTEN_base
                    0xe3              .pio/build/lptm4c1294ncpdt/src/NeonRTOS/lwip/core/memp.o
memp_memory_REASSDATA_base
                    0xa3              .pio/build/lptm4c1294ncpdt/src/NeonRTOS/lwip/core/memp.o
memp_memory_UDP_PCB_base
                    0x203             .pio/build/lptm4c1294ncpdt/src/NeonRTOS/lwip/core/memp.o
pbuf_free_ooseq_pending
                    0x1               .pio/build/lptm4c1294ncpdt/src/NeonRTOS/lwip/core/pbuf.o
lwip_sys_mutex      0x4               .pio/build/lptm4c1294ncpdt/src/NeonRTOS/lwip/arch/sys_arch.o
tcp_tw_pcbs         0x4               .pio/build/lptm4c1294ncpdt/src/NeonRTOS/lwip/core/tcp.o
memp_memory_NETCONN_base
                    0x783             .pio/build/lptm4c1294ncpdt/src/NeonRTOS/lwip/core/memp.o
netif_default       0x4               .pio/build/lptm4c1294ncpdt/src/NeonRTOS/lwip/core/netif.o
memp_memory_TCP_PCB_base
                    0x3ac3            .pio/build/lptm4c1294ncpdt/src/NeonRTOS/lwip/core/memp.o
memp_memory_SYS_TIMEOUT_base
                    0xa3              .pio/build/lptm4c1294ncpdt/src/NeonRTOS/lwip/core/memp.o
g_ui32AbnormalInts  0x4               .pio/build/lptm4c1294ncpdt/src/Drivers/ethernetif/ethernetif_tm4c1294.o
g_ui32NormalInts    0x4               .pio/build/lptm4c1294ncpdt/src/Drivers/ethernetif/ethernetif_tm4c1294.o
ram_heap            0x1041b           .pio/build/lptm4c1294ncpdt/src/NeonRTOS/lwip/core/mem.o

Memory Configuration

Name             Origin             Length             Attributes
FLASH            0x00000000         0x00100000         xr
SRAM             0x20000000         0x00040000         xrw
*default*        0x00000000         0xffffffff

Linker script and memory map

LOAD .pio/build/lptm4c1294ncpdt/src/APP/LED_PWM_API.o
LOAD .pio/build/lptm4c1294ncpdt/src/APP/LED_PWM_APP.o
LOAD .pio/build/lptm4c1294ncpdt/src/Drivers/W-Link/Driver/GPIO/GPIO_TM4C1294.o
LOAD .pio/build/lptm4c1294ncpdt/src/Drivers/W-Link/Driver/GPIO/Pin/GPIO_Pin_TM4C1294.o
LOAD .pio/build/lptm4c1294ncpdt/src/Drivers/W-Link/Driver/PWM/PWM_TM4C1294.o
LOAD .pio/build/lptm4c1294ncpdt/src/Drivers/W-Link/Driver/SysCtrl/SysCtrl_TM4C1294.o
LOAD .pio/build/lptm4c1294ncpdt/src/Drivers/W-Link/Driver/UART/UART_TM4C1294.o
LOAD .pio/build/lptm4c1294ncpdt/src/Drivers/W-Link/Misc/Base64.o
LOAD .pio/build/lptm4c1294ncpdt/src/Drivers/W-Link/Misc/atoh.o
LOAD .pio/build/lptm4c1294ncpdt/src/Drivers/W-Link/Misc/ftoa.o
LOAD .pio/build/lptm4c1294ncpdt/src/Drivers/W-Link/Misc/htoa.o
LOAD .pio/build/lptm4c1294ncpdt/src/Drivers/W-Link/Misc/itoa.o
LOAD .pio/build/lptm4c1294ncpdt/src/Drivers/W-Link/Misc/sha1.o
LOAD .pio/build/lptm4c1294ncpdt/src/Drivers/W-Link/cJSON/cJSON.o
LOAD .pio/build/lptm4c1294ncpdt/src/Drivers/ethernetif/ethernetif_tm4c1294.o
LOAD .pio/build/lptm4c1294ncpdt/src/Drivers/soc/driverlib/adc.o
LOAD .pio/build/lptm4c1294ncpdt/src/Drivers/soc/driverlib/aes.o
LOAD .pio/build/lptm4c1294ncpdt/src/Drivers/soc/driverlib/can.o
LOAD .pio/build/lptm4c1294ncpdt/src/Drivers/soc/driverlib/comp.o
LOAD .pio/build/lptm4c1294ncpdt/src/Drivers/soc/driverlib/cpu.o
LOAD .pio/build/lptm4c1294ncpdt/src/Drivers/soc/driverlib/crc.o
LOAD .pio/build/lptm4c1294ncpdt/src/Drivers/soc/driverlib/des.o
LOAD .pio/build/lptm4c1294ncpdt/src/Drivers/soc/driverlib/eeprom.o
LOAD .pio/build/lptm4c1294ncpdt/src/Drivers/soc/driverlib/emac.o
LOAD .pio/build/lptm4c1294ncpdt/src/Drivers/soc/driverlib/epi.o
LOAD .pio/build/lptm4c1294ncpdt/src/Drivers/soc/driverlib/flash.o
LOAD .pio/build/lptm4c1294ncpdt/src/Drivers/soc/driverlib/fpu.o
LOAD .pio/build/lptm4c1294ncpdt/src/Drivers/soc/driverlib/gpio.o
LOAD .pio/build/lptm4c1294ncpdt/src/Drivers/soc/driverlib/hibernate.o
LOAD .pio/build/lptm4c1294ncpdt/src/Drivers/soc/driverlib/i2c.o
LOAD .pio/build/lptm4c1294ncpdt/src/Drivers/soc/driverlib/interrupt.o
LOAD .pio/build/lptm4c1294ncpdt/src/Drivers/soc/driverlib/lcd.o
LOAD .pio/build/lptm4c1294ncpdt/src/Drivers/soc/driverlib/mpu.o
LOAD .pio/build/lptm4c1294ncpdt/src/Drivers/soc/driverlib/onewire.o
LOAD .pio/build/lptm4c1294ncpdt/src/Drivers/soc/driverlib/pwm.o
LOAD .pio/build/lptm4c1294ncpdt/src/Drivers/soc/driverlib/qei.o
LOAD .pio/build/lptm4c1294ncpdt/src/Drivers/soc/driverlib/shamd5.o
LOAD .pio/build/lptm4c1294ncpdt/src/Drivers/soc/driverlib/ssi.o
LOAD .pio/build/lptm4c1294ncpdt/src/Drivers/soc/driverlib/sw_crc.o
LOAD .pio/build/lptm4c1294ncpdt/src/Drivers/soc/driverlib/sysctl.o
LOAD .pio/build/lptm4c1294ncpdt/src/Drivers/soc/driverlib/sysexc.o
LOAD .pio/build/lptm4c1294ncpdt/src/Drivers/soc/driverlib/systick.o
LOAD .pio/build/lptm4c1294ncpdt/src/Drivers/soc/driverlib/timer.o
LOAD .pio/build/lptm4c1294ncpdt/src/Drivers/soc/driverlib/uart.o
LOAD .pio/build/lptm4c1294ncpdt/src/Drivers/soc/driverlib/udma.o
LOAD .pio/build/lptm4c1294ncpdt/src/Drivers/soc/driverlib/usb.o
LOAD .pio/build/lptm4c1294ncpdt/src/Drivers/soc/driverlib/watchdog.o
LOAD .pio/build/lptm4c1294ncpdt/src/Drivers/soc/startup_gcc.o
LOAD .pio/build/lptm4c1294ncpdt/src/NeonRTOS/HTTPd/HTTPd.o
LOAD .pio/build/lptm4c1294ncpdt/src/NeonRTOS/HTTPd/HTTPd_Utils.o
LOAD .pio/build/lptm4c1294ncpdt/src/NeonRTOS/HTTPd/HTTPd_def.o
LOAD .pio/build/lptm4c1294ncpdt/src/NeonRTOS/HTTPd/NeonRtFs.o
LOAD .pio/build/lptm4c1294ncpdt/src/NeonRTOS/HTTPd/heatshrink_decoder.o
LOAD .pio/build/lptm4c1294ncpdt/src/NeonRTOS/HTTPd/neonrtfs_img.o
LOAD .pio/build/lptm4c1294ncpdt/src/NeonRTOS/NeonAppInterface.o
LOAD .pio/build/lptm4c1294ncpdt/src/NeonRTOS/NeonRTOS.o
LOAD .pio/build/lptm4c1294ncpdt/src/NeonRTOS/NeonTCPIP.o
LOAD .pio/build/lptm4c1294ncpdt/src/NeonRTOS/kernel/croutine.o
LOAD .pio/build/lptm4c1294ncpdt/src/NeonRTOS/kernel/event_groups.o
LOAD .pio/build/lptm4c1294ncpdt/src/NeonRTOS/kernel/list.o
LOAD .pio/build/lptm4c1294ncpdt/src/NeonRTOS/kernel/portable/GCC/ARM_CM4F/port.o
LOAD .pio/build/lptm4c1294ncpdt/src/NeonRTOS/kernel/portable/MemMang/heap_4.o
LOAD .pio/build/lptm4c1294ncpdt/src/NeonRTOS/kernel/queue.o
LOAD .pio/build/lptm4c1294ncpdt/src/NeonRTOS/kernel/stream_buffer.o
LOAD .pio/build/lptm4c1294ncpdt/src/NeonRTOS/kernel/tasks.o
LOAD .pio/build/lptm4c1294ncpdt/src/NeonRTOS/kernel/timers.o
LOAD .pio/build/lptm4c1294ncpdt/src/NeonRTOS/lwip/api/api_lib.o
LOAD .pio/build/lptm4c1294ncpdt/src/NeonRTOS/lwip/api/api_msg.o
LOAD .pio/build/lptm4c1294ncpdt/src/NeonRTOS/lwip/api/err.o
LOAD .pio/build/lptm4c1294ncpdt/src/NeonRTOS/lwip/api/if_api.o
LOAD .pio/build/lptm4c1294ncpdt/src/NeonRTOS/lwip/api/netbuf.o
LOAD .pio/build/lptm4c1294ncpdt/src/NeonRTOS/lwip/api/netdb.o
LOAD .pio/build/lptm4c1294ncpdt/src/NeonRTOS/lwip/api/netifapi.o
LOAD .pio/build/lptm4c1294ncpdt/src/NeonRTOS/lwip/api/sockets.o
LOAD .pio/build/lptm4c1294ncpdt/src/NeonRTOS/lwip/api/tcpip.o
LOAD .pio/build/lptm4c1294ncpdt/src/NeonRTOS/lwip/arch/sys_arch.o
LOAD .pio/build/lptm4c1294ncpdt/src/NeonRTOS/lwip/core/altcp.o
LOAD .pio/build/lptm4c1294ncpdt/src/NeonRTOS/lwip/core/altcp_alloc.o
LOAD .pio/build/lptm4c1294ncpdt/src/NeonRTOS/lwip/core/altcp_tcp.o
LOAD .pio/build/lptm4c1294ncpdt/src/NeonRTOS/lwip/core/def.o
LOAD .pio/build/lptm4c1294ncpdt/src/NeonRTOS/lwip/core/dns.o
LOAD .pio/build/lptm4c1294ncpdt/src/NeonRTOS/lwip/core/inet_chksum.o
LOAD .pio/build/lptm4c1294ncpdt/src/NeonRTOS/lwip/core/init.o
LOAD .pio/build/lptm4c1294ncpdt/src/NeonRTOS/lwip/core/ip.o
LOAD .pio/build/lptm4c1294ncpdt/src/NeonRTOS/lwip/core/ipv4/acd.o
LOAD .pio/build/lptm4c1294ncpdt/src/NeonRTOS/lwip/core/ipv4/autoip.o
LOAD .pio/build/lptm4c1294ncpdt/src/NeonRTOS/lwip/core/ipv4/dhcp.o
LOAD .pio/build/lptm4c1294ncpdt/src/NeonRTOS/lwip/core/ipv4/etharp.o
LOAD .pio/build/lptm4c1294ncpdt/src/NeonRTOS/lwip/core/ipv4/icmp.o
LOAD .pio/build/lptm4c1294ncpdt/src/NeonRTOS/lwip/core/ipv4/igmp.o
LOAD .pio/build/lptm4c1294ncpdt/src/NeonRTOS/lwip/core/ipv4/ip4.o
LOAD .pio/build/lptm4c1294ncpdt/src/NeonRTOS/lwip/core/ipv4/ip4_addr.o
LOAD .pio/build/lptm4c1294ncpdt/src/NeonRTOS/lwip/core/ipv4/ip4_frag.o
LOAD .pio/build/lptm4c1294ncpdt/src/NeonRTOS/lwip/core/ipv6/dhcp6.o
LOAD .pio/build/lptm4c1294ncpdt/src/NeonRTOS/lwip/core/ipv6/ethip6.o
LOAD .pio/build/lptm4c1294ncpdt/src/NeonRTOS/lwip/core/ipv6/icmp6.o
LOAD .pio/build/lptm4c1294ncpdt/src/NeonRTOS/lwip/core/ipv6/inet6.o
LOAD .pio/build/lptm4c1294ncpdt/src/NeonRTOS/lwip/core/ipv6/ip6.o
LOAD .pio/build/lptm4c1294ncpdt/src/NeonRTOS/lwip/core/ipv6/ip6_addr.o
LOAD .pio/build/lptm4c1294ncpdt/src/NeonRTOS/lwip/core/ipv6/ip6_frag.o
LOAD .pio/build/lptm4c1294ncpdt/src/NeonRTOS/lwip/core/ipv6/mld6.o
LOAD .pio/build/lptm4c1294ncpdt/src/NeonRTOS/lwip/core/ipv6/nd6.o
LOAD .pio/build/lptm4c1294ncpdt/src/NeonRTOS/lwip/core/mem.o
LOAD .pio/build/lptm4c1294ncpdt/src/NeonRTOS/lwip/core/memp.o
LOAD .pio/build/lptm4c1294ncpdt/src/NeonRTOS/lwip/core/netif.o
LOAD .pio/build/lptm4c1294ncpdt/src/NeonRTOS/lwip/core/pbuf.o
LOAD .pio/build/lptm4c1294ncpdt/src/NeonRTOS/lwip/core/raw.o
LOAD .pio/build/lptm4c1294ncpdt/src/NeonRTOS/lwip/core/stats.o
LOAD .pio/build/lptm4c1294ncpdt/src/NeonRTOS/lwip/core/sys.o
LOAD .pio/build/lptm4c1294ncpdt/src/NeonRTOS/lwip/core/tcp.o
LOAD .pio/build/lptm4c1294ncpdt/src/NeonRTOS/lwip/core/tcp_in.o
LOAD .pio/build/lptm4c1294ncpdt/src/NeonRTOS/lwip/core/tcp_out.o
LOAD .pio/build/lptm4c1294ncpdt/src/NeonRTOS/lwip/core/timeouts.o
LOAD .pio/build/lptm4c1294ncpdt/src/NeonRTOS/lwip/core/udp.o
LOAD .pio/build/lptm4c1294ncpdt/src/NeonRTOS/lwip/netif/bridgeif.o
LOAD .pio/build/lptm4c1294ncpdt/src/NeonRTOS/lwip/netif/bridgeif_fdb.o
LOAD .pio/build/lptm4c1294ncpdt/src/NeonRTOS/lwip/netif/ethernet.o
LOAD .pio/build/lptm4c1294ncpdt/src/NeonRTOS/lwip/netif/lowpan6.o
LOAD .pio/build/lptm4c1294ncpdt/src/NeonRTOS/lwip/netif/lowpan6_ble.o
LOAD .pio/build/lptm4c1294ncpdt/src/NeonRTOS/lwip/netif/lowpan6_common.o
LOAD .pio/build/lptm4c1294ncpdt/src/NeonRTOS/lwip/netif/ppp/auth.o
LOAD .pio/build/lptm4c1294ncpdt/src/NeonRTOS/lwip/netif/ppp/ccp.o
LOAD .pio/build/lptm4c1294ncpdt/src/NeonRTOS/lwip/netif/ppp/chap-md5.o
LOAD .pio/build/lptm4c1294ncpdt/src/NeonRTOS/lwip/netif/ppp/chap-new.o
LOAD .pio/build/lptm4c1294ncpdt/src/NeonRTOS/lwip/netif/ppp/chap_ms.o
LOAD .pio/build/lptm4c1294ncpdt/src/NeonRTOS/lwip/netif/ppp/demand.o
LOAD .pio/build/lptm4c1294ncpdt/src/NeonRTOS/lwip/netif/ppp/eap.o
LOAD .pio/build/lptm4c1294ncpdt/src/NeonRTOS/lwip/netif/ppp/ecp.o
LOAD .pio/build/lptm4c1294ncpdt/src/NeonRTOS/lwip/netif/ppp/eui64.o
LOAD .pio/build/lptm4c1294ncpdt/src/NeonRTOS/lwip/netif/ppp/fsm.o
LOAD .pio/build/lptm4c1294ncpdt/src/NeonRTOS/lwip/netif/ppp/ipcp.o
LOAD .pio/build/lptm4c1294ncpdt/src/NeonRTOS/lwip/netif/ppp/ipv6cp.o
LOAD .pio/build/lptm4c1294ncpdt/src/NeonRTOS/lwip/netif/ppp/lcp.o
LOAD .pio/build/lptm4c1294ncpdt/src/NeonRTOS/lwip/netif/ppp/magic.o
LOAD .pio/build/lptm4c1294ncpdt/src/NeonRTOS/lwip/netif/ppp/mppe.o
LOAD .pio/build/lptm4c1294ncpdt/src/NeonRTOS/lwip/netif/ppp/multilink.o
LOAD .pio/build/lptm4c1294ncpdt/src/NeonRTOS/lwip/netif/ppp/polarssl/arc4.o
LOAD .pio/build/lptm4c1294ncpdt/src/NeonRTOS/lwip/netif/ppp/polarssl/des.o
LOAD .pio/build/lptm4c1294ncpdt/src/NeonRTOS/lwip/netif/ppp/polarssl/md4.o
LOAD .pio/build/lptm4c1294ncpdt/src/NeonRTOS/lwip/netif/ppp/polarssl/md5.o
LOAD .pio/build/lptm4c1294ncpdt/src/NeonRTOS/lwip/netif/ppp/polarssl/sha1.o
LOAD .pio/build/lptm4c1294ncpdt/src/NeonRTOS/lwip/netif/ppp/ppp.o
LOAD .pio/build/lptm4c1294ncpdt/src/NeonRTOS/lwip/netif/ppp/pppapi.o
LOAD .pio/build/lptm4c1294ncpdt/src/NeonRTOS/lwip/netif/ppp/pppcrypt.o
LOAD .pio/build/lptm4c1294ncpdt/src/NeonRTOS/lwip/netif/ppp/pppoe.o
LOAD .pio/build/lptm4c1294ncpdt/src/NeonRTOS/lwip/netif/ppp/pppol2tp.o
LOAD .pio/build/lptm4c1294ncpdt/src/NeonRTOS/lwip/netif/ppp/pppos.o
LOAD .pio/build/lptm4c1294ncpdt/src/NeonRTOS/lwip/netif/ppp/upap.o
LOAD .pio/build/lptm4c1294ncpdt/src/NeonRTOS/lwip/netif/ppp/utils.o
LOAD .pio/build/lptm4c1294ncpdt/src/NeonRTOS/lwip/netif/ppp/vj.o
LOAD .pio/build/lptm4c1294ncpdt/src/NeonRTOS/lwip/netif/zepif.o
LOAD .pio/build/lptm4c1294ncpdt/src/main.o
LOAD .pio/build/lptm4c1294ncpdt/src/stub_sbrk.o
LOAD .pio/build/lptm4c1294ncpdt/src/wrap_malloc.o
START GROUP
LOAD c:/users/user/.platformio/packages/toolchain-gccarmnoneeabi@1.40804.0/bin/../lib/gcc/arm-none-eabi/4.8.4/../../../../arm-none-eabi/lib/armv7e-m\libc.a
LOAD c:/users/user/.platformio/packages/toolchain-gccarmnoneeabi@1.40804.0/bin/../lib/gcc/arm-none-eabi/4.8.4/armv7e-m\libgcc.a
LOAD c:/users/user/.platformio/packages/toolchain-gccarmnoneeabi@1.40804.0/bin/../lib/gcc/arm-none-eabi/4.8.4/../../../../arm-none-eabi/lib/armv7e-m\libm.a
END GROUP

.isr_vector     0x00000000      0x200
 *(.isr_vector)
 .isr_vector    0x00000000      0x200 .pio/build/lptm4c1294ncpdt/src/Drivers/soc/startup_gcc.o
                0x00000000                g_pfnVectors

.ARM.extab      0x00000200        0x0
 .ARM.extab     0x00000200        0x0 c:/users/user/.platformio/packages/toolchain-gccarmnoneeabi@1.40804.0/bin/../lib/gcc/arm-none-eabi/4.8.4/armv7e-m\libgcc.a(_divdi3.o)
 .ARM.extab     0x00000200        0x0 c:/users/user/.platformio/packages/toolchain-gccarmnoneeabi@1.40804.0/bin/../lib/gcc/arm-none-eabi/4.8.4/armv7e-m\libgcc.a(_udivdi3.o)

.text           0x00000200    0x8e5c8
                0x00000200                _text = .
 *(.text .text.*)
 .text          0x00000200        0x0 .pio/build/lptm4c1294ncpdt/src/APP/LED_PWM_API.o
 .text.LED_PWM_Init
                0x00000200       0x2c .pio/build/lptm4c1294ncpdt/src/APP/LED_PWM_API.o
                0x00000200                LED_PWM_Init
 .text.LED_PWM_Get_Num_Of_LED
                0x0000022c       0x10 .pio/build/lptm4c1294ncpdt/src/APP/LED_PWM_API.o
                0x0000022c                LED_PWM_Get_Num_Of_LED
 .text.LED_PWM_Set_LED_On_Off_Status
                0x0000023c       0x34 .pio/build/lptm4c1294ncpdt/src/APP/LED_PWM_API.o
                0x0000023c                LED_PWM_Set_LED_On_Off_Status
 .text.LED_PWM_Set_LED_Level_Status
                0x00000270       0x28 .pio/build/lptm4c1294ncpdt/src/APP/LED_PWM_API.o
                0x00000270                LED_PWM_Set_LED_Level_Status
 .text.LED_PWM_Toggle_LED_On_Off_Status
                0x00000298       0x1c .pio/build/lptm4c1294ncpdt/src/APP/LED_PWM_API.o
                0x00000298                LED_PWM_Toggle_LED_On_Off_Status
 .text.LED_PWM_Set_Selected_LED_On_Off_Status
                0x000002b4       0x40 .pio/build/lptm4c1294ncpdt/src/APP/LED_PWM_API.o
                0x000002b4                LED_PWM_Set_Selected_LED_On_Off_Status
 .text.LED_PWM_Set_Selected_LED_Level_Status
                0x000002f4       0x38 .pio/build/lptm4c1294ncpdt/src/APP/LED_PWM_API.o
                0x000002f4                LED_PWM_Set_Selected_LED_Level_Status
 .text.LED_PWM_Toggle_Selected_LED_On_Off_Status
                0x0000032c       0x44 .pio/build/lptm4c1294ncpdt/src/APP/LED_PWM_API.o
                0x0000032c                LED_PWM_Toggle_Selected_LED_On_Off_Status
 .text          0x00000370        0x0 .pio/build/lptm4c1294ncpdt/src/APP/LED_PWM_APP.o
 .text.LED_PWM_CGI_LED_OnOff_Any_Number
                0x00000370      0x16c .pio/build/lptm4c1294ncpdt/src/APP/LED_PWM_APP.o
                0x00000370                LED_PWM_CGI_LED_OnOff_Any_Number
 .text.LED_PWM_CGI_LED_Any_Number
                0x000004dc      0x200 .pio/build/lptm4c1294ncpdt/src/APP/LED_PWM_APP.o
                0x000004dc                LED_PWM_CGI_LED_Any_Number
 .text.LED_PWM_CGI_LED_Level_Any_Number
                0x000006dc      0x1a0 .pio/build/lptm4c1294ncpdt/src/APP/LED_PWM_APP.o
                0x000006dc                LED_PWM_CGI_LED_Level_Any_Number
 .text.LED_PWM_CGI_LED_Num
                0x0000087c       0x7c .pio/build/lptm4c1294ncpdt/src/APP/LED_PWM_APP.o
                0x0000087c                LED_PWM_CGI_LED_Num
 .text.LED_PWM_Get_All_LED_Status
                0x000008f8       0xb8 .pio/build/lptm4c1294ncpdt/src/APP/LED_PWM_APP.o
                0x000008f8                LED_PWM_Get_All_LED_Status
 .text.LED_PWM_CGI_Root
                0x000009b0       0x64 .pio/build/lptm4c1294ncpdt/src/APP/LED_PWM_APP.o
                0x000009b0                LED_PWM_CGI_Root
 .text.Process_LED_PWM_APP_JSON_POST_Commands
                0x00000a14      0x10c .pio/build/lptm4c1294ncpdt/src/APP/LED_PWM_APP.o
                0x00000a14                Process_LED_PWM_APP_JSON_POST_Commands
 .text.Process_LED_PWM_APP_JSON_GET_Commands
                0x00000b20      0x118 .pio/build/lptm4c1294ncpdt/src/APP/LED_PWM_APP.o
                0x00000b20                Process_LED_PWM_APP_JSON_GET_Commands
 .text.Process_LED_PWM_APP_Incoming_JSON_GET_Msg
                0x00000c38       0x14 .pio/build/lptm4c1294ncpdt/src/APP/LED_PWM_APP.o
                0x00000c38                Process_LED_PWM_APP_Incoming_JSON_GET_Msg
 .text.LED_PWM_Do_Report
                0x00000c4c       0x6c .pio/build/lptm4c1294ncpdt/src/APP/LED_PWM_APP.o
                0x00000c4c                LED_PWM_Do_Report
 .text.Process_LED_PWM_APP_Incoming_JSON_POST_Msg
                0x00000cb8       0x3a .pio/build/lptm4c1294ncpdt/src/APP/LED_PWM_APP.o
                0x00000cb8                Process_LED_PWM_APP_Incoming_JSON_POST_Msg
 *fill*         0x00000cf2        0x2 
 .text.Neon_APP_Device_Init
                0x00000cf4       0x7c .pio/build/lptm4c1294ncpdt/src/APP/LED_PWM_APP.o
                0x00000cf4                Neon_APP_Device_Init
 .text          0x00000d70        0x0 .pio/build/lptm4c1294ncpdt/src/Drivers/W-Link/Driver/GPIO/GPIO_TM4C1294.o
 .text.GPIO_Pin_Init
                0x00000d70       0xb0 .pio/build/lptm4c1294ncpdt/src/Drivers/W-Link/Driver/GPIO/GPIO_TM4C1294.o
                0x00000d70                GPIO_Pin_Init
 .text.GPIO_Pin_DeInit
                0x00000e20       0x50 .pio/build/lptm4c1294ncpdt/src/Drivers/W-Link/Driver/GPIO/GPIO_TM4C1294.o
                0x00000e20                GPIO_Pin_DeInit
 .text.GPIO_Pin_is_Init
                0x00000e70       0x10 .pio/build/lptm4c1294ncpdt/src/Drivers/W-Link/Driver/GPIO/GPIO_TM4C1294.o
                0x00000e70                GPIO_Pin_is_Init
 .text.GPIO_Pin_Set_Direction
                0x00000e80       0x5c .pio/build/lptm4c1294ncpdt/src/Drivers/W-Link/Driver/GPIO/GPIO_TM4C1294.o
                0x00000e80                GPIO_Pin_Set_Direction
 .text.GPIO_Pin_Get_Direction
                0x00000edc       0x1c .pio/build/lptm4c1294ncpdt/src/Drivers/W-Link/Driver/GPIO/GPIO_TM4C1294.o
                0x00000edc                GPIO_Pin_Get_Direction
 .text.GPIO_Pin_Set_PullMode
                0x00000ef8       0x5c .pio/build/lptm4c1294ncpdt/src/Drivers/W-Link/Driver/GPIO/GPIO_TM4C1294.o
                0x00000ef8                GPIO_Pin_Set_PullMode
 .text.GPIO_Pin_Get_PullMode
                0x00000f54       0x1c .pio/build/lptm4c1294ncpdt/src/Drivers/W-Link/Driver/GPIO/GPIO_TM4C1294.o
                0x00000f54                GPIO_Pin_Get_PullMode
 .text.GPIO_Pin_Read
                0x00000f70       0x58 .pio/build/lptm4c1294ncpdt/src/Drivers/W-Link/Driver/GPIO/GPIO_TM4C1294.o
                0x00000f70                GPIO_Pin_Read
 .text.GPIO_Pin_Write
                0x00000fc8       0x50 .pio/build/lptm4c1294ncpdt/src/Drivers/W-Link/Driver/GPIO/GPIO_TM4C1294.o
                0x00000fc8                GPIO_Pin_Write
 .text.GPIO_Pin_Toggle
                0x00001018       0x5c .pio/build/lptm4c1294ncpdt/src/Drivers/W-Link/Driver/GPIO/GPIO_TM4C1294.o
                0x00001018                GPIO_Pin_Toggle
 .text.GPIO_IRQ_Handler
                0x00001074       0x4c .pio/build/lptm4c1294ncpdt/src/Drivers/W-Link/Driver/GPIO/GPIO_TM4C1294.o
                0x00001074                GPIO_IRQ_Handler
 .text.GPIOA_IRQ_Handler
                0x000010c0        0x8 .pio/build/lptm4c1294ncpdt/src/Drivers/W-Link/Driver/GPIO/GPIO_TM4C1294.o
                0x000010c0                GPIOA_IRQ_Handler
 .text.GPIOB_IRQ_Handler
                0x000010c8        0xc .pio/build/lptm4c1294ncpdt/src/Drivers/W-Link/Driver/GPIO/GPIO_TM4C1294.o
                0x000010c8                GPIOB_IRQ_Handler
 .text.GPIOC_IRQ_Handler
                0x000010d4        0xc .pio/build/lptm4c1294ncpdt/src/Drivers/W-Link/Driver/GPIO/GPIO_TM4C1294.o
                0x000010d4                GPIOC_IRQ_Handler
 .text.GPIOD_IRQ_Handler
                0x000010e0        0xc .pio/build/lptm4c1294ncpdt/src/Drivers/W-Link/Driver/GPIO/GPIO_TM4C1294.o
                0x000010e0                GPIOD_IRQ_Handler
 .text.GPIOE_IRQ_Handler
                0x000010ec        0xc .pio/build/lptm4c1294ncpdt/src/Drivers/W-Link/Driver/GPIO/GPIO_TM4C1294.o
                0x000010ec                GPIOE_IRQ_Handler
 .text.GPIOF_IRQ_Handler
                0x000010f8        0xc .pio/build/lptm4c1294ncpdt/src/Drivers/W-Link/Driver/GPIO/GPIO_TM4C1294.o
                0x000010f8                GPIOF_IRQ_Handler
 .text.GPIOG_IRQ_Handler
                0x00001104        0xc .pio/build/lptm4c1294ncpdt/src/Drivers/W-Link/Driver/GPIO/GPIO_TM4C1294.o
                0x00001104                GPIOG_IRQ_Handler
 .text.GPIOH_IRQ_Handler
                0x00001110        0xc .pio/build/lptm4c1294ncpdt/src/Drivers/W-Link/Driver/GPIO/GPIO_TM4C1294.o
                0x00001110                GPIOH_IRQ_Handler
 .text.GPIOJ_IRQ_Handler
                0x0000111c        0xc .pio/build/lptm4c1294ncpdt/src/Drivers/W-Link/Driver/GPIO/GPIO_TM4C1294.o
                0x0000111c                GPIOJ_IRQ_Handler
 .text.GPIOK_IRQ_Handler
                0x00001128        0xc .pio/build/lptm4c1294ncpdt/src/Drivers/W-Link/Driver/GPIO/GPIO_TM4C1294.o
                0x00001128                GPIOK_IRQ_Handler
 .text.GPIOL_IRQ_Handler
                0x00001134        0xc .pio/build/lptm4c1294ncpdt/src/Drivers/W-Link/Driver/GPIO/GPIO_TM4C1294.o
                0x00001134                GPIOL_IRQ_Handler
 .text.GPIOM_IRQ_Handler
                0x00001140        0xc .pio/build/lptm4c1294ncpdt/src/Drivers/W-Link/Driver/GPIO/GPIO_TM4C1294.o
                0x00001140                GPIOM_IRQ_Handler
 .text.GPION_IRQ_Handler
                0x0000114c        0xc .pio/build/lptm4c1294ncpdt/src/Drivers/W-Link/Driver/GPIO/GPIO_TM4C1294.o
                0x0000114c                GPION_IRQ_Handler
 .text.GPIOP_IRQ_Handler
                0x00001158        0xc .pio/build/lptm4c1294ncpdt/src/Drivers/W-Link/Driver/GPIO/GPIO_TM4C1294.o
                0x00001158                GPIOP_IRQ_Handler
 .text.GPIOQ_IRQ_Handler
                0x00001164        0xc .pio/build/lptm4c1294ncpdt/src/Drivers/W-Link/Driver/GPIO/GPIO_TM4C1294.o
                0x00001164                GPIOQ_IRQ_Handler
 .text.GPIO_Interrupt_Init
                0x00001170      0x1c8 .pio/build/lptm4c1294ncpdt/src/Drivers/W-Link/Driver/GPIO/GPIO_TM4C1294.o
                0x00001170                GPIO_Interrupt_Init
 .text.GPIO_Interrupt_DeInit
                0x00001338       0x58 .pio/build/lptm4c1294ncpdt/src/Drivers/W-Link/Driver/GPIO/GPIO_TM4C1294.o
                0x00001338                GPIO_Interrupt_DeInit
 .text.GPIO_Config_Interrupt_Mode
                0x00001390       0x60 .pio/build/lptm4c1294ncpdt/src/Drivers/W-Link/Driver/GPIO/GPIO_TM4C1294.o
                0x00001390                GPIO_Config_Interrupt_Mode
 .text.GPIO_Register_Interrupt_Handler
                0x000013f0       0x1c .pio/build/lptm4c1294ncpdt/src/Drivers/W-Link/Driver/GPIO/GPIO_TM4C1294.o
                0x000013f0                GPIO_Register_Interrupt_Handler
 .text.GPIO_Unregister_Interrupt_Handler
                0x0000140c       0x1c .pio/build/lptm4c1294ncpdt/src/Drivers/W-Link/Driver/GPIO/GPIO_TM4C1294.o
                0x0000140c                GPIO_Unregister_Interrupt_Handler
 .text.GPIO_Interrupt_Enable
                0x00001428       0x44 .pio/build/lptm4c1294ncpdt/src/Drivers/W-Link/Driver/GPIO/GPIO_TM4C1294.o
                0x00001428                GPIO_Interrupt_Enable
 .text.GPIO_Interrupt_Disable
                0x0000146c       0x44 .pio/build/lptm4c1294ncpdt/src/Drivers/W-Link/Driver/GPIO/GPIO_TM4C1294.o
                0x0000146c                GPIO_Interrupt_Disable
 .text.GPIO_Interrupt_Pin_Read
                0x000014b0       0x4c .pio/build/lptm4c1294ncpdt/src/Drivers/W-Link/Driver/GPIO/GPIO_TM4C1294.o
                0x000014b0                GPIO_Interrupt_Pin_Read
 .text          0x000014fc        0x0 .pio/build/lptm4c1294ncpdt/src/Drivers/W-Link/Driver/GPIO/Pin/GPIO_Pin_TM4C1294.o
 .text.GPIO_Map_Soc_Port_Base
                0x000014fc       0x14 .pio/build/lptm4c1294ncpdt/src/Drivers/W-Link/Driver/GPIO/Pin/GPIO_Pin_TM4C1294.o
                0x000014fc                GPIO_Map_Soc_Port_Base
 .text.GPIO_Map_Soc_Port_HighSpeed_Base
                0x00001510       0x14 .pio/build/lptm4c1294ncpdt/src/Drivers/W-Link/Driver/GPIO/Pin/GPIO_Pin_TM4C1294.o
                0x00001510                GPIO_Map_Soc_Port_HighSpeed_Base
 .text.GPIO_Map_Soc_Int_Port_Base
                0x00001524       0x14 .pio/build/lptm4c1294ncpdt/src/Drivers/W-Link/Driver/GPIO/Pin/GPIO_Pin_TM4C1294.o
                0x00001524                GPIO_Map_Soc_Int_Port_Base
 .text.GPIO_Map_Soc_Int_Port_HighSpeed_Base
                0x00001538       0x14 .pio/build/lptm4c1294ncpdt/src/Drivers/W-Link/Driver/GPIO/Pin/GPIO_Pin_TM4C1294.o
                0x00001538                GPIO_Map_Soc_Int_Port_HighSpeed_Base
 .text.GPIO_Map_Soc_Pin_Mask
                0x0000154c       0x14 .pio/build/lptm4c1294ncpdt/src/Drivers/W-Link/Driver/GPIO/Pin/GPIO_Pin_TM4C1294.o
                0x0000154c                GPIO_Map_Soc_Pin_Mask
 .text.GPIO_Map_Soc_Int_Pin_Mask
                0x00001560       0x14 .pio/build/lptm4c1294ncpdt/src/Drivers/W-Link/Driver/GPIO/Pin/GPIO_Pin_TM4C1294.o
                0x00001560                GPIO_Map_Soc_Int_Pin_Mask
 .text.GPIO_Map_Pin_Int_Mask
                0x00001574       0x2a .pio/build/lptm4c1294ncpdt/src/Drivers/W-Link/Driver/GPIO/Pin/GPIO_Pin_TM4C1294.o
                0x00001574                GPIO_Map_Pin_Int_Mask
 *fill*         0x0000159e        0x2 
 .text.GPIO_Map_Int_Pin_By_Mask
                0x000015a0      0x420 .pio/build/lptm4c1294ncpdt/src/Drivers/W-Link/Driver/GPIO/Pin/GPIO_Pin_TM4C1294.o
                0x000015a0                GPIO_Map_Int_Pin_By_Mask
 .text.GPIO_Enable_Port_Clock
                0x000019c0      0x160 .pio/build/lptm4c1294ncpdt/src/Drivers/W-Link/Driver/GPIO/Pin/GPIO_Pin_TM4C1294.o
                0x000019c0                GPIO_Enable_Port_Clock
 .text          0x00001b20        0x0 .pio/build/lptm4c1294ncpdt/src/Drivers/W-Link/Driver/PWM/PWM_TM4C1294.o
 .text.PWM_Channel_Init
                0x00001b20      0x19c .pio/build/lptm4c1294ncpdt/src/Drivers/W-Link/Driver/PWM/PWM_TM4C1294.o
                0x00001b20                PWM_Channel_Init
 .text.PWM_Channel_DeInit
                0x00001cbc       0xcc .pio/build/lptm4c1294ncpdt/src/Drivers/W-Link/Driver/PWM/PWM_TM4C1294.o
                0x00001cbc                PWM_Channel_DeInit
 .text.PWM_Turn_On
                0x00001d88      0x114 .pio/build/lptm4c1294ncpdt/src/Drivers/W-Link/Driver/PWM/PWM_TM4C1294.o
                0x00001d88                PWM_Turn_On
 .text.PWM_Turn_On_And_Set_Duty
                0x00001e9c      0x120 .pio/build/lptm4c1294ncpdt/src/Drivers/W-Link/Driver/PWM/PWM_TM4C1294.o
                0x00001e9c                PWM_Turn_On_And_Set_Duty
 .text.PWM_Turn_Off
                0x00001fbc       0x8c .pio/build/lptm4c1294ncpdt/src/Drivers/W-Link/Driver/PWM/PWM_TM4C1294.o
                0x00001fbc                PWM_Turn_Off
 .text.PWM_Set_Duty
                0x00002048      0x10c .pio/build/lptm4c1294ncpdt/src/Drivers/W-Link/Driver/PWM/PWM_TM4C1294.o
                0x00002048                PWM_Set_Duty
 .text.PWM_Step_Duty
                0x00002154      0x134 .pio/build/lptm4c1294ncpdt/src/Drivers/W-Link/Driver/PWM/PWM_TM4C1294.o
                0x00002154                PWM_Step_Duty
 .text.PWM_Get_Channel_OnOff_Status
                0x00002288       0x2c .pio/build/lptm4c1294ncpdt/src/Drivers/W-Link/Driver/PWM/PWM_TM4C1294.o
                0x00002288                PWM_Get_Channel_OnOff_Status
 .text.PWM_Get_Channel_Current_Duty
                0x000022b4       0x30 .pio/build/lptm4c1294ncpdt/src/Drivers/W-Link/Driver/PWM/PWM_TM4C1294.o
                0x000022b4                PWM_Get_Channel_Current_Duty
 .text.PWM_Get_Channel_Current_OnOff_Duty
                0x000022e4       0x40 .pio/build/lptm4c1294ncpdt/src/Drivers/W-Link/Driver/PWM/PWM_TM4C1294.o
                0x000022e4                PWM_Get_Channel_Current_OnOff_Duty
 .text.PWM_is_Init
                0x00002324       0x14 .pio/build/lptm4c1294ncpdt/src/Drivers/W-Link/Driver/PWM/PWM_TM4C1294.o
                0x00002324                PWM_is_Init
 .text          0x00002338        0x0 .pio/build/lptm4c1294ncpdt/src/Drivers/W-Link/Driver/SysCtrl/SysCtrl_TM4C1294.o
 .text.SysCtrl_Init
                0x00002338       0x18 .pio/build/lptm4c1294ncpdt/src/Drivers/W-Link/Driver/SysCtrl/SysCtrl_TM4C1294.o
                0x00002338                SysCtrl_Init
 .text          0x00002350        0x0 .pio/build/lptm4c1294ncpdt/src/Drivers/W-Link/Driver/UART/UART_TM4C1294.o
 .text.UART_Open_Specific_Format
                0x00002350      0x180 .pio/build/lptm4c1294ncpdt/src/Drivers/W-Link/Driver/UART/UART_TM4C1294.o
                0x00002350                UART_Open_Specific_Format
 .text.UART_Open
                0x000024d0       0x22 .pio/build/lptm4c1294ncpdt/src/Drivers/W-Link/Driver/UART/UART_TM4C1294.o
                0x000024d0                UART_Open
 *fill*         0x000024f2        0x2 
 .text.UART_Close
                0x000024f4       0x98 .pio/build/lptm4c1294ncpdt/src/Drivers/W-Link/Driver/UART/UART_TM4C1294.o
                0x000024f4                UART_Close
 .text.UART_Read
                0x0000258c       0x30 .pio/build/lptm4c1294ncpdt/src/Drivers/W-Link/Driver/UART/UART_TM4C1294.o
                0x0000258c                UART_Read
 .text.UART_GetChar
                0x000025bc       0x1a .pio/build/lptm4c1294ncpdt/src/Drivers/W-Link/Driver/UART/UART_TM4C1294.o
                0x000025bc                UART_GetChar
 *fill*         0x000025d6        0x2 
 .text.UART_Write
                0x000025d8       0x58 .pio/build/lptm4c1294ncpdt/src/Drivers/W-Link/Driver/UART/UART_TM4C1294.o
                0x000025d8                UART_Write
 .text.UART_PutChar
                0x00002630       0x22 .pio/build/lptm4c1294ncpdt/src/Drivers/W-Link/Driver/UART/UART_TM4C1294.o
                0x00002630                UART_PutChar
 *fill*         0x00002652        0x2 
 .text.UART_Printf
                0x00002654       0x58 .pio/build/lptm4c1294ncpdt/src/Drivers/W-Link/Driver/UART/UART_TM4C1294.o
                0x00002654                UART_Printf
 .text          0x000026ac        0x0 .pio/build/lptm4c1294ncpdt/src/Drivers/W-Link/Misc/Base64.o
 .text.base64_decode
                0x000026ac       0x84 .pio/build/lptm4c1294ncpdt/src/Drivers/W-Link/Misc/Base64.o
                0x000026ac                base64_decode
 .text.base64_encode
                0x00002730       0x8c .pio/build/lptm4c1294ncpdt/src/Drivers/W-Link/Misc/Base64.o
                0x00002730                base64_encode
 .text          0x000027bc        0x0 .pio/build/lptm4c1294ncpdt/src/Drivers/W-Link/Misc/atoh.o
 .text.atoh     0x000027bc       0x2c .pio/build/lptm4c1294ncpdt/src/Drivers/W-Link/Misc/atoh.o
                0x000027bc                atoh
 .text.atoh_str
                0x000027e8       0x34 .pio/build/lptm4c1294ncpdt/src/Drivers/W-Link/Misc/atoh.o
                0x000027e8                atoh_str
 .text          0x0000281c        0x0 .pio/build/lptm4c1294ncpdt/src/Drivers/W-Link/Misc/ftoa.o
 .text.ftoa     0x0000281c       0x84 .pio/build/lptm4c1294ncpdt/src/Drivers/W-Link/Misc/ftoa.o
                0x0000281c                ftoa
 .text          0x000028a0        0x0 .pio/build/lptm4c1294ncpdt/src/Drivers/W-Link/Misc/htoa.o
 .text.htoa     0x000028a0       0x14 .pio/build/lptm4c1294ncpdt/src/Drivers/W-Link/Misc/htoa.o
                0x000028a0                htoa
 .text.htoa_str
                0x000028b4       0x30 .pio/build/lptm4c1294ncpdt/src/Drivers/W-Link/Misc/htoa.o
                0x000028b4                htoa_str
 .text          0x000028e4        0x0 .pio/build/lptm4c1294ncpdt/src/Drivers/W-Link/Misc/itoa.o
 .text.itoa     0x000028e4       0x10 .pio/build/lptm4c1294ncpdt/src/Drivers/W-Link/Misc/itoa.o
                0x000028e4                itoa
 .text          0x000028f4        0x0 .pio/build/lptm4c1294ncpdt/src/Drivers/W-Link/Misc/sha1.o
 .text.sha1_init
                0x000028f4       0x34 .pio/build/lptm4c1294ncpdt/src/Drivers/W-Link/Misc/sha1.o
                0x000028f4                sha1_init
 .text.sha1_rol32
                0x00002928        0x8 .pio/build/lptm4c1294ncpdt/src/Drivers/W-Link/Misc/sha1.o
                0x00002928                sha1_rol32
 .text.sha1_hashBlock
                0x00002930      0x108 .pio/build/lptm4c1294ncpdt/src/Drivers/W-Link/Misc/sha1.o
                0x00002930                sha1_hashBlock
 .text.sha1_addUncounted
                0x00002a38       0x2a .pio/build/lptm4c1294ncpdt/src/Drivers/W-Link/Misc/sha1.o
                0x00002a38                sha1_addUncounted
 .text.sha1_writebyte
                0x00002a62        0xa .pio/build/lptm4c1294ncpdt/src/Drivers/W-Link/Misc/sha1.o
                0x00002a62                sha1_writebyte
 .text.sha1_write
                0x00002a6c       0x1a .pio/build/lptm4c1294ncpdt/src/Drivers/W-Link/Misc/sha1.o
                0x00002a6c                sha1_write
 .text.sha1_pad
                0x00002a86       0x6c .pio/build/lptm4c1294ncpdt/src/Drivers/W-Link/Misc/sha1.o
                0x00002a86                sha1_pad
 .text.sha1_result
                0x00002af2       0x1e .pio/build/lptm4c1294ncpdt/src/Drivers/W-Link/Misc/sha1.o
                0x00002af2                sha1_result
 .text.sha1_initHmac
                0x00002b10       0x74 .pio/build/lptm4c1294ncpdt/src/Drivers/W-Link/Misc/sha1.o
                0x00002b10                sha1_initHmac
 .text.sha1_resultHmac
                0x00002b84       0x5c .pio/build/lptm4c1294ncpdt/src/Drivers/W-Link/Misc/sha1.o
                0x00002b84                sha1_resultHmac
 .text          0x00002be0        0x0 .pio/build/lptm4c1294ncpdt/src/Drivers/W-Link/cJSON/cJSON.o
 .text.cJSON_strcasecmp
                0x00002be0       0x74 .pio/build/lptm4c1294ncpdt/src/Drivers/W-Link/cJSON/cJSON.o
 .text.parse_hex4
                0x00002c54       0xb2 .pio/build/lptm4c1294ncpdt/src/Drivers/W-Link/cJSON/cJSON.o
 *fill*         0x00002d06        0x2 
 .text.parse_string
                0x00002d08      0x190 .pio/build/lptm4c1294ncpdt/src/Drivers/W-Link/cJSON/cJSON.o
 .text.skip     0x00002e98       0x14 .pio/build/lptm4c1294ncpdt/src/Drivers/W-Link/cJSON/cJSON.o
 .text.cJSON_New_Item
                0x00002eac       0x20 .pio/build/lptm4c1294ncpdt/src/Drivers/W-Link/cJSON/cJSON.o
 .text.cJSON_strdup
                0x00002ecc       0x28 .pio/build/lptm4c1294ncpdt/src/Drivers/W-Link/cJSON/cJSON.o
 .text.create_reference
                0x00002ef4       0x30 .pio/build/lptm4c1294ncpdt/src/Drivers/W-Link/cJSON/cJSON.o
 .text.print_string_ptr
                0x00002f24       0xc8 .pio/build/lptm4c1294ncpdt/src/Drivers/W-Link/cJSON/cJSON.o
 *fill*         0x00002fec        0x4 
 .text.print_value
                0x00002ff0      0x4f0 .pio/build/lptm4c1294ncpdt/src/Drivers/W-Link/cJSON/cJSON.o
 .text.cJSON_GetErrorPtr
                0x000034e0        0xc .pio/build/lptm4c1294ncpdt/src/Drivers/W-Link/cJSON/cJSON.o
                0x000034e0                cJSON_GetErrorPtr
 .text.cJSON_InitHooks
                0x000034ec       0x3c .pio/build/lptm4c1294ncpdt/src/Drivers/W-Link/cJSON/cJSON.o
                0x000034ec                cJSON_InitHooks
 .text.cJSON_Delete
                0x00003528       0x40 .pio/build/lptm4c1294ncpdt/src/Drivers/W-Link/cJSON/cJSON.o
                0x00003528                cJSON_Delete
 .text.parse_number
                0x00003568      0x198 .pio/build/lptm4c1294ncpdt/src/Drivers/W-Link/cJSON/cJSON.o
                0x00003568                parse_number
 .text.parse_value
                0x00003700      0x1c0 .pio/build/lptm4c1294ncpdt/src/Drivers/W-Link/cJSON/cJSON.o
 .text.cJSON_ParseWithOpts
                0x000038c0       0x68 .pio/build/lptm4c1294ncpdt/src/Drivers/W-Link/cJSON/cJSON.o
                0x000038c0                cJSON_ParseWithOpts
 .text.cJSON_Parse
                0x00003928        0x8 .pio/build/lptm4c1294ncpdt/src/Drivers/W-Link/cJSON/cJSON.o
                0x00003928                cJSON_Parse
 .text.cJSON_Print
                0x00003930        0x8 .pio/build/lptm4c1294ncpdt/src/Drivers/W-Link/cJSON/cJSON.o
                0x00003930                cJSON_Print
 .text.cJSON_PrintUnformatted
                0x00003938        0x8 .pio/build/lptm4c1294ncpdt/src/Drivers/W-Link/cJSON/cJSON.o
                0x00003938                cJSON_PrintUnformatted
 .text.Print_JSON_To_Buffer
                0x00003940      0x1ec .pio/build/lptm4c1294ncpdt/src/Drivers/W-Link/cJSON/cJSON.o
                0x00003940                Print_JSON_To_Buffer
 .text.cJSON_Print_To_Buffer
                0x00003b2c       0x16 .pio/build/lptm4c1294ncpdt/src/Drivers/W-Link/cJSON/cJSON.o
                0x00003b2c                cJSON_Print_To_Buffer
 .text.cJSON_GetArraySize
                0x00003b42        0xe .pio/build/lptm4c1294ncpdt/src/Drivers/W-Link/cJSON/cJSON.o
                0x00003b42                cJSON_GetArraySize
 .text.cJSON_GetArrayItem
                0x00003b50       0x10 .pio/build/lptm4c1294ncpdt/src/Drivers/W-Link/cJSON/cJSON.o
                0x00003b50                cJSON_GetArrayItem
 .text.cJSON_GetObjectItem
                0x00003b60       0x1a .pio/build/lptm4c1294ncpdt/src/Drivers/W-Link/cJSON/cJSON.o
                0x00003b60                cJSON_GetObjectItem
 .text.cJSON_AddItemToArray
                0x00003b7a       0x18 .pio/build/lptm4c1294ncpdt/src/Drivers/W-Link/cJSON/cJSON.o
                0x00003b7a                cJSON_AddItemToArray
 *fill*         0x00003b92        0x2 
 .text.cJSON_AddItemToObject
                0x00003b94       0x30 .pio/build/lptm4c1294ncpdt/src/Drivers/W-Link/cJSON/cJSON.o
                0x00003b94                cJSON_AddItemToObject
 .text.cJSON_AddItemReferenceToArray
                0x00003bc4       0x16 .pio/build/lptm4c1294ncpdt/src/Drivers/W-Link/cJSON/cJSON.o
                0x00003bc4                cJSON_AddItemReferenceToArray
 .text.cJSON_AddItemReferenceToObject
                0x00003bda       0x1a .pio/build/lptm4c1294ncpdt/src/Drivers/W-Link/cJSON/cJSON.o
                0x00003bda                cJSON_AddItemReferenceToObject
 .text.cJSON_DetachItemFromArray
                0x00003bf4       0x30 .pio/build/lptm4c1294ncpdt/src/Drivers/W-Link/cJSON/cJSON.o
                0x00003bf4                cJSON_DetachItemFromArray
 .text.cJSON_DeleteItemFromArray
                0x00003c24        0xe .pio/build/lptm4c1294ncpdt/src/Drivers/W-Link/cJSON/cJSON.o
                0x00003c24                cJSON_DeleteItemFromArray
 .text.cJSON_DetachItemFromObject
                0x00003c32       0x2c .pio/build/lptm4c1294ncpdt/src/Drivers/W-Link/cJSON/cJSON.o
                0x00003c32                cJSON_DetachItemFromObject
 .text.cJSON_DeleteItemFromObject
                0x00003c5e        0xe .pio/build/lptm4c1294ncpdt/src/Drivers/W-Link/cJSON/cJSON.o
                0x00003c5e                cJSON_DeleteItemFromObject
 .text.cJSON_ReplaceItemInArray
                0x00003c6c       0x3a .pio/build/lptm4c1294ncpdt/src/Drivers/W-Link/cJSON/cJSON.o
                0x00003c6c                cJSON_ReplaceItemInArray
 *fill*         0x00003ca6        0x2 
 .text.cJSON_ReplaceItemInObject
                0x00003ca8       0x48 .pio/build/lptm4c1294ncpdt/src/Drivers/W-Link/cJSON/cJSON.o
                0x00003ca8                cJSON_ReplaceItemInObject
 .text.cJSON_CreateNull
                0x00003cf0        0xe .pio/build/lptm4c1294ncpdt/src/Drivers/W-Link/cJSON/cJSON.o
                0x00003cf0                cJSON_CreateNull
 .text.cJSON_CreateTrue
                0x00003cfe        0xe .pio/build/lptm4c1294ncpdt/src/Drivers/W-Link/cJSON/cJSON.o
                0x00003cfe                cJSON_CreateTrue
 .text.cJSON_CreateFalse
                0x00003d0c        0xe .pio/build/lptm4c1294ncpdt/src/Drivers/W-Link/cJSON/cJSON.o
                0x00003d0c                cJSON_CreateFalse
 .text.cJSON_CreateBool
                0x00003d1a       0x14 .pio/build/lptm4c1294ncpdt/src/Drivers/W-Link/cJSON/cJSON.o
                0x00003d1a                cJSON_CreateBool
 .text.cJSON_CreateNumber
                0x00003d2e       0x24 .pio/build/lptm4c1294ncpdt/src/Drivers/W-Link/cJSON/cJSON.o
                0x00003d2e                cJSON_CreateNumber
 .text.cJSON_CreateString
                0x00003d52       0x1c .pio/build/lptm4c1294ncpdt/src/Drivers/W-Link/cJSON/cJSON.o
                0x00003d52                cJSON_CreateString
 .text.cJSON_CreateArray
                0x00003d6e        0xe .pio/build/lptm4c1294ncpdt/src/Drivers/W-Link/cJSON/cJSON.o
                0x00003d6e                cJSON_CreateArray
 .text.cJSON_CreateObject
                0x00003d7c        0xe .pio/build/lptm4c1294ncpdt/src/Drivers/W-Link/cJSON/cJSON.o
                0x00003d7c                cJSON_CreateObject
 .text.cJSON_CreateIntArray
                0x00003d8a       0x3a .pio/build/lptm4c1294ncpdt/src/Drivers/W-Link/cJSON/cJSON.o
                0x00003d8a                cJSON_CreateIntArray
 .text.cJSON_CreateFloatArray
                0x00003dc4       0x3a .pio/build/lptm4c1294ncpdt/src/Drivers/W-Link/cJSON/cJSON.o
                0x00003dc4                cJSON_CreateFloatArray
 .text.cJSON_CreateDoubleArray
                0x00003dfe       0x36 .pio/build/lptm4c1294ncpdt/src/Drivers/W-Link/cJSON/cJSON.o
                0x00003dfe                cJSON_CreateDoubleArray
 .text.cJSON_CreateStringArray
                0x00003e34       0x36 .pio/build/lptm4c1294ncpdt/src/Drivers/W-Link/cJSON/cJSON.o
                0x00003e34                cJSON_CreateStringArray
 .text.cJSON_Duplicate
                0x00003e6a       0x74 .pio/build/lptm4c1294ncpdt/src/Drivers/W-Link/cJSON/cJSON.o
                0x00003e6a                cJSON_Duplicate
 .text.cJSON_Minify
                0x00003ede       0x92 .pio/build/lptm4c1294ncpdt/src/Drivers/W-Link/cJSON/cJSON.o
                0x00003ede                cJSON_Minify
 .text          0x00003f70        0x0 .pio/build/lptm4c1294ncpdt/src/Drivers/ethernetif/ethernetif_tm4c1294.o
 .text.low_level_output
                0x00003f70      0x11c .pio/build/lptm4c1294ncpdt/src/Drivers/ethernetif/ethernetif_tm4c1294.o
 .text.tivaif_initDMADescriptors
                0x0000408c       0xd4 .pio/build/lptm4c1294ncpdt/src/Drivers/ethernetif/ethernetif_tm4c1294.o
                0x0000408c                tivaif_initDMADescriptors
 .text.tivaif_process_phy_interrupt
                0x00004160       0x8c .pio/build/lptm4c1294ncpdt/src/Drivers/ethernetif/ethernetif_tm4c1294.o
                0x00004160                tivaif_process_phy_interrupt
 .text.ethernetif_input
                0x000041ec      0x1d8 .pio/build/lptm4c1294ncpdt/src/Drivers/ethernetif/ethernetif_tm4c1294.o
                0x000041ec                ethernetif_input
 .text.ethernetif_init
                0x000043c4      0x1dc .pio/build/lptm4c1294ncpdt/src/Drivers/ethernetif/ethernetif_tm4c1294.o
                0x000043c4                ethernetif_init
 .text.ethernetif_set_link
                0x000045a0       0x4c .pio/build/lptm4c1294ncpdt/src/Drivers/ethernetif/ethernetif_tm4c1294.o
                0x000045a0                ethernetif_set_link
 .text.ethernetif_notify_conn_changed
                0x000045ec        0x2 .pio/build/lptm4c1294ncpdt/src/Drivers/ethernetif/ethernetif_tm4c1294.o
 *fill*         0x000045ee        0x2 
 .text.ethernetif_update_config
                0x000045f0       0xa8 .pio/build/lptm4c1294ncpdt/src/Drivers/ethernetif/ethernetif_tm4c1294.o
                0x000045f0                ethernetif_update_config
 .text.ethernetif_is_init
                0x00004698       0x10 .pio/build/lptm4c1294ncpdt/src/Drivers/ethernetif/ethernetif_tm4c1294.o
                0x00004698                ethernetif_is_init
 .text.ethernetif_set_mac_addr
                0x000046a8       0x3c .pio/build/lptm4c1294ncpdt/src/Drivers/ethernetif/ethernetif_tm4c1294.o
                0x000046a8                ethernetif_set_mac_addr
 .text.sys_now  0x000046e4        0x4 .pio/build/lptm4c1294ncpdt/src/Drivers/ethernetif/ethernetif_tm4c1294.o
                0x000046e4                sys_now
 .text.ethernetif_get_tick
                0x000046e8        0x4 .pio/build/lptm4c1294ncpdt/src/Drivers/ethernetif/ethernetif_tm4c1294.o
                0x000046e8                ethernetif_get_tick
 .text.get_hardware_mac
                0x000046ec       0x38 .pio/build/lptm4c1294ncpdt/src/Drivers/ethernetif/ethernetif_tm4c1294.o
                0x000046ec                get_hardware_mac
 .text          0x00004724        0x0 .pio/build/lptm4c1294ncpdt/src/Drivers/soc/driverlib/adc.o
 .text._ADCIntNumberGet
                0x00004724       0x54 .pio/build/lptm4c1294ncpdt/src/Drivers/soc/driverlib/adc.o
 .text.ADCIntRegister
                0x00004778       0x1a .pio/build/lptm4c1294ncpdt/src/Drivers/soc/driverlib/adc.o
                0x00004778                ADCIntRegister
 .text.ADCIntUnregister
                0x00004792       0x16 .pio/build/lptm4c1294ncpdt/src/Drivers/soc/driverlib/adc.o
                0x00004792                ADCIntUnregister
 .text.ADCIntDisable
                0x000047a8       0x10 .pio/build/lptm4c1294ncpdt/src/Drivers/soc/driverlib/adc.o
                0x000047a8                ADCIntDisable
 .text.ADCIntEnable
                0x000047b8       0x10 .pio/build/lptm4c1294ncpdt/src/Drivers/soc/driverlib/adc.o
                0x000047b8                ADCIntEnable
 .text.ADCIntStatus
                0x000047c8       0x32 .pio/build/lptm4c1294ncpdt/src/Drivers/soc/driverlib/adc.o
                0x000047c8                ADCIntStatus
 .text.ADCIntClear
                0x000047fa        0xa .pio/build/lptm4c1294ncpdt/src/Drivers/soc/driverlib/adc.o
                0x000047fa                ADCIntClear
 .text.ADCSequenceEnable
                0x00004804        0xe .pio/build/lptm4c1294ncpdt/src/Drivers/soc/driverlib/adc.o
                0x00004804                ADCSequenceEnable
 .text.ADCSequenceDisable
                0x00004812       0x10 .pio/build/lptm4c1294ncpdt/src/Drivers/soc/driverlib/adc.o
                0x00004812                ADCSequenceDisable
 .text.ADCSequenceConfigure
                0x00004822       0x50 .pio/build/lptm4c1294ncpdt/src/Drivers/soc/driverlib/adc.o
                0x00004822                ADCSequenceConfigure
 .text.ADCSequenceStepConfigure
                0x00004872       0x78 .pio/build/lptm4c1294ncpdt/src/Drivers/soc/driverlib/adc.o
                0x00004872                ADCSequenceStepConfigure
 .text.ADCSequenceOverflow
                0x000048ea        0xa .pio/build/lptm4c1294ncpdt/src/Drivers/soc/driverlib/adc.o
                0x000048ea                ADCSequenceOverflow
 .text.ADCSequenceOverflowClear
                0x000048f4        0xa .pio/build/lptm4c1294ncpdt/src/Drivers/soc/driverlib/adc.o
                0x000048f4                ADCSequenceOverflowClear
 .text.ADCSequenceUnderflow
                0x000048fe        0xa .pio/build/lptm4c1294ncpdt/src/Drivers/soc/driverlib/adc.o
                0x000048fe                ADCSequenceUnderflow
 .text.ADCSequenceUnderflowClear
                0x00004908        0xa .pio/build/lptm4c1294ncpdt/src/Drivers/soc/driverlib/adc.o
                0x00004908                ADCSequenceUnderflowClear
 .text.ADCSequenceDataGet
                0x00004912       0x1e .pio/build/lptm4c1294ncpdt/src/Drivers/soc/driverlib/adc.o
                0x00004912                ADCSequenceDataGet
 .text.ADCProcessorTrigger
                0x00004930       0x1a .pio/build/lptm4c1294ncpdt/src/Drivers/soc/driverlib/adc.o
                0x00004930                ADCProcessorTrigger
 *fill*         0x0000494a        0x2 
 .text.ADCSoftwareOversampleConfigure
                0x0000494c       0x28 .pio/build/lptm4c1294ncpdt/src/Drivers/soc/driverlib/adc.o
                0x0000494c                ADCSoftwareOversampleConfigure
 .text.ADCSoftwareOversampleStepConfigure
                0x00004974       0x80 .pio/build/lptm4c1294ncpdt/src/Drivers/soc/driverlib/adc.o
                0x00004974                ADCSoftwareOversampleStepConfigure
 .text.ADCSoftwareOversampleDataGet
                0x000049f4       0x44 .pio/build/lptm4c1294ncpdt/src/Drivers/soc/driverlib/adc.o
                0x000049f4                ADCSoftwareOversampleDataGet
 .text.ADCHardwareOversampleConfigure
                0x00004a38       0x10 .pio/build/lptm4c1294ncpdt/src/Drivers/soc/driverlib/adc.o
                0x00004a38                ADCHardwareOversampleConfigure
 .text.ADCComparatorConfigure
                0x00004a48        0xa .pio/build/lptm4c1294ncpdt/src/Drivers/soc/driverlib/adc.o
                0x00004a48                ADCComparatorConfigure
 .text.ADCComparatorRegionSet
                0x00004a52        0xe .pio/build/lptm4c1294ncpdt/src/Drivers/soc/driverlib/adc.o
                0x00004a52                ADCComparatorRegionSet
 .text.ADCComparatorReset
                0x00004a60       0x1e .pio/build/lptm4c1294ncpdt/src/Drivers/soc/driverlib/adc.o
                0x00004a60                ADCComparatorReset
 .text.ADCComparatorIntDisable
                0x00004a7e       0x12 .pio/build/lptm4c1294ncpdt/src/Drivers/soc/driverlib/adc.o
                0x00004a7e                ADCComparatorIntDisable
 .text.ADCComparatorIntEnable
                0x00004a90       0x10 .pio/build/lptm4c1294ncpdt/src/Drivers/soc/driverlib/adc.o
                0x00004a90                ADCComparatorIntEnable
 .text.ADCComparatorIntStatus
                0x00004aa0        0x4 .pio/build/lptm4c1294ncpdt/src/Drivers/soc/driverlib/adc.o
                0x00004aa0                ADCComparatorIntStatus
 .text.ADCComparatorIntClear
                0x00004aa4        0x4 .pio/build/lptm4c1294ncpdt/src/Drivers/soc/driverlib/adc.o
                0x00004aa4                ADCComparatorIntClear
 .text.ADCIntDisableEx
                0x00004aa8        0xa .pio/build/lptm4c1294ncpdt/src/Drivers/soc/driverlib/adc.o
                0x00004aa8                ADCIntDisableEx
 .text.ADCIntEnableEx
                0x00004ab2        0x8 .pio/build/lptm4c1294ncpdt/src/Drivers/soc/driverlib/adc.o
                0x00004ab2                ADCIntEnableEx
 .text.ADCIntStatusEx
                0x00004aba       0x12 .pio/build/lptm4c1294ncpdt/src/Drivers/soc/driverlib/adc.o
                0x00004aba                ADCIntStatusEx
 .text.ADCIntClearEx
                0x00004acc        0x4 .pio/build/lptm4c1294ncpdt/src/Drivers/soc/driverlib/adc.o
                0x00004acc                ADCIntClearEx
 .text.ADCReferenceSet
                0x00004ad0        0xc .pio/build/lptm4c1294ncpdt/src/Drivers/soc/driverlib/adc.o
                0x00004ad0                ADCReferenceSet
 .text.ADCReferenceGet
                0x00004adc        0x8 .pio/build/lptm4c1294ncpdt/src/Drivers/soc/driverlib/adc.o
                0x00004adc                ADCReferenceGet
 .text.ADCPhaseDelaySet
                0x00004ae4        0x4 .pio/build/lptm4c1294ncpdt/src/Drivers/soc/driverlib/adc.o
                0x00004ae4                ADCPhaseDelaySet
 .text.ADCPhaseDelayGet
                0x00004ae8        0x4 .pio/build/lptm4c1294ncpdt/src/Drivers/soc/driverlib/adc.o
                0x00004ae8                ADCPhaseDelayGet
 .text.ADCSequenceDMAEnable
                0x00004aec       0x10 .pio/build/lptm4c1294ncpdt/src/Drivers/soc/driverlib/adc.o
                0x00004aec                ADCSequenceDMAEnable
 .text.ADCSequenceDMADisable
                0x00004afc       0x12 .pio/build/lptm4c1294ncpdt/src/Drivers/soc/driverlib/adc.o
                0x00004afc                ADCSequenceDMADisable
 .text.ADCBusy  0x00004b0e        0x8 .pio/build/lptm4c1294ncpdt/src/Drivers/soc/driverlib/adc.o
                0x00004b0e                ADCBusy
 .text.ADCClockConfigSet
                0x00004b16       0x18 .pio/build/lptm4c1294ncpdt/src/Drivers/soc/driverlib/adc.o
                0x00004b16                ADCClockConfigSet
 *fill*         0x00004b2e        0x2 
 .text.ADCClockConfigGet
                0x00004b30       0x28 .pio/build/lptm4c1294ncpdt/src/Drivers/soc/driverlib/adc.o
                0x00004b30                ADCClockConfigGet
 .text          0x00004b58        0x0 .pio/build/lptm4c1294ncpdt/src/Drivers/soc/driverlib/aes.o
 .text.AESReset
                0x00004b58       0x16 .pio/build/lptm4c1294ncpdt/src/Drivers/soc/driverlib/aes.o
                0x00004b58                AESReset
 .text.AESConfigSet
                0x00004b6e        0xe .pio/build/lptm4c1294ncpdt/src/Drivers/soc/driverlib/aes.o
                0x00004b6e                AESConfigSet
 .text.AESKey1Set
                0x00004b7c       0x2a .pio/build/lptm4c1294ncpdt/src/Drivers/soc/driverlib/aes.o
                0x00004b7c                AESKey1Set
 .text.AESKey2Set
                0x00004ba6       0x2a .pio/build/lptm4c1294ncpdt/src/Drivers/soc/driverlib/aes.o
                0x00004ba6                AESKey2Set
 .text.AESKey3Set
                0x00004bd0       0x12 .pio/build/lptm4c1294ncpdt/src/Drivers/soc/driverlib/aes.o
                0x00004bd0                AESKey3Set
 .text.AESIVSet
                0x00004be2       0x12 .pio/build/lptm4c1294ncpdt/src/Drivers/soc/driverlib/aes.o
                0x00004be2                AESIVSet
 .text.AESIVRead
                0x00004bf4       0x18 .pio/build/lptm4c1294ncpdt/src/Drivers/soc/driverlib/aes.o
                0x00004bf4                AESIVRead
 .text.AESTagRead
                0x00004c0c       0x18 .pio/build/lptm4c1294ncpdt/src/Drivers/soc/driverlib/aes.o
                0x00004c0c                AESTagRead
 .text.AESLengthSet
                0x00004c24        0x8 .pio/build/lptm4c1294ncpdt/src/Drivers/soc/driverlib/aes.o
                0x00004c24                AESLengthSet
 .text.AESAuthLengthSet
                0x00004c2c        0x4 .pio/build/lptm4c1294ncpdt/src/Drivers/soc/driverlib/aes.o
                0x00004c2c                AESAuthLengthSet
 .text.AESDataReadNonBlocking
                0x00004c30       0x20 .pio/build/lptm4c1294ncpdt/src/Drivers/soc/driverlib/aes.o
                0x00004c30                AESDataReadNonBlocking
 .text.AESDataRead
                0x00004c50       0x18 .pio/build/lptm4c1294ncpdt/src/Drivers/soc/driverlib/aes.o
                0x00004c50                AESDataRead
 .text.AESDataWriteNonBlocking
                0x00004c68       0x20 .pio/build/lptm4c1294ncpdt/src/Drivers/soc/driverlib/aes.o
                0x00004c68                AESDataWriteNonBlocking
 .text.AESDataWrite
                0x00004c88       0x18 .pio/build/lptm4c1294ncpdt/src/Drivers/soc/driverlib/aes.o
                0x00004c88                AESDataWrite
 .text.AESDataProcess
                0x00004ca0       0x40 .pio/build/lptm4c1294ncpdt/src/Drivers/soc/driverlib/aes.o
                0x00004ca0                AESDataProcess
 .text.AESDataAuth
                0x00004ce0       0x38 .pio/build/lptm4c1294ncpdt/src/Drivers/soc/driverlib/aes.o
                0x00004ce0                AESDataAuth
 .text.AESDataProcessAuth
                0x00004d18       0x60 .pio/build/lptm4c1294ncpdt/src/Drivers/soc/driverlib/aes.o
                0x00004d18                AESDataProcessAuth
 .text.AESIntStatus
                0x00004d78       0x4e .pio/build/lptm4c1294ncpdt/src/Drivers/soc/driverlib/aes.o
                0x00004d78                AESIntStatus
 .text.AESIntEnable
                0x00004dc6       0x32 .pio/build/lptm4c1294ncpdt/src/Drivers/soc/driverlib/aes.o
                0x00004dc6                AESIntEnable
 .text.AESIntDisable
                0x00004df8       0x36 .pio/build/lptm4c1294ncpdt/src/Drivers/soc/driverlib/aes.o
                0x00004df8                AESIntDisable
 .text.AESIntClear
                0x00004e2e       0x1e .pio/build/lptm4c1294ncpdt/src/Drivers/soc/driverlib/aes.o
                0x00004e2e                AESIntClear
 .text.AESIntRegister
                0x00004e4c       0x12 .pio/build/lptm4c1294ncpdt/src/Drivers/soc/driverlib/aes.o
                0x00004e4c                AESIntRegister
 .text.AESIntUnregister
                0x00004e5e       0x12 .pio/build/lptm4c1294ncpdt/src/Drivers/soc/driverlib/aes.o
                0x00004e5e                AESIntUnregister
 .text.AESDMAEnable
                0x00004e70        0xc .pio/build/lptm4c1294ncpdt/src/Drivers/soc/driverlib/aes.o
                0x00004e70                AESDMAEnable
 .text.AESDMADisable
                0x00004e7c        0xe .pio/build/lptm4c1294ncpdt/src/Drivers/soc/driverlib/aes.o
                0x00004e7c                AESDMADisable
 .text          0x00004e8a        0x0 .pio/build/lptm4c1294ncpdt/src/Drivers/soc/driverlib/can.o
 *fill*         0x00004e8a        0x2 
 .text._CANIntNumberGet
                0x00004e8c       0x64 .pio/build/lptm4c1294ncpdt/src/Drivers/soc/driverlib/can.o
 .text.CANInit  0x00004ef0       0x40 .pio/build/lptm4c1294ncpdt/src/Drivers/soc/driverlib/can.o
                0x00004ef0                CANInit
 .text.CANEnable
                0x00004f30        0xa .pio/build/lptm4c1294ncpdt/src/Drivers/soc/driverlib/can.o
                0x00004f30                CANEnable
 .text.CANDisable
                0x00004f3a        0xa .pio/build/lptm4c1294ncpdt/src/Drivers/soc/driverlib/can.o
                0x00004f3a                CANDisable
 .text.CANBitTimingGet
                0x00004f44       0x2e .pio/build/lptm4c1294ncpdt/src/Drivers/soc/driverlib/can.o
                0x00004f44                CANBitTimingGet
 *fill*         0x00004f72        0x2 
 .text.CANBitRateSet
                0x00004f74       0x60 .pio/build/lptm4c1294ncpdt/src/Drivers/soc/driverlib/can.o
                0x00004f74                CANBitRateSet
 .text.CANBitTimingSet
                0x00004fd4       0x52 .pio/build/lptm4c1294ncpdt/src/Drivers/soc/driverlib/can.o
                0x00004fd4                CANBitTimingSet
 .text.CANIntRegister
                0x00005026       0x1a .pio/build/lptm4c1294ncpdt/src/Drivers/soc/driverlib/can.o
                0x00005026                CANIntRegister
 .text.CANIntUnregister
                0x00005040       0x16 .pio/build/lptm4c1294ncpdt/src/Drivers/soc/driverlib/can.o
                0x00005040                CANIntUnregister
 .text.CANIntEnable
                0x00005056        0x8 .pio/build/lptm4c1294ncpdt/src/Drivers/soc/driverlib/can.o
                0x00005056                CANIntEnable
 .text.CANIntDisable
                0x0000505e        0xa .pio/build/lptm4c1294ncpdt/src/Drivers/soc/driverlib/can.o
                0x0000505e                CANIntDisable
 .text.CANIntStatus
                0x00005068       0x1e .pio/build/lptm4c1294ncpdt/src/Drivers/soc/driverlib/can.o
                0x00005068                CANIntStatus
 .text.CANIntClear
                0x00005086       0x26 .pio/build/lptm4c1294ncpdt/src/Drivers/soc/driverlib/can.o
                0x00005086                CANIntClear
 .text.CANRetrySet
                0x000050ac       0x12 .pio/build/lptm4c1294ncpdt/src/Drivers/soc/driverlib/can.o
                0x000050ac                CANRetrySet
 .text.CANRetryGet
                0x000050be        0xc .pio/build/lptm4c1294ncpdt/src/Drivers/soc/driverlib/can.o
                0x000050be                CANRetryGet
 .text.CANStatusGet
                0x000050ca       0x3e .pio/build/lptm4c1294ncpdt/src/Drivers/soc/driverlib/can.o
                0x000050ca                CANStatusGet
 .text.CANErrCntrGet
                0x00005108       0x12 .pio/build/lptm4c1294ncpdt/src/Drivers/soc/driverlib/can.o
                0x00005108                CANErrCntrGet
 .text.CANMessageSet
                0x0000511a      0x16a .pio/build/lptm4c1294ncpdt/src/Drivers/soc/driverlib/can.o
                0x0000511a                CANMessageSet
 .text.CANMessageGet
                0x00005284      0x160 .pio/build/lptm4c1294ncpdt/src/Drivers/soc/driverlib/can.o
                0x00005284                CANMessageGet
 .text.CANMessageClear
                0x000053e4       0x1a .pio/build/lptm4c1294ncpdt/src/Drivers/soc/driverlib/can.o
                0x000053e4                CANMessageClear
 .text          0x000053fe        0x0 .pio/build/lptm4c1294ncpdt/src/Drivers/soc/driverlib/comp.o
 .text.ComparatorConfigure
                0x000053fe        0x8 .pio/build/lptm4c1294ncpdt/src/Drivers/soc/driverlib/comp.o
                0x000053fe                ComparatorConfigure
 .text.ComparatorRefSet
                0x00005406        0x4 .pio/build/lptm4c1294ncpdt/src/Drivers/soc/driverlib/comp.o
                0x00005406                ComparatorRefSet
 .text.ComparatorValueGet
                0x0000540a        0xc .pio/build/lptm4c1294ncpdt/src/Drivers/soc/driverlib/comp.o
                0x0000540a                ComparatorValueGet
 .text.ComparatorIntRegister
                0x00005416       0x26 .pio/build/lptm4c1294ncpdt/src/Drivers/soc/driverlib/comp.o
                0x00005416                ComparatorIntRegister
 .text.ComparatorIntUnregister
                0x0000543c       0x22 .pio/build/lptm4c1294ncpdt/src/Drivers/soc/driverlib/comp.o
                0x0000543c                ComparatorIntUnregister
 .text.ComparatorIntEnable
                0x0000545e        0xe .pio/build/lptm4c1294ncpdt/src/Drivers/soc/driverlib/comp.o
                0x0000545e                ComparatorIntEnable
 .text.ComparatorIntDisable
                0x0000546c       0x10 .pio/build/lptm4c1294ncpdt/src/Drivers/soc/driverlib/comp.o
                0x0000546c                ComparatorIntDisable
 .text.ComparatorIntStatus
                0x0000547c       0x12 .pio/build/lptm4c1294ncpdt/src/Drivers/soc/driverlib/comp.o
                0x0000547c                ComparatorIntStatus
 .text.ComparatorIntClear
                0x0000548e        0xa .pio/build/lptm4c1294ncpdt/src/Drivers/soc/driverlib/comp.o
                0x0000548e                ComparatorIntClear
 .text          0x00005498        0x0 .pio/build/lptm4c1294ncpdt/src/Drivers/soc/driverlib/cpu.o
 .text.CPUcpsid
                0x00005498        0x8 .pio/build/lptm4c1294ncpdt/src/Drivers/soc/driverlib/cpu.o
                0x00005498                CPUcpsid
 .text.CPUprimask
                0x000054a0        0x6 .pio/build/lptm4c1294ncpdt/src/Drivers/soc/driverlib/cpu.o
                0x000054a0                CPUprimask
 .text.CPUcpsie
                0x000054a6        0x8 .pio/build/lptm4c1294ncpdt/src/Drivers/soc/driverlib/cpu.o
                0x000054a6                CPUcpsie
 .text.CPUwfi   0x000054ae        0x4 .pio/build/lptm4c1294ncpdt/src/Drivers/soc/driverlib/cpu.o
                0x000054ae                CPUwfi
 .text.CPUbasepriSet
                0x000054b2        0x6 .pio/build/lptm4c1294ncpdt/src/Drivers/soc/driverlib/cpu.o
                0x000054b2                CPUbasepriSet
 .text.CPUbasepriGet
                0x000054b8        0x6 .pio/build/lptm4c1294ncpdt/src/Drivers/soc/driverlib/cpu.o
                0x000054b8                CPUbasepriGet
 .text          0x000054be        0x0 .pio/build/lptm4c1294ncpdt/src/Drivers/soc/driverlib/crc.o
 .text.CRCConfigSet
                0x000054be        0x6 .pio/build/lptm4c1294ncpdt/src/Drivers/soc/driverlib/crc.o
                0x000054be                CRCConfigSet
 .text.CRCSeedSet
                0x000054c4        0x6 .pio/build/lptm4c1294ncpdt/src/Drivers/soc/driverlib/crc.o
                0x000054c4                CRCSeedSet
 .text.CRCDataWrite
                0x000054ca        0x6 .pio/build/lptm4c1294ncpdt/src/Drivers/soc/driverlib/crc.o
                0x000054ca                CRCDataWrite
 .text.CRCResultRead
                0x000054d0        0xe .pio/build/lptm4c1294ncpdt/src/Drivers/soc/driverlib/crc.o
                0x000054d0                CRCResultRead
 .text.CRCDataProcess
                0x000054de       0x34 .pio/build/lptm4c1294ncpdt/src/Drivers/soc/driverlib/crc.o
                0x000054de                CRCDataProcess
 .text          0x00005512        0x0 .pio/build/lptm4c1294ncpdt/src/Drivers/soc/driverlib/des.o
 .text.DESReset
                0x00005512       0x10 .pio/build/lptm4c1294ncpdt/src/Drivers/soc/driverlib/des.o
                0x00005512                DESReset
 .text.DESConfigSet
                0x00005522        0xc .pio/build/lptm4c1294ncpdt/src/Drivers/soc/driverlib/des.o
                0x00005522                DESConfigSet
 .text.DESKeySet
                0x0000552e       0x20 .pio/build/lptm4c1294ncpdt/src/Drivers/soc/driverlib/des.o
                0x0000552e                DESKeySet
 .text.DESIVSet
                0x0000554e       0x16 .pio/build/lptm4c1294ncpdt/src/Drivers/soc/driverlib/des.o
                0x0000554e                DESIVSet
 .text.DESLengthSet
                0x00005564        0x4 .pio/build/lptm4c1294ncpdt/src/Drivers/soc/driverlib/des.o
                0x00005564                DESLengthSet
 .text.DESDataReadNonBlocking
                0x00005568       0x20 .pio/build/lptm4c1294ncpdt/src/Drivers/soc/driverlib/des.o
                0x00005568                DESDataReadNonBlocking
 .text.DESDataRead
                0x00005588       0x1c .pio/build/lptm4c1294ncpdt/src/Drivers/soc/driverlib/des.o
                0x00005588                DESDataRead
 .text.DESDataWriteNonBlocking
                0x000055a4       0x20 .pio/build/lptm4c1294ncpdt/src/Drivers/soc/driverlib/des.o
                0x000055a4                DESDataWriteNonBlocking
 .text.DESDataWrite
                0x000055c4       0x1c .pio/build/lptm4c1294ncpdt/src/Drivers/soc/driverlib/des.o
                0x000055c4                DESDataWrite
 .text.DESDataProcess
                0x000055e0       0x46 .pio/build/lptm4c1294ncpdt/src/Drivers/soc/driverlib/des.o
                0x000055e0                DESDataProcess
 .text.DESIntStatus
                0x00005626       0x1c .pio/build/lptm4c1294ncpdt/src/Drivers/soc/driverlib/des.o
                0x00005626                DESIntStatus
 .text.DESIntEnable
                0x00005642       0x1e .pio/build/lptm4c1294ncpdt/src/Drivers/soc/driverlib/des.o
                0x00005642                DESIntEnable
 .text.DESIntDisable
                0x00005660       0x22 .pio/build/lptm4c1294ncpdt/src/Drivers/soc/driverlib/des.o
                0x00005660                DESIntDisable
 .text.DESIntClear
                0x00005682        0xe .pio/build/lptm4c1294ncpdt/src/Drivers/soc/driverlib/des.o
                0x00005682                DESIntClear
 .text.DESIntRegister
                0x00005690       0x12 .pio/build/lptm4c1294ncpdt/src/Drivers/soc/driverlib/des.o
                0x00005690                DESIntRegister
 .text.DESIntUnregister
                0x000056a2       0x12 .pio/build/lptm4c1294ncpdt/src/Drivers/soc/driverlib/des.o
                0x000056a2                DESIntUnregister
 .text.DESDMAEnable
                0x000056b4        0x8 .pio/build/lptm4c1294ncpdt/src/Drivers/soc/driverlib/des.o
                0x000056b4                DESDMAEnable
 .text.DESDMADisable
                0x000056bc        0xa .pio/build/lptm4c1294ncpdt/src/Drivers/soc/driverlib/des.o
                0x000056bc                DESDMADisable
 .text          0x000056c6        0x0 .pio/build/lptm4c1294ncpdt/src/Drivers/soc/driverlib/eeprom.o
 *fill*         0x000056c6        0x2 
 .text._EEPROMWaitForDone
                0x000056c8       0x10 .pio/build/lptm4c1294ncpdt/src/Drivers/soc/driverlib/eeprom.o
 .text._EEPROMSectorMaskSet
                0x000056d8       0x3c .pio/build/lptm4c1294ncpdt/src/Drivers/soc/driverlib/eeprom.o
 .text._EEPROMSectorMaskClear
                0x00005714       0x34 .pio/build/lptm4c1294ncpdt/src/Drivers/soc/driverlib/eeprom.o
 .text.EEPROMInit
                0x00005748       0x3c .pio/build/lptm4c1294ncpdt/src/Drivers/soc/driverlib/eeprom.o
                0x00005748                EEPROMInit
 .text.EEPROMSizeGet
                0x00005784       0x10 .pio/build/lptm4c1294ncpdt/src/Drivers/soc/driverlib/eeprom.o
                0x00005784                EEPROMSizeGet
 .text.EEPROMBlockCountGet
                0x00005794       0x10 .pio/build/lptm4c1294ncpdt/src/Drivers/soc/driverlib/eeprom.o
                0x00005794                EEPROMBlockCountGet
 .text.EEPROMRead
                0x000057a4       0x3c .pio/build/lptm4c1294ncpdt/src/Drivers/soc/driverlib/eeprom.o
                0x000057a4                EEPROMRead
 .text.EEPROMProgram
                0x000057e0       0xc4 .pio/build/lptm4c1294ncpdt/src/Drivers/soc/driverlib/eeprom.o
                0x000057e0                EEPROMProgram
 .text.EEPROMProgramNonBlocking
                0x000058a4       0x44 .pio/build/lptm4c1294ncpdt/src/Drivers/soc/driverlib/eeprom.o
                0x000058a4                EEPROMProgramNonBlocking
 .text.EEPROMMassErase
                0x000058e8       0x58 .pio/build/lptm4c1294ncpdt/src/Drivers/soc/driverlib/eeprom.o
                0x000058e8                EEPROMMassErase
 .text.EEPROMBlockProtectGet
                0x00005940        0xc .pio/build/lptm4c1294ncpdt/src/Drivers/soc/driverlib/eeprom.o
                0x00005940                EEPROMBlockProtectGet
 .text.EEPROMBlockProtectSet
                0x0000594c       0x1c .pio/build/lptm4c1294ncpdt/src/Drivers/soc/driverlib/eeprom.o
                0x0000594c                EEPROMBlockProtectSet
 .text.EEPROMBlockPasswordSet
                0x00005968       0x34 .pio/build/lptm4c1294ncpdt/src/Drivers/soc/driverlib/eeprom.o
                0x00005968                EEPROMBlockPasswordSet
 .text.EEPROMBlockLock
                0x0000599c       0x14 .pio/build/lptm4c1294ncpdt/src/Drivers/soc/driverlib/eeprom.o
                0x0000599c                EEPROMBlockLock
 .text.EEPROMBlockUnlock
                0x000059b0       0x30 .pio/build/lptm4c1294ncpdt/src/Drivers/soc/driverlib/eeprom.o
                0x000059b0                EEPROMBlockUnlock
 .text.EEPROMBlockHide
                0x000059e0       0x10 .pio/build/lptm4c1294ncpdt/src/Drivers/soc/driverlib/eeprom.o
                0x000059e0                EEPROMBlockHide
 .text.EEPROMIntEnable
                0x000059f0       0x20 .pio/build/lptm4c1294ncpdt/src/Drivers/soc/driverlib/eeprom.o
                0x000059f0                EEPROMIntEnable
 .text.EEPROMIntDisable
                0x00005a10       0x20 .pio/build/lptm4c1294ncpdt/src/Drivers/soc/driverlib/eeprom.o
                0x00005a10                EEPROMIntDisable
 .text.EEPROMIntStatus
                0x00005a30       0x24 .pio/build/lptm4c1294ncpdt/src/Drivers/soc/driverlib/eeprom.o
                0x00005a30                EEPROMIntStatus
 .text.EEPROMIntClear
                0x00005a54       0x30 .pio/build/lptm4c1294ncpdt/src/Drivers/soc/driverlib/eeprom.o
                0x00005a54                EEPROMIntClear
 .text.EEPROMStatusGet
                0x00005a84        0xc .pio/build/lptm4c1294ncpdt/src/Drivers/soc/driverlib/eeprom.o
                0x00005a84                EEPROMStatusGet
 .text          0x00005a90        0x0 .pio/build/lptm4c1294ncpdt/src/Drivers/soc/driverlib/emac.o
 .text.EMACInit
                0x00005a90       0x9c .pio/build/lptm4c1294ncpdt/src/Drivers/soc/driverlib/emac.o
                0x00005a90                EMACInit
 .text.EMACReset
                0x00005b2c       0x18 .pio/build/lptm4c1294ncpdt/src/Drivers/soc/driverlib/emac.o
                0x00005b2c                EMACReset
 .text.EMACPHYConfigSet
                0x00005b44       0x60 .pio/build/lptm4c1294ncpdt/src/Drivers/soc/driverlib/emac.o
                0x00005b44                EMACPHYConfigSet
 .text.EMACConfigSet
                0x00005ba4       0x30 .pio/build/lptm4c1294ncpdt/src/Drivers/soc/driverlib/emac.o
                0x00005ba4                EMACConfigSet
 .text.EMACConfigGet
                0x00005bd4       0x34 .pio/build/lptm4c1294ncpdt/src/Drivers/soc/driverlib/emac.o
                0x00005bd4                EMACConfigGet
 .text.EMACAddrSet
                0x00005c08       0x3a .pio/build/lptm4c1294ncpdt/src/Drivers/soc/driverlib/emac.o
                0x00005c08                EMACAddrSet
 .text.EMACAddrGet
                0x00005c42       0x28 .pio/build/lptm4c1294ncpdt/src/Drivers/soc/driverlib/emac.o
                0x00005c42                EMACAddrGet
 .text.EMACNumAddrGet
                0x00005c6a        0x4 .pio/build/lptm4c1294ncpdt/src/Drivers/soc/driverlib/emac.o
                0x00005c6a                EMACNumAddrGet
 .text.EMACAddrFilterSet
                0x00005c6e       0x1c .pio/build/lptm4c1294ncpdt/src/Drivers/soc/driverlib/emac.o
                0x00005c6e                EMACAddrFilterSet
 .text.EMACAddrFilterGet
                0x00005c8a        0xc .pio/build/lptm4c1294ncpdt/src/Drivers/soc/driverlib/emac.o
                0x00005c8a                EMACAddrFilterGet
 .text.EMACFrameFilterSet
                0x00005c96       0x18 .pio/build/lptm4c1294ncpdt/src/Drivers/soc/driverlib/emac.o
                0x00005c96                EMACFrameFilterSet
 *fill*         0x00005cae        0x2 
 .text.EMACFrameFilterGet
                0x00005cb0        0xc .pio/build/lptm4c1294ncpdt/src/Drivers/soc/driverlib/emac.o
                0x00005cb0                EMACFrameFilterGet
 .text.EMACHashFilterSet
                0x00005cbc        0x6 .pio/build/lptm4c1294ncpdt/src/Drivers/soc/driverlib/emac.o
                0x00005cbc                EMACHashFilterSet
 .text.EMACHashFilterGet
                0x00005cc2        0xa .pio/build/lptm4c1294ncpdt/src/Drivers/soc/driverlib/emac.o
                0x00005cc2                EMACHashFilterGet
 .text.EMACHashFilterBitCalculate
                0x00005ccc       0x26 .pio/build/lptm4c1294ncpdt/src/Drivers/soc/driverlib/emac.o
                0x00005ccc                EMACHashFilterBitCalculate
 .text.EMACRxWatchdogTimerSet
                0x00005cf2        0x6 .pio/build/lptm4c1294ncpdt/src/Drivers/soc/driverlib/emac.o
                0x00005cf2                EMACRxWatchdogTimerSet
 .text.EMACStatusGet
                0x00005cf8        0x4 .pio/build/lptm4c1294ncpdt/src/Drivers/soc/driverlib/emac.o
                0x00005cf8                EMACStatusGet
 .text.EMACTxDMAPollDemand
                0x00005cfc        0x8 .pio/build/lptm4c1294ncpdt/src/Drivers/soc/driverlib/emac.o
                0x00005cfc                EMACTxDMAPollDemand
 .text.EMACRxDMAPollDemand
                0x00005d04        0x8 .pio/build/lptm4c1294ncpdt/src/Drivers/soc/driverlib/emac.o
                0x00005d04                EMACRxDMAPollDemand
 .text.EMACRxDMADescriptorListSet
                0x00005d0c        0x6 .pio/build/lptm4c1294ncpdt/src/Drivers/soc/driverlib/emac.o
                0x00005d0c                EMACRxDMADescriptorListSet
 .text.EMACRxDMADescriptorListGet
                0x00005d12        0x6 .pio/build/lptm4c1294ncpdt/src/Drivers/soc/driverlib/emac.o
                0x00005d12                EMACRxDMADescriptorListGet
 .text.EMACRxDMACurrentDescriptorGet
                0x00005d18        0x6 .pio/build/lptm4c1294ncpdt/src/Drivers/soc/driverlib/emac.o
                0x00005d18                EMACRxDMACurrentDescriptorGet
 .text.EMACRxDMACurrentBufferGet
                0x00005d1e        0x6 .pio/build/lptm4c1294ncpdt/src/Drivers/soc/driverlib/emac.o
                0x00005d1e                EMACRxDMACurrentBufferGet
 .text.EMACTxDMADescriptorListSet
                0x00005d24        0x6 .pio/build/lptm4c1294ncpdt/src/Drivers/soc/driverlib/emac.o
                0x00005d24                EMACTxDMADescriptorListSet
 .text.EMACTxDMADescriptorListGet
                0x00005d2a        0x6 .pio/build/lptm4c1294ncpdt/src/Drivers/soc/driverlib/emac.o
                0x00005d2a                EMACTxDMADescriptorListGet
 .text.EMACTxDMACurrentDescriptorGet
                0x00005d30        0x6 .pio/build/lptm4c1294ncpdt/src/Drivers/soc/driverlib/emac.o
                0x00005d30                EMACTxDMACurrentDescriptorGet
 .text.EMACTxDMACurrentBufferGet
                0x00005d36        0x6 .pio/build/lptm4c1294ncpdt/src/Drivers/soc/driverlib/emac.o
                0x00005d36                EMACTxDMACurrentBufferGet
 .text.EMACDMAStateGet
                0x00005d3c       0x16 .pio/build/lptm4c1294ncpdt/src/Drivers/soc/driverlib/emac.o
                0x00005d3c                EMACDMAStateGet
 .text.EMACTxFlush
                0x00005d52       0x1e .pio/build/lptm4c1294ncpdt/src/Drivers/soc/driverlib/emac.o
                0x00005d52                EMACTxFlush
 .text.EMACTxEnable
                0x00005d70       0x16 .pio/build/lptm4c1294ncpdt/src/Drivers/soc/driverlib/emac.o
                0x00005d70                EMACTxEnable
 .text.EMACTxDisable
                0x00005d86       0x16 .pio/build/lptm4c1294ncpdt/src/Drivers/soc/driverlib/emac.o
                0x00005d86                EMACTxDisable
 .text.EMACRxEnable
                0x00005d9c       0x16 .pio/build/lptm4c1294ncpdt/src/Drivers/soc/driverlib/emac.o
                0x00005d9c                EMACRxEnable
 .text.EMACRxDisable
                0x00005db2       0x16 .pio/build/lptm4c1294ncpdt/src/Drivers/soc/driverlib/emac.o
                0x00005db2                EMACRxDisable
 .text.EMACIntRegister
                0x00005dc8       0x12 .pio/build/lptm4c1294ncpdt/src/Drivers/soc/driverlib/emac.o
                0x00005dc8                EMACIntRegister
 .text.EMACIntUnregister
                0x00005dda       0x12 .pio/build/lptm4c1294ncpdt/src/Drivers/soc/driverlib/emac.o
                0x00005dda                EMACIntUnregister
 .text.EMACIntEnable
                0x00005dec       0x3a .pio/build/lptm4c1294ncpdt/src/Drivers/soc/driverlib/emac.o
                0x00005dec                EMACIntEnable
 .text.EMACIntDisable
                0x00005e26       0x3a .pio/build/lptm4c1294ncpdt/src/Drivers/soc/driverlib/emac.o
                0x00005e26                EMACIntDisable
 .text.EMACIntStatus
                0x00005e60       0x30 .pio/build/lptm4c1294ncpdt/src/Drivers/soc/driverlib/emac.o
                0x00005e60                EMACIntStatus
 .text.EMACIntClear
                0x00005e90       0x34 .pio/build/lptm4c1294ncpdt/src/Drivers/soc/driverlib/emac.o
                0x00005e90                EMACIntClear
 .text.EMACPHYWrite
                0x00005ec4       0x2a .pio/build/lptm4c1294ncpdt/src/Drivers/soc/driverlib/emac.o
                0x00005ec4                EMACPHYWrite
 .text.EMACPHYRead
                0x00005eee       0x2c .pio/build/lptm4c1294ncpdt/src/Drivers/soc/driverlib/emac.o
                0x00005eee                EMACPHYRead
 *fill*         0x00005f1a        0x2 
 .text.EMACPHYExtendedRead
                0x00005f1c       0x40 .pio/build/lptm4c1294ncpdt/src/Drivers/soc/driverlib/emac.o
                0x00005f1c                EMACPHYExtendedRead
 .text.EMACPHYExtendedWrite
                0x00005f5c       0x44 .pio/build/lptm4c1294ncpdt/src/Drivers/soc/driverlib/emac.o
                0x00005f5c                EMACPHYExtendedWrite
 .text.EMACPHYPowerOff
                0x00005fa0       0x24 .pio/build/lptm4c1294ncpdt/src/Drivers/soc/driverlib/emac.o
                0x00005fa0                EMACPHYPowerOff
 .text.EMACPHYPowerOn
                0x00005fc4       0x24 .pio/build/lptm4c1294ncpdt/src/Drivers/soc/driverlib/emac.o
                0x00005fc4                EMACPHYPowerOn
 .text.EMACTimestampConfigSet
                0x00005fe8       0x18 .pio/build/lptm4c1294ncpdt/src/Drivers/soc/driverlib/emac.o
                0x00005fe8                EMACTimestampConfigSet
 .text.EMACTimestampConfigGet
                0x00006000        0xe .pio/build/lptm4c1294ncpdt/src/Drivers/soc/driverlib/emac.o
                0x00006000                EMACTimestampConfigGet
 .text.EMACTimestampEnable
                0x0000600e       0x22 .pio/build/lptm4c1294ncpdt/src/Drivers/soc/driverlib/emac.o
                0x0000600e                EMACTimestampEnable
 .text.EMACTimestampDisable
                0x00006030        0xe .pio/build/lptm4c1294ncpdt/src/Drivers/soc/driverlib/emac.o
                0x00006030                EMACTimestampDisable
 .text.EMACTimestampSysTimeSet
                0x0000603e       0x1e .pio/build/lptm4c1294ncpdt/src/Drivers/soc/driverlib/emac.o
                0x0000603e                EMACTimestampSysTimeSet
 .text.EMACTimestampSysTimeGet
                0x0000605c       0x18 .pio/build/lptm4c1294ncpdt/src/Drivers/soc/driverlib/emac.o
                0x0000605c                EMACTimestampSysTimeGet
 .text.EMACTimestampSysTimeUpdate
                0x00006074       0x2a .pio/build/lptm4c1294ncpdt/src/Drivers/soc/driverlib/emac.o
                0x00006074                EMACTimestampSysTimeUpdate
 .text.EMACTimestampAddendSet
                0x0000609e       0x1a .pio/build/lptm4c1294ncpdt/src/Drivers/soc/driverlib/emac.o
                0x0000609e                EMACTimestampAddendSet
 .text.EMACTimestampTargetSet
                0x000060b8       0x14 .pio/build/lptm4c1294ncpdt/src/Drivers/soc/driverlib/emac.o
                0x000060b8                EMACTimestampTargetSet
 .text.EMACTimestampTargetIntEnable
                0x000060cc        0xe .pio/build/lptm4c1294ncpdt/src/Drivers/soc/driverlib/emac.o
                0x000060cc                EMACTimestampTargetIntEnable
 .text.EMACTimestampTargetIntDisable
                0x000060da        0xe .pio/build/lptm4c1294ncpdt/src/Drivers/soc/driverlib/emac.o
                0x000060da                EMACTimestampTargetIntDisable
 .text.EMACTimestampIntStatus
                0x000060e8        0x6 .pio/build/lptm4c1294ncpdt/src/Drivers/soc/driverlib/emac.o
                0x000060e8                EMACTimestampIntStatus
 .text.EMACTimestampPPSSimpleModeSet
                0x000060ee       0x14 .pio/build/lptm4c1294ncpdt/src/Drivers/soc/driverlib/emac.o
                0x000060ee                EMACTimestampPPSSimpleModeSet
 .text.EMACTimestampPPSCommandModeSet
                0x00006102       0x12 .pio/build/lptm4c1294ncpdt/src/Drivers/soc/driverlib/emac.o
                0x00006102                EMACTimestampPPSCommandModeSet
 .text.EMACTimestampPPSCommand
                0x00006114       0x12 .pio/build/lptm4c1294ncpdt/src/Drivers/soc/driverlib/emac.o
                0x00006114                EMACTimestampPPSCommand
 .text.EMACTimestampPPSPeriodSet
                0x00006126        0xa .pio/build/lptm4c1294ncpdt/src/Drivers/soc/driverlib/emac.o
                0x00006126                EMACTimestampPPSPeriodSet
 .text.EMACVLANRxConfigSet
                0x00006130        0x6 .pio/build/lptm4c1294ncpdt/src/Drivers/soc/driverlib/emac.o
                0x00006130                EMACVLANRxConfigSet
 .text.EMACVLANRxConfigGet
                0x00006136        0xa .pio/build/lptm4c1294ncpdt/src/Drivers/soc/driverlib/emac.o
                0x00006136                EMACVLANRxConfigGet
 .text.EMACVLANTxConfigSet
                0x00006140        0x8 .pio/build/lptm4c1294ncpdt/src/Drivers/soc/driverlib/emac.o
                0x00006140                EMACVLANTxConfigSet
 .text.EMACVLANTxConfigGet
                0x00006148        0xc .pio/build/lptm4c1294ncpdt/src/Drivers/soc/driverlib/emac.o
                0x00006148                EMACVLANTxConfigGet
 .text.EMACVLANHashFilterBitCalculate
                0x00006154       0x2e .pio/build/lptm4c1294ncpdt/src/Drivers/soc/driverlib/emac.o
                0x00006154                EMACVLANHashFilterBitCalculate
 .text.EMACVLANHashFilterSet
                0x00006182        0x6 .pio/build/lptm4c1294ncpdt/src/Drivers/soc/driverlib/emac.o
                0x00006182                EMACVLANHashFilterSet
 .text.EMACVLANHashFilterGet
                0x00006188        0x6 .pio/build/lptm4c1294ncpdt/src/Drivers/soc/driverlib/emac.o
                0x00006188                EMACVLANHashFilterGet
 .text.EMACRemoteWakeUpFrameFilterSet
                0x0000618e       0x16 .pio/build/lptm4c1294ncpdt/src/Drivers/soc/driverlib/emac.o
                0x0000618e                EMACRemoteWakeUpFrameFilterSet
 .text.EMACRemoteWakeUpFrameFilterGet
                0x000061a4       0x16 .pio/build/lptm4c1294ncpdt/src/Drivers/soc/driverlib/emac.o
                0x000061a4                EMACRemoteWakeUpFrameFilterGet
 .text.EMACPowerManagementControlSet
                0x000061ba       0x10 .pio/build/lptm4c1294ncpdt/src/Drivers/soc/driverlib/emac.o
                0x000061ba                EMACPowerManagementControlSet
 .text.EMACPowerManagementControlGet
                0x000061ca        0xc .pio/build/lptm4c1294ncpdt/src/Drivers/soc/driverlib/emac.o
                0x000061ca                EMACPowerManagementControlGet
 .text.EMACPowerManagementStatusGet
                0x000061d6        0x8 .pio/build/lptm4c1294ncpdt/src/Drivers/soc/driverlib/emac.o
                0x000061d6                EMACPowerManagementStatusGet
 .text.EMACWoLEnter
                0x000061de       0x32 .pio/build/lptm4c1294ncpdt/src/Drivers/soc/driverlib/emac.o
                0x000061de                EMACWoLEnter
 .text.EMACLPIConfig
                0x00006210       0x20 .pio/build/lptm4c1294ncpdt/src/Drivers/soc/driverlib/emac.o
                0x00006210                EMACLPIConfig
 .text.EMACLPIEnter
                0x00006230        0xa .pio/build/lptm4c1294ncpdt/src/Drivers/soc/driverlib/emac.o
                0x00006230                EMACLPIEnter
 .text.EMACLPIStatus
                0x0000623a        0x6 .pio/build/lptm4c1294ncpdt/src/Drivers/soc/driverlib/emac.o
                0x0000623a                EMACLPIStatus
 .text.EMACLPILinkSet
                0x00006240        0xa .pio/build/lptm4c1294ncpdt/src/Drivers/soc/driverlib/emac.o
                0x00006240                EMACLPILinkSet
 .text.EMACLPILinkClear
                0x0000624a        0xa .pio/build/lptm4c1294ncpdt/src/Drivers/soc/driverlib/emac.o
                0x0000624a                EMACLPILinkClear
 .text.EMACPHYMMDWrite
                0x00006254       0x42 .pio/build/lptm4c1294ncpdt/src/Drivers/soc/driverlib/emac.o
                0x00006254                EMACPHYMMDWrite
 .text.EMACPHYMMDRead
                0x00006296       0x3c .pio/build/lptm4c1294ncpdt/src/Drivers/soc/driverlib/emac.o
                0x00006296                EMACPHYMMDRead
 .text          0x000062d2        0x0 .pio/build/lptm4c1294ncpdt/src/Drivers/soc/driverlib/epi.o
 .text.EPIWorkaroundWordWrite
                0x000062d2       0x12 .pio/build/lptm4c1294ncpdt/src/Drivers/soc/driverlib/epi.o
                0x000062d2                EPIWorkaroundWordWrite
 .text.EPIWorkaroundWordRead
                0x000062e4       0x16 .pio/build/lptm4c1294ncpdt/src/Drivers/soc/driverlib/epi.o
                0x000062e4                EPIWorkaroundWordRead
 .text.EPIWorkaroundHWordWrite
                0x000062fa       0x12 .pio/build/lptm4c1294ncpdt/src/Drivers/soc/driverlib/epi.o
                0x000062fa                EPIWorkaroundHWordWrite
 .text.EPIWorkaroundHWordRead
                0x0000630c        0xa .pio/build/lptm4c1294ncpdt/src/Drivers/soc/driverlib/epi.o
                0x0000630c                EPIWorkaroundHWordRead
 .text.EPIWorkaroundByteWrite
                0x00006316       0x12 .pio/build/lptm4c1294ncpdt/src/Drivers/soc/driverlib/epi.o
                0x00006316                EPIWorkaroundByteWrite
 .text.EPIWorkaroundByteRead
                0x00006328        0xa .pio/build/lptm4c1294ncpdt/src/Drivers/soc/driverlib/epi.o
                0x00006328                EPIWorkaroundByteRead
 .text.EPIModeSet
                0x00006332        0x4 .pio/build/lptm4c1294ncpdt/src/Drivers/soc/driverlib/epi.o
                0x00006332                EPIModeSet
 .text.EPIDividerSet
                0x00006336        0x4 .pio/build/lptm4c1294ncpdt/src/Drivers/soc/driverlib/epi.o
                0x00006336                EPIDividerSet
 .text.EPIDividerCSSet
                0x0000633a       0x3e .pio/build/lptm4c1294ncpdt/src/Drivers/soc/driverlib/epi.o
                0x0000633a                EPIDividerCSSet
 .text.EPIDMATxCount
                0x00006378        0x8 .pio/build/lptm4c1294ncpdt/src/Drivers/soc/driverlib/epi.o
                0x00006378                EPIDMATxCount
 .text.EPIConfigSDRAMSet
                0x00006380       0x10 .pio/build/lptm4c1294ncpdt/src/Drivers/soc/driverlib/epi.o
                0x00006380                EPIConfigSDRAMSet
 .text.EPIConfigHB8Set
                0x00006390       0x14 .pio/build/lptm4c1294ncpdt/src/Drivers/soc/driverlib/epi.o
                0x00006390                EPIConfigHB8Set
 .text.EPIConfigHB16Set
                0x000063a4       0x14 .pio/build/lptm4c1294ncpdt/src/Drivers/soc/driverlib/epi.o
                0x000063a4                EPIConfigHB16Set
 .text.EPIConfigHB8CSSet
                0x000063b8       0x1e .pio/build/lptm4c1294ncpdt/src/Drivers/soc/driverlib/epi.o
                0x000063b8                EPIConfigHB8CSSet
 .text.EPIConfigHB16CSSet
                0x000063d6       0x1e .pio/build/lptm4c1294ncpdt/src/Drivers/soc/driverlib/epi.o
                0x000063d6                EPIConfigHB16CSSet
 .text.EPIConfigHB8TimingSet
                0x000063f4        0xa .pio/build/lptm4c1294ncpdt/src/Drivers/soc/driverlib/epi.o
                0x000063f4                EPIConfigHB8TimingSet
 .text.EPIConfigHB16TimingSet
                0x000063fe        0xa .pio/build/lptm4c1294ncpdt/src/Drivers/soc/driverlib/epi.o
                0x000063fe                EPIConfigHB16TimingSet
 .text.EPIPSRAMConfigRegSet
                0x00006408       0x20 .pio/build/lptm4c1294ncpdt/src/Drivers/soc/driverlib/epi.o
                0x00006408                EPIPSRAMConfigRegSet
 .text.EPIPSRAMConfigRegRead
                0x00006428       0x18 .pio/build/lptm4c1294ncpdt/src/Drivers/soc/driverlib/epi.o
                0x00006428                EPIPSRAMConfigRegRead
 .text.EPIPSRAMConfigRegGetNonBlocking
                0x00006440       0x24 .pio/build/lptm4c1294ncpdt/src/Drivers/soc/driverlib/epi.o
                0x00006440                EPIPSRAMConfigRegGetNonBlocking
 .text.EPIPSRAMConfigRegGet
                0x00006464       0x1c .pio/build/lptm4c1294ncpdt/src/Drivers/soc/driverlib/epi.o
                0x00006464                EPIPSRAMConfigRegGet
 .text.EPIConfigGPModeSet
                0x00006480        0xc .pio/build/lptm4c1294ncpdt/src/Drivers/soc/driverlib/epi.o
                0x00006480                EPIConfigGPModeSet
 .text.EPIAddressMapSet
                0x0000648c        0x4 .pio/build/lptm4c1294ncpdt/src/Drivers/soc/driverlib/epi.o
                0x0000648c                EPIAddressMapSet
 .text.EPINonBlockingReadConfigure
                0x00006490        0xa .pio/build/lptm4c1294ncpdt/src/Drivers/soc/driverlib/epi.o
                0x00006490                EPINonBlockingReadConfigure
 .text.EPINonBlockingReadStart
                0x0000649a        0x8 .pio/build/lptm4c1294ncpdt/src/Drivers/soc/driverlib/epi.o
                0x0000649a                EPINonBlockingReadStart
 .text.EPINonBlockingReadStop
                0x000064a2        0xa .pio/build/lptm4c1294ncpdt/src/Drivers/soc/driverlib/epi.o
                0x000064a2                EPINonBlockingReadStop
 .text.EPINonBlockingReadCount
                0x000064ac        0x8 .pio/build/lptm4c1294ncpdt/src/Drivers/soc/driverlib/epi.o
                0x000064ac                EPINonBlockingReadCount
 .text.EPINonBlockingReadAvail
                0x000064b4        0x4 .pio/build/lptm4c1294ncpdt/src/Drivers/soc/driverlib/epi.o
                0x000064b4                EPINonBlockingReadAvail
 .text.EPINonBlockingReadGet32
                0x000064b8       0x1a .pio/build/lptm4c1294ncpdt/src/Drivers/soc/driverlib/epi.o
                0x000064b8                EPINonBlockingReadGet32
 .text.EPINonBlockingReadGet16
                0x000064d2       0x1a .pio/build/lptm4c1294ncpdt/src/Drivers/soc/driverlib/epi.o
                0x000064d2                EPINonBlockingReadGet16
 .text.EPINonBlockingReadGet8
                0x000064ec       0x18 .pio/build/lptm4c1294ncpdt/src/Drivers/soc/driverlib/epi.o
                0x000064ec                EPINonBlockingReadGet8
 .text.EPIFIFOConfig
                0x00006504        0x6 .pio/build/lptm4c1294ncpdt/src/Drivers/soc/driverlib/epi.o
                0x00006504                EPIFIFOConfig
 .text.EPIWriteFIFOCountGet
                0x0000650a        0x6 .pio/build/lptm4c1294ncpdt/src/Drivers/soc/driverlib/epi.o
                0x0000650a                EPIWriteFIFOCountGet
 .text.EPIIntEnable
                0x00006510        0xc .pio/build/lptm4c1294ncpdt/src/Drivers/soc/driverlib/epi.o
                0x00006510                EPIIntEnable
 .text.EPIIntDisable
                0x0000651c        0xe .pio/build/lptm4c1294ncpdt/src/Drivers/soc/driverlib/epi.o
                0x0000651c                EPIIntDisable
 .text.EPIIntStatus
                0x0000652a        0xe .pio/build/lptm4c1294ncpdt/src/Drivers/soc/driverlib/epi.o
                0x0000652a                EPIIntStatus
 .text.EPIIntErrorStatus
                0x00006538        0x6 .pio/build/lptm4c1294ncpdt/src/Drivers/soc/driverlib/epi.o
                0x00006538                EPIIntErrorStatus
 .text.EPIIntErrorClear
                0x0000653e        0x6 .pio/build/lptm4c1294ncpdt/src/Drivers/soc/driverlib/epi.o
                0x0000653e                EPIIntErrorClear
 .text.EPIIntRegister
                0x00006544       0x30 .pio/build/lptm4c1294ncpdt/src/Drivers/soc/driverlib/epi.o
                0x00006544                EPIIntRegister
 .text.EPIIntUnregister
                0x00006574       0x30 .pio/build/lptm4c1294ncpdt/src/Drivers/soc/driverlib/epi.o
                0x00006574                EPIIntUnregister
 .text          0x000065a4        0x0 .pio/build/lptm4c1294ncpdt/src/Drivers/soc/driverlib/flash.o
 .text.FlashErase
                0x000065a4       0x38 .pio/build/lptm4c1294ncpdt/src/Drivers/soc/driverlib/flash.o
                0x000065a4                FlashErase
 .text.FlashProgram
                0x000065dc       0x78 .pio/build/lptm4c1294ncpdt/src/Drivers/soc/driverlib/flash.o
                0x000065dc                FlashProgram
 .text.FlashProtectGet
                0x00006654       0x44 .pio/build/lptm4c1294ncpdt/src/Drivers/soc/driverlib/flash.o
                0x00006654                FlashProtectGet
 .text.FlashProtectSet
                0x00006698       0x70 .pio/build/lptm4c1294ncpdt/src/Drivers/soc/driverlib/flash.o
                0x00006698                FlashProtectSet
 .text.FlashProtectSave
                0x00006708       0x24 .pio/build/lptm4c1294ncpdt/src/Drivers/soc/driverlib/flash.o
                0x00006708                FlashProtectSave
 .text.FlashUserGet
                0x0000672c       0x18 .pio/build/lptm4c1294ncpdt/src/Drivers/soc/driverlib/flash.o
                0x0000672c                FlashUserGet
 .text.FlashUserSet
                0x00006744       0x10 .pio/build/lptm4c1294ncpdt/src/Drivers/soc/driverlib/flash.o
                0x00006744                FlashUserSet
 .text.FlashAllUserRegisterGet
                0x00006754       0x30 .pio/build/lptm4c1294ncpdt/src/Drivers/soc/driverlib/flash.o
                0x00006754                FlashAllUserRegisterGet
 .text.FlashAllUserRegisterSet
                0x00006784       0x28 .pio/build/lptm4c1294ncpdt/src/Drivers/soc/driverlib/flash.o
                0x00006784                FlashAllUserRegisterSet
 .text.FlashUserSave
                0x000067ac       0x38 .pio/build/lptm4c1294ncpdt/src/Drivers/soc/driverlib/flash.o
                0x000067ac                FlashUserSave
 .text.FlashAllUserRegisterSave
                0x000067e4       0x2c .pio/build/lptm4c1294ncpdt/src/Drivers/soc/driverlib/flash.o
                0x000067e4                FlashAllUserRegisterSave
 .text.FlashIntRegister
                0x00006810       0x14 .pio/build/lptm4c1294ncpdt/src/Drivers/soc/driverlib/flash.o
                0x00006810                FlashIntRegister
 .text.FlashIntUnregister
                0x00006824       0x12 .pio/build/lptm4c1294ncpdt/src/Drivers/soc/driverlib/flash.o
                0x00006824                FlashIntUnregister
 *fill*         0x00006836        0x2 
 .text.FlashIntEnable
                0x00006838       0x10 .pio/build/lptm4c1294ncpdt/src/Drivers/soc/driverlib/flash.o
                0x00006838                FlashIntEnable
 .text.FlashIntDisable
                0x00006848       0x10 .pio/build/lptm4c1294ncpdt/src/Drivers/soc/driverlib/flash.o
                0x00006848                FlashIntDisable
 .text.FlashIntStatus
                0x00006858       0x14 .pio/build/lptm4c1294ncpdt/src/Drivers/soc/driverlib/flash.o
                0x00006858                FlashIntStatus
 .text.FlashIntClear
                0x0000686c        0xc .pio/build/lptm4c1294ncpdt/src/Drivers/soc/driverlib/flash.o
                0x0000686c                FlashIntClear
 .text          0x00006878        0x0 .pio/build/lptm4c1294ncpdt/src/Drivers/soc/driverlib/fpu.o
 .text.FPUEnable
                0x00006878       0x10 .pio/build/lptm4c1294ncpdt/src/Drivers/soc/driverlib/fpu.o
                0x00006878                FPUEnable
 .text.FPUDisable
                0x00006888       0x10 .pio/build/lptm4c1294ncpdt/src/Drivers/soc/driverlib/fpu.o
                0x00006888                FPUDisable
 .text.FPUStackingEnable
                0x00006898       0x14 .pio/build/lptm4c1294ncpdt/src/Drivers/soc/driverlib/fpu.o
                0x00006898                FPUStackingEnable
 .text.FPULazyStackingEnable
                0x000068ac       0x10 .pio/build/lptm4c1294ncpdt/src/Drivers/soc/driverlib/fpu.o
                0x000068ac                FPULazyStackingEnable
 .text.FPUStackingDisable
                0x000068bc       0x10 .pio/build/lptm4c1294ncpdt/src/Drivers/soc/driverlib/fpu.o
                0x000068bc                FPUStackingDisable
 .text.FPUHalfPrecisionModeSet
                0x000068cc       0x14 .pio/build/lptm4c1294ncpdt/src/Drivers/soc/driverlib/fpu.o
                0x000068cc                FPUHalfPrecisionModeSet
 .text.FPUNaNModeSet
                0x000068e0       0x14 .pio/build/lptm4c1294ncpdt/src/Drivers/soc/driverlib/fpu.o
                0x000068e0                FPUNaNModeSet
 .text.FPUFlushToZeroModeSet
                0x000068f4       0x14 .pio/build/lptm4c1294ncpdt/src/Drivers/soc/driverlib/fpu.o
                0x000068f4                FPUFlushToZeroModeSet
 .text.FPURoundingModeSet
                0x00006908       0x14 .pio/build/lptm4c1294ncpdt/src/Drivers/soc/driverlib/fpu.o
                0x00006908                FPURoundingModeSet
 .text          0x0000691c        0x0 .pio/build/lptm4c1294ncpdt/src/Drivers/soc/driverlib/gpio.o
 .text._GPIOIntNumberGet
                0x0000691c       0x4c .pio/build/lptm4c1294ncpdt/src/Drivers/soc/driverlib/gpio.o
 .text.GPIODirModeSet
                0x00006968       0x2e .pio/build/lptm4c1294ncpdt/src/Drivers/soc/driverlib/gpio.o
                0x00006968                GPIODirModeSet
 .text.GPIODirModeGet
                0x00006996       0x24 .pio/build/lptm4c1294ncpdt/src/Drivers/soc/driverlib/gpio.o
                0x00006996                GPIODirModeGet
 .text.GPIOIntTypeSet
                0x000069ba       0x5a .pio/build/lptm4c1294ncpdt/src/Drivers/soc/driverlib/gpio.o
                0x000069ba                GPIOIntTypeSet
 .text.GPIOIntTypeGet
                0x00006a14       0x48 .pio/build/lptm4c1294ncpdt/src/Drivers/soc/driverlib/gpio.o
                0x00006a14                GPIOIntTypeGet
 .text.GPIOPadConfigSet
                0x00006a5c      0x170 .pio/build/lptm4c1294ncpdt/src/Drivers/soc/driverlib/gpio.o
                0x00006a5c                GPIOPadConfigSet
 .text.GPIOPadConfigGet
                0x00006bcc       0xe0 .pio/build/lptm4c1294ncpdt/src/Drivers/soc/driverlib/gpio.o
                0x00006bcc                GPIOPadConfigGet
 .text.GPIOIntEnable
                0x00006cac        0xc .pio/build/lptm4c1294ncpdt/src/Drivers/soc/driverlib/gpio.o
                0x00006cac                GPIOIntEnable
 .text.GPIOIntDisable
                0x00006cb8        0xe .pio/build/lptm4c1294ncpdt/src/Drivers/soc/driverlib/gpio.o
                0x00006cb8                GPIOIntDisable
 .text.GPIOIntStatus
                0x00006cc6        0xe .pio/build/lptm4c1294ncpdt/src/Drivers/soc/driverlib/gpio.o
                0x00006cc6                GPIOIntStatus
 .text.GPIOIntClear
                0x00006cd4        0x6 .pio/build/lptm4c1294ncpdt/src/Drivers/soc/driverlib/gpio.o
                0x00006cd4                GPIOIntClear
 .text.GPIOIntRegister
                0x00006cda       0x1a .pio/build/lptm4c1294ncpdt/src/Drivers/soc/driverlib/gpio.o
                0x00006cda                GPIOIntRegister
 .text.GPIOIntUnregister
                0x00006cf4       0x16 .pio/build/lptm4c1294ncpdt/src/Drivers/soc/driverlib/gpio.o
                0x00006cf4                GPIOIntUnregister
 .text.GPIOIntRegisterPin
                0x00006d0a       0x1e .pio/build/lptm4c1294ncpdt/src/Drivers/soc/driverlib/gpio.o
                0x00006d0a                GPIOIntRegisterPin
 .text.GPIOIntUnregisterPin
                0x00006d28       0x1a .pio/build/lptm4c1294ncpdt/src/Drivers/soc/driverlib/gpio.o
                0x00006d28                GPIOIntUnregisterPin
 .text.GPIOPinRead
                0x00006d42        0x6 .pio/build/lptm4c1294ncpdt/src/Drivers/soc/driverlib/gpio.o
                0x00006d42                GPIOPinRead
 .text.GPIOPinWrite
                0x00006d48        0x6 .pio/build/lptm4c1294ncpdt/src/Drivers/soc/driverlib/gpio.o
                0x00006d48                GPIOPinWrite
 .text.GPIOPinTypeADC
                0x00006d4e       0x1c .pio/build/lptm4c1294ncpdt/src/Drivers/soc/driverlib/gpio.o
                0x00006d4e                GPIOPinTypeADC
 .text.GPIOPinTypeCAN
                0x00006d6a       0x1c .pio/build/lptm4c1294ncpdt/src/Drivers/soc/driverlib/gpio.o
                0x00006d6a                GPIOPinTypeCAN
 .text.GPIOPinTypeComparator
                0x00006d86       0x1c .pio/build/lptm4c1294ncpdt/src/Drivers/soc/driverlib/gpio.o
                0x00006d86                GPIOPinTypeComparator
 .text.GPIOPinTypeComparatorOutput
                0x00006da2       0x1c .pio/build/lptm4c1294ncpdt/src/Drivers/soc/driverlib/gpio.o
                0x00006da2                GPIOPinTypeComparatorOutput
 .text.GPIOPinTypeDIVSCLK
                0x00006dbe       0x1c .pio/build/lptm4c1294ncpdt/src/Drivers/soc/driverlib/gpio.o
                0x00006dbe                GPIOPinTypeDIVSCLK
 .text.GPIOPinTypeEPI
                0x00006dda       0x1c .pio/build/lptm4c1294ncpdt/src/Drivers/soc/driverlib/gpio.o
                0x00006dda                GPIOPinTypeEPI
 .text.GPIOPinTypeEthernetLED
                0x00006df6       0x1c .pio/build/lptm4c1294ncpdt/src/Drivers/soc/driverlib/gpio.o
                0x00006df6                GPIOPinTypeEthernetLED
 .text.GPIOPinTypeEthernetMII
                0x00006e12       0x1c .pio/build/lptm4c1294ncpdt/src/Drivers/soc/driverlib/gpio.o
                0x00006e12                GPIOPinTypeEthernetMII
 .text.GPIOPinTypeGPIOInput
                0x00006e2e       0x1c .pio/build/lptm4c1294ncpdt/src/Drivers/soc/driverlib/gpio.o
                0x00006e2e                GPIOPinTypeGPIOInput
 .text.GPIOPinTypeGPIOOutput
                0x00006e4a       0x1c .pio/build/lptm4c1294ncpdt/src/Drivers/soc/driverlib/gpio.o
                0x00006e4a                GPIOPinTypeGPIOOutput
 .text.GPIOPinTypeGPIOOutputOD
                0x00006e66       0x1c .pio/build/lptm4c1294ncpdt/src/Drivers/soc/driverlib/gpio.o
                0x00006e66                GPIOPinTypeGPIOOutputOD
 .text.GPIOPinTypeHibernateRTCCLK
                0x00006e82       0x1c .pio/build/lptm4c1294ncpdt/src/Drivers/soc/driverlib/gpio.o
                0x00006e82                GPIOPinTypeHibernateRTCCLK
 .text.GPIOPinTypeI2C
                0x00006e9e       0x1c .pio/build/lptm4c1294ncpdt/src/Drivers/soc/driverlib/gpio.o
                0x00006e9e                GPIOPinTypeI2C
 .text.GPIOPinTypeI2CSCL
                0x00006eba       0x1c .pio/build/lptm4c1294ncpdt/src/Drivers/soc/driverlib/gpio.o
                0x00006eba                GPIOPinTypeI2CSCL
 .text.GPIOPinTypeLCD
                0x00006ed6       0x1c .pio/build/lptm4c1294ncpdt/src/Drivers/soc/driverlib/gpio.o
                0x00006ed6                GPIOPinTypeLCD
 .text.GPIOPinTypeOneWire
                0x00006ef2       0x1c .pio/build/lptm4c1294ncpdt/src/Drivers/soc/driverlib/gpio.o
                0x00006ef2                GPIOPinTypeOneWire
 .text.GPIOPinTypePWM
                0x00006f0e       0x1c .pio/build/lptm4c1294ncpdt/src/Drivers/soc/driverlib/gpio.o
                0x00006f0e                GPIOPinTypePWM
 .text.GPIOPinTypeQEI
                0x00006f2a       0x1c .pio/build/lptm4c1294ncpdt/src/Drivers/soc/driverlib/gpio.o
                0x00006f2a                GPIOPinTypeQEI
 .text.GPIOPinTypeSSI
                0x00006f46       0x1c .pio/build/lptm4c1294ncpdt/src/Drivers/soc/driverlib/gpio.o
                0x00006f46                GPIOPinTypeSSI
 .text.GPIOPinTypeTimer
                0x00006f62       0x1c .pio/build/lptm4c1294ncpdt/src/Drivers/soc/driverlib/gpio.o
                0x00006f62                GPIOPinTypeTimer
 .text.GPIOPinTypeTrace
                0x00006f7e       0x1c .pio/build/lptm4c1294ncpdt/src/Drivers/soc/driverlib/gpio.o
                0x00006f7e                GPIOPinTypeTrace
 .text.GPIOPinTypeUART
                0x00006f9a       0x1c .pio/build/lptm4c1294ncpdt/src/Drivers/soc/driverlib/gpio.o
                0x00006f9a                GPIOPinTypeUART
 .text.GPIOPinTypeUSBAnalog
                0x00006fb6       0x1c .pio/build/lptm4c1294ncpdt/src/Drivers/soc/driverlib/gpio.o
                0x00006fb6                GPIOPinTypeUSBAnalog
 .text.GPIOPinTypeUSBDigital
                0x00006fd2       0x1c .pio/build/lptm4c1294ncpdt/src/Drivers/soc/driverlib/gpio.o
                0x00006fd2                GPIOPinTypeUSBDigital
 .text.GPIOPinTypeWakeHigh
                0x00006fee       0x1e .pio/build/lptm4c1294ncpdt/src/Drivers/soc/driverlib/gpio.o
                0x00006fee                GPIOPinTypeWakeHigh
 .text.GPIOPinTypeWakeLow
                0x0000700c       0x1e .pio/build/lptm4c1294ncpdt/src/Drivers/soc/driverlib/gpio.o
                0x0000700c                GPIOPinTypeWakeLow
 .text.GPIOPinWakeStatus
                0x0000702a        0x6 .pio/build/lptm4c1294ncpdt/src/Drivers/soc/driverlib/gpio.o
                0x0000702a                GPIOPinWakeStatus
 .text.GPIOPinConfigure
                0x00007030       0x48 .pio/build/lptm4c1294ncpdt/src/Drivers/soc/driverlib/gpio.o
                0x00007030                GPIOPinConfigure
 .text.GPIODMATriggerEnable
                0x00007078        0xc .pio/build/lptm4c1294ncpdt/src/Drivers/soc/driverlib/gpio.o
                0x00007078                GPIODMATriggerEnable
 .text.GPIODMATriggerDisable
                0x00007084        0xe .pio/build/lptm4c1294ncpdt/src/Drivers/soc/driverlib/gpio.o
                0x00007084                GPIODMATriggerDisable
 .text.GPIOADCTriggerEnable
                0x00007092        0xc .pio/build/lptm4c1294ncpdt/src/Drivers/soc/driverlib/gpio.o
                0x00007092                GPIOADCTriggerEnable
 .text.GPIOADCTriggerDisable
                0x0000709e        0xe .pio/build/lptm4c1294ncpdt/src/Drivers/soc/driverlib/gpio.o
                0x0000709e                GPIOADCTriggerDisable
 .text.GPIOUnlockPin
                0x000070ac       0x18 .pio/build/lptm4c1294ncpdt/src/Drivers/soc/driverlib/gpio.o
                0x000070ac                GPIOUnlockPin
 .text          0x000070c4        0x0 .pio/build/lptm4c1294ncpdt/src/Drivers/soc/driverlib/hibernate.o
 .text._HibernateWriteComplete
                0x000070c4       0x10 .pio/build/lptm4c1294ncpdt/src/Drivers/soc/driverlib/hibernate.o
 .text.HibernateEnableExpClk
                0x000070d4       0x14 .pio/build/lptm4c1294ncpdt/src/Drivers/soc/driverlib/hibernate.o
                0x000070d4                HibernateEnableExpClk
 .text.HibernateDisable
                0x000070e8       0x14 .pio/build/lptm4c1294ncpdt/src/Drivers/soc/driverlib/hibernate.o
                0x000070e8                HibernateDisable
 .text.HibernateClockConfig
                0x000070fc       0x4c .pio/build/lptm4c1294ncpdt/src/Drivers/soc/driverlib/hibernate.o
                0x000070fc                HibernateClockConfig
 .text.HibernateRTCEnable
                0x00007148       0x14 .pio/build/lptm4c1294ncpdt/src/Drivers/soc/driverlib/hibernate.o
                0x00007148                HibernateRTCEnable
 .text.HibernateRTCDisable
                0x0000715c       0x14 .pio/build/lptm4c1294ncpdt/src/Drivers/soc/driverlib/hibernate.o
                0x0000715c                HibernateRTCDisable
 .text.HibernateBatCheckStart
                0x00007170       0x14 .pio/build/lptm4c1294ncpdt/src/Drivers/soc/driverlib/hibernate.o
                0x00007170                HibernateBatCheckStart
 .text.HibernateBatCheckDone
                0x00007184       0x10 .pio/build/lptm4c1294ncpdt/src/Drivers/soc/driverlib/hibernate.o
                0x00007184                HibernateBatCheckDone
 .text.HibernateWakeSet
                0x00007194       0x6c .pio/build/lptm4c1294ncpdt/src/Drivers/soc/driverlib/hibernate.o
                0x00007194                HibernateWakeSet
 .text.HibernateWakeGet
                0x00007200       0x40 .pio/build/lptm4c1294ncpdt/src/Drivers/soc/driverlib/hibernate.o
                0x00007200                HibernateWakeGet
 .text.HibernateLowBatSet
                0x00007240       0x18 .pio/build/lptm4c1294ncpdt/src/Drivers/soc/driverlib/hibernate.o
                0x00007240                HibernateLowBatSet
 .text.HibernateLowBatGet
                0x00007258       0x18 .pio/build/lptm4c1294ncpdt/src/Drivers/soc/driverlib/hibernate.o
                0x00007258                HibernateLowBatGet
 .text.HibernateRTCSet
                0x00007270       0x30 .pio/build/lptm4c1294ncpdt/src/Drivers/soc/driverlib/hibernate.o
                0x00007270                HibernateRTCSet
 .text.HibernateRTCGet
                0x000072a0        0xc .pio/build/lptm4c1294ncpdt/src/Drivers/soc/driverlib/hibernate.o
                0x000072a0                HibernateRTCGet
 .text.HibernateRTCMatchSet
                0x000072ac        0xc .pio/build/lptm4c1294ncpdt/src/Drivers/soc/driverlib/hibernate.o
                0x000072ac                HibernateRTCMatchSet
 .text.HibernateRTCMatchGet
                0x000072b8        0xc .pio/build/lptm4c1294ncpdt/src/Drivers/soc/driverlib/hibernate.o
                0x000072b8                HibernateRTCMatchGet
 .text.HibernateRTCSSMatchSet
                0x000072c4       0x10 .pio/build/lptm4c1294ncpdt/src/Drivers/soc/driverlib/hibernate.o
                0x000072c4                HibernateRTCSSMatchSet
 .text.HibernateRTCSSMatchGet
                0x000072d4        0xc .pio/build/lptm4c1294ncpdt/src/Drivers/soc/driverlib/hibernate.o
                0x000072d4                HibernateRTCSSMatchGet
 .text.HibernateRTCSSGet
                0x000072e0       0x10 .pio/build/lptm4c1294ncpdt/src/Drivers/soc/driverlib/hibernate.o
                0x000072e0                HibernateRTCSSGet
 .text.HibernateRTCTrimSet
                0x000072f0        0xc .pio/build/lptm4c1294ncpdt/src/Drivers/soc/driverlib/hibernate.o
                0x000072f0                HibernateRTCTrimSet
 .text.HibernateRTCTrimGet
                0x000072fc        0xc .pio/build/lptm4c1294ncpdt/src/Drivers/soc/driverlib/hibernate.o
                0x000072fc                HibernateRTCTrimGet
 .text.HibernateDataSet
                0x00007308       0x2c .pio/build/lptm4c1294ncpdt/src/Drivers/soc/driverlib/hibernate.o
                0x00007308                HibernateDataSet
 .text.HibernateDataGet
                0x00007334       0x18 .pio/build/lptm4c1294ncpdt/src/Drivers/soc/driverlib/hibernate.o
                0x00007334                HibernateDataGet
 .text.HibernateRequest
                0x0000734c       0x14 .pio/build/lptm4c1294ncpdt/src/Drivers/soc/driverlib/hibernate.o
                0x0000734c                HibernateRequest
 .text.HibernateIntEnable
                0x00007360       0x10 .pio/build/lptm4c1294ncpdt/src/Drivers/soc/driverlib/hibernate.o
                0x00007360                HibernateIntEnable
 .text.HibernateIntDisable
                0x00007370       0x14 .pio/build/lptm4c1294ncpdt/src/Drivers/soc/driverlib/hibernate.o
                0x00007370                HibernateIntDisable
 .text.HibernateIntRegister
                0x00007384       0x34 .pio/build/lptm4c1294ncpdt/src/Drivers/soc/driverlib/hibernate.o
                0x00007384                HibernateIntRegister
 .text.HibernateIntUnregister
                0x000073b8       0x30 .pio/build/lptm4c1294ncpdt/src/Drivers/soc/driverlib/hibernate.o
                0x000073b8                HibernateIntUnregister
 .text.HibernateIntStatus
                0x000073e8       0x14 .pio/build/lptm4c1294ncpdt/src/Drivers/soc/driverlib/hibernate.o
                0x000073e8                HibernateIntStatus
 .text.HibernateIntClear
                0x000073fc       0x10 .pio/build/lptm4c1294ncpdt/src/Drivers/soc/driverlib/hibernate.o
                0x000073fc                HibernateIntClear
 .text.HibernateIsActive
                0x0000740c       0x10 .pio/build/lptm4c1294ncpdt/src/Drivers/soc/driverlib/hibernate.o
                0x0000740c                HibernateIsActive
 .text.HibernateGPIORetentionEnable
                0x0000741c       0x18 .pio/build/lptm4c1294ncpdt/src/Drivers/soc/driverlib/hibernate.o
                0x0000741c                HibernateGPIORetentionEnable
 .text.HibernateGPIORetentionDisable
                0x00007434       0x18 .pio/build/lptm4c1294ncpdt/src/Drivers/soc/driverlib/hibernate.o
                0x00007434                HibernateGPIORetentionDisable
 .text.HibernateGPIORetentionGet
                0x0000744c       0x18 .pio/build/lptm4c1294ncpdt/src/Drivers/soc/driverlib/hibernate.o
                0x0000744c                HibernateGPIORetentionGet
 .text.HibernateCounterMode
                0x00007464        0xc .pio/build/lptm4c1294ncpdt/src/Drivers/soc/driverlib/hibernate.o
                0x00007464                HibernateCounterMode
 .text.HibernateCalendarSet
                0x00007470       0x90 .pio/build/lptm4c1294ncpdt/src/Drivers/soc/driverlib/hibernate.o
                0x00007470                HibernateCalendarSet
 .text.HibernateCalendarGet
                0x00007500       0x74 .pio/build/lptm4c1294ncpdt/src/Drivers/soc/driverlib/hibernate.o
                0x00007500                HibernateCalendarGet
 .text.HibernateCalendarMatchSet
                0x00007574       0x74 .pio/build/lptm4c1294ncpdt/src/Drivers/soc/driverlib/hibernate.o
                0x00007574                HibernateCalendarMatchSet
 .text.HibernateCalendarMatchGet
                0x000075e8       0x5c .pio/build/lptm4c1294ncpdt/src/Drivers/soc/driverlib/hibernate.o
                0x000075e8                HibernateCalendarMatchGet
 .text.HibernateTamperEventsConfig
                0x00007644       0x38 .pio/build/lptm4c1294ncpdt/src/Drivers/soc/driverlib/hibernate.o
                0x00007644                HibernateTamperEventsConfig
 .text.HibernateTamperEnable
                0x0000767c       0x34 .pio/build/lptm4c1294ncpdt/src/Drivers/soc/driverlib/hibernate.o
                0x0000767c                HibernateTamperEnable
 .text.HibernateTamperDisable
                0x000076b0       0x34 .pio/build/lptm4c1294ncpdt/src/Drivers/soc/driverlib/hibernate.o
                0x000076b0                HibernateTamperDisable
 .text.HibernateTamperIOEnable
                0x000076e4       0x44 .pio/build/lptm4c1294ncpdt/src/Drivers/soc/driverlib/hibernate.o
                0x000076e4                HibernateTamperIOEnable
 .text.HibernateTamperIODisable
                0x00007728       0x3c .pio/build/lptm4c1294ncpdt/src/Drivers/soc/driverlib/hibernate.o
                0x00007728                HibernateTamperIODisable
 .text.HibernateTamperEventsClear
                0x00007764       0x34 .pio/build/lptm4c1294ncpdt/src/Drivers/soc/driverlib/hibernate.o
                0x00007764                HibernateTamperEventsClear
 .text.HibernateTamperEventsClearNoLock
                0x00007798       0x18 .pio/build/lptm4c1294ncpdt/src/Drivers/soc/driverlib/hibernate.o
                0x00007798                HibernateTamperEventsClearNoLock
 .text.HibernateTamperUnLock
                0x000077b0       0x14 .pio/build/lptm4c1294ncpdt/src/Drivers/soc/driverlib/hibernate.o
                0x000077b0                HibernateTamperUnLock
 .text.HibernateTamperLock
                0x000077c4       0x18 .pio/build/lptm4c1294ncpdt/src/Drivers/soc/driverlib/hibernate.o
                0x000077c4                HibernateTamperLock
 .text.HibernateTamperStatusGet
                0x000077dc       0x34 .pio/build/lptm4c1294ncpdt/src/Drivers/soc/driverlib/hibernate.o
                0x000077dc                HibernateTamperStatusGet
 .text.HibernateTamperEventsGet
                0x00007810       0x54 .pio/build/lptm4c1294ncpdt/src/Drivers/soc/driverlib/hibernate.o
                0x00007810                HibernateTamperEventsGet
 .text.HibernateTamperExtOscRecover
                0x00007864       0x34 .pio/build/lptm4c1294ncpdt/src/Drivers/soc/driverlib/hibernate.o
                0x00007864                HibernateTamperExtOscRecover
 .text.HibernateTamperExtOscValid
                0x00007898       0x12 .pio/build/lptm4c1294ncpdt/src/Drivers/soc/driverlib/hibernate.o
                0x00007898                HibernateTamperExtOscValid
 .text          0x000078aa        0x0 .pio/build/lptm4c1294ncpdt/src/Drivers/soc/driverlib/i2c.o
 *fill*         0x000078aa        0x2 
 .text._I2CIntNumberGet
                0x000078ac       0x4c .pio/build/lptm4c1294ncpdt/src/Drivers/soc/driverlib/i2c.o
 .text.I2CSlaveAddressSet
                0x000078f8       0x18 .pio/build/lptm4c1294ncpdt/src/Drivers/soc/driverlib/i2c.o
                0x000078f8                I2CSlaveAddressSet
 .text.I2CMasterEnable
                0x00007910        0xa .pio/build/lptm4c1294ncpdt/src/Drivers/soc/driverlib/i2c.o
                0x00007910                I2CMasterEnable
 *fill*         0x0000791a        0x2 
 .text.I2CMasterInitExpClk
                0x0000791c       0x54 .pio/build/lptm4c1294ncpdt/src/Drivers/soc/driverlib/i2c.o
                0x0000791c                I2CMasterInitExpClk
 .text.I2CSlaveEnable
                0x00007970       0x10 .pio/build/lptm4c1294ncpdt/src/Drivers/soc/driverlib/i2c.o
                0x00007970                I2CSlaveEnable
 .text.I2CSlaveInit
                0x00007980       0x10 .pio/build/lptm4c1294ncpdt/src/Drivers/soc/driverlib/i2c.o
                0x00007980                I2CSlaveInit
 .text.I2CMasterDisable
                0x00007990        0xa .pio/build/lptm4c1294ncpdt/src/Drivers/soc/driverlib/i2c.o
                0x00007990                I2CMasterDisable
 .text.I2CSlaveDisable
                0x0000799a       0x10 .pio/build/lptm4c1294ncpdt/src/Drivers/soc/driverlib/i2c.o
                0x0000799a                I2CSlaveDisable
 .text.I2CIntRegister
                0x000079aa       0x1a .pio/build/lptm4c1294ncpdt/src/Drivers/soc/driverlib/i2c.o
                0x000079aa                I2CIntRegister
 .text.I2CIntUnregister
                0x000079c4       0x16 .pio/build/lptm4c1294ncpdt/src/Drivers/soc/driverlib/i2c.o
                0x000079c4                I2CIntUnregister
 .text.I2CMasterIntEnable
                0x000079da        0x6 .pio/build/lptm4c1294ncpdt/src/Drivers/soc/driverlib/i2c.o
                0x000079da                I2CMasterIntEnable
 .text.I2CMasterIntEnableEx
                0x000079e0        0x8 .pio/build/lptm4c1294ncpdt/src/Drivers/soc/driverlib/i2c.o
                0x000079e0                I2CMasterIntEnableEx
 .text.I2CSlaveIntEnable
                0x000079e8        0xe .pio/build/lptm4c1294ncpdt/src/Drivers/soc/driverlib/i2c.o
                0x000079e8                I2CSlaveIntEnable
 .text.I2CSlaveIntEnableEx
                0x000079f6        0xc .pio/build/lptm4c1294ncpdt/src/Drivers/soc/driverlib/i2c.o
                0x000079f6                I2CSlaveIntEnableEx
 .text.I2CMasterIntDisable
                0x00007a02        0x6 .pio/build/lptm4c1294ncpdt/src/Drivers/soc/driverlib/i2c.o
                0x00007a02                I2CMasterIntDisable
 .text.I2CMasterIntDisableEx
                0x00007a08        0xa .pio/build/lptm4c1294ncpdt/src/Drivers/soc/driverlib/i2c.o
                0x00007a08                I2CMasterIntDisableEx
 .text.I2CSlaveIntDisable
                0x00007a12        0xe .pio/build/lptm4c1294ncpdt/src/Drivers/soc/driverlib/i2c.o
                0x00007a12                I2CSlaveIntDisable
 .text.I2CSlaveIntDisableEx
                0x00007a20        0xe .pio/build/lptm4c1294ncpdt/src/Drivers/soc/driverlib/i2c.o
                0x00007a20                I2CSlaveIntDisableEx
 .text.I2CMasterIntStatus
                0x00007a2e       0x10 .pio/build/lptm4c1294ncpdt/src/Drivers/soc/driverlib/i2c.o
                0x00007a2e                I2CMasterIntStatus
 .text.I2CMasterIntStatusEx
                0x00007a3e        0xa .pio/build/lptm4c1294ncpdt/src/Drivers/soc/driverlib/i2c.o
                0x00007a3e                I2CMasterIntStatusEx
 .text.I2CSlaveIntStatus
                0x00007a48       0x14 .pio/build/lptm4c1294ncpdt/src/Drivers/soc/driverlib/i2c.o
                0x00007a48                I2CSlaveIntStatus
 .text.I2CSlaveIntStatusEx
                0x00007a5c        0xe .pio/build/lptm4c1294ncpdt/src/Drivers/soc/driverlib/i2c.o
                0x00007a5c                I2CSlaveIntStatusEx
 .text.I2CMasterIntClear
                0x00007a6a        0x8 .pio/build/lptm4c1294ncpdt/src/Drivers/soc/driverlib/i2c.o
                0x00007a6a                I2CMasterIntClear
 .text.I2CMasterIntClearEx
                0x00007a72        0x4 .pio/build/lptm4c1294ncpdt/src/Drivers/soc/driverlib/i2c.o
                0x00007a72                I2CMasterIntClearEx
 .text.I2CSlaveIntClear
                0x00007a76        0x8 .pio/build/lptm4c1294ncpdt/src/Drivers/soc/driverlib/i2c.o
                0x00007a76                I2CSlaveIntClear
 .text.I2CSlaveIntClearEx
                0x00007a7e        0x6 .pio/build/lptm4c1294ncpdt/src/Drivers/soc/driverlib/i2c.o
                0x00007a7e                I2CSlaveIntClearEx
 .text.I2CMasterSlaveAddrSet
                0x00007a84        0x8 .pio/build/lptm4c1294ncpdt/src/Drivers/soc/driverlib/i2c.o
                0x00007a84                I2CMasterSlaveAddrSet
 .text.I2CMasterLineStateGet
                0x00007a8c        0x4 .pio/build/lptm4c1294ncpdt/src/Drivers/soc/driverlib/i2c.o
                0x00007a8c                I2CMasterLineStateGet
 .text.I2CMasterBusy
                0x00007a90        0x8 .pio/build/lptm4c1294ncpdt/src/Drivers/soc/driverlib/i2c.o
                0x00007a90                I2CMasterBusy
 .text.I2CMasterBusBusy
                0x00007a98        0x8 .pio/build/lptm4c1294ncpdt/src/Drivers/soc/driverlib/i2c.o
                0x00007a98                I2CMasterBusBusy
 .text.I2CMasterControl
                0x00007aa0        0x4 .pio/build/lptm4c1294ncpdt/src/Drivers/soc/driverlib/i2c.o
                0x00007aa0                I2CMasterControl
 .text.I2CMasterErr
                0x00007aa4       0x16 .pio/build/lptm4c1294ncpdt/src/Drivers/soc/driverlib/i2c.o
                0x00007aa4                I2CMasterErr
 .text.I2CMasterDataPut
                0x00007aba        0x4 .pio/build/lptm4c1294ncpdt/src/Drivers/soc/driverlib/i2c.o
                0x00007aba                I2CMasterDataPut
 .text.I2CMasterDataGet
                0x00007abe        0x4 .pio/build/lptm4c1294ncpdt/src/Drivers/soc/driverlib/i2c.o
                0x00007abe                I2CMasterDataGet
 .text.I2CMasterTimeoutSet
                0x00007ac2        0x4 .pio/build/lptm4c1294ncpdt/src/Drivers/soc/driverlib/i2c.o
                0x00007ac2                I2CMasterTimeoutSet
 .text.I2CSlaveACKOverride
                0x00007ac6       0x16 .pio/build/lptm4c1294ncpdt/src/Drivers/soc/driverlib/i2c.o
                0x00007ac6                I2CSlaveACKOverride
 .text.I2CSlaveACKValueSet
                0x00007adc       0x16 .pio/build/lptm4c1294ncpdt/src/Drivers/soc/driverlib/i2c.o
                0x00007adc                I2CSlaveACKValueSet
 .text.I2CSlaveStatus
                0x00007af2        0x6 .pio/build/lptm4c1294ncpdt/src/Drivers/soc/driverlib/i2c.o
                0x00007af2                I2CSlaveStatus
 .text.I2CSlaveDataPut
                0x00007af8        0x6 .pio/build/lptm4c1294ncpdt/src/Drivers/soc/driverlib/i2c.o
                0x00007af8                I2CSlaveDataPut
 .text.I2CSlaveDataGet
                0x00007afe        0x6 .pio/build/lptm4c1294ncpdt/src/Drivers/soc/driverlib/i2c.o
                0x00007afe                I2CSlaveDataGet
 .text.I2CTxFIFOConfigSet
                0x00007b04       0x18 .pio/build/lptm4c1294ncpdt/src/Drivers/soc/driverlib/i2c.o
                0x00007b04                I2CTxFIFOConfigSet
 .text.I2CTxFIFOFlush
                0x00007b1c        0xe .pio/build/lptm4c1294ncpdt/src/Drivers/soc/driverlib/i2c.o
                0x00007b1c                I2CTxFIFOFlush
 .text.I2CRxFIFOConfigSet
                0x00007b2a       0x16 .pio/build/lptm4c1294ncpdt/src/Drivers/soc/driverlib/i2c.o
                0x00007b2a                I2CRxFIFOConfigSet
 .text.I2CRxFIFOFlush
                0x00007b40        0xe .pio/build/lptm4c1294ncpdt/src/Drivers/soc/driverlib/i2c.o
                0x00007b40                I2CRxFIFOFlush
 .text.I2CFIFOStatus
                0x00007b4e        0x6 .pio/build/lptm4c1294ncpdt/src/Drivers/soc/driverlib/i2c.o
                0x00007b4e                I2CFIFOStatus
 .text.I2CFIFODataPut
                0x00007b54        0xe .pio/build/lptm4c1294ncpdt/src/Drivers/soc/driverlib/i2c.o
                0x00007b54                I2CFIFODataPut
 .text.I2CFIFODataPutNonBlocking
                0x00007b62       0x12 .pio/build/lptm4c1294ncpdt/src/Drivers/soc/driverlib/i2c.o
                0x00007b62                I2CFIFODataPutNonBlocking
 .text.I2CFIFODataGet
                0x00007b74        0xe .pio/build/lptm4c1294ncpdt/src/Drivers/soc/driverlib/i2c.o
                0x00007b74                I2CFIFODataGet
 .text.I2CFIFODataGetNonBlocking
                0x00007b82       0x14 .pio/build/lptm4c1294ncpdt/src/Drivers/soc/driverlib/i2c.o
                0x00007b82                I2CFIFODataGetNonBlocking
 .text.I2CMasterBurstLengthSet
                0x00007b96        0x4 .pio/build/lptm4c1294ncpdt/src/Drivers/soc/driverlib/i2c.o
                0x00007b96                I2CMasterBurstLengthSet
 .text.I2CMasterBurstCountGet
                0x00007b9a        0x4 .pio/build/lptm4c1294ncpdt/src/Drivers/soc/driverlib/i2c.o
                0x00007b9a                I2CMasterBurstCountGet
 *fill*         0x00007b9e        0x2 
 .text.I2CMasterGlitchFilterConfigSet
                0x00007ba0       0x44 .pio/build/lptm4c1294ncpdt/src/Drivers/soc/driverlib/i2c.o
                0x00007ba0                I2CMasterGlitchFilterConfigSet
 .text.I2CSlaveFIFOEnable
                0x00007be4        0xa .pio/build/lptm4c1294ncpdt/src/Drivers/soc/driverlib/i2c.o
                0x00007be4                I2CSlaveFIFOEnable
 .text.I2CSlaveFIFODisable
                0x00007bee        0x8 .pio/build/lptm4c1294ncpdt/src/Drivers/soc/driverlib/i2c.o
                0x00007bee                I2CSlaveFIFODisable
 .text.I2CLoopbackEnable
                0x00007bf6        0xa .pio/build/lptm4c1294ncpdt/src/Drivers/soc/driverlib/i2c.o
                0x00007bf6                I2CLoopbackEnable
 .text          0x00007c00        0x0 .pio/build/lptm4c1294ncpdt/src/Drivers/soc/driverlib/interrupt.o
 .text._IntDefaultHandler
                0x00007c00        0x2 .pio/build/lptm4c1294ncpdt/src/Drivers/soc/driverlib/interrupt.o
 .text.IntMasterEnable
                0x00007c02        0xe .pio/build/lptm4c1294ncpdt/src/Drivers/soc/driverlib/interrupt.o
                0x00007c02                IntMasterEnable
 .text.IntMasterDisable
                0x00007c10        0xe .pio/build/lptm4c1294ncpdt/src/Drivers/soc/driverlib/interrupt.o
                0x00007c10                IntMasterDisable
 *fill*         0x00007c1e        0x2 
 .text.IntRegister
                0x00007c20       0x30 .pio/build/lptm4c1294ncpdt/src/Drivers/soc/driverlib/interrupt.o
                0x00007c20                IntRegister
 .text.IntUnregister
                0x00007c50       0x14 .pio/build/lptm4c1294ncpdt/src/Drivers/soc/driverlib/interrupt.o
                0x00007c50                IntUnregister
 .text.IntPriorityGroupingSet
                0x00007c64       0x1c .pio/build/lptm4c1294ncpdt/src/Drivers/soc/driverlib/interrupt.o
                0x00007c64                IntPriorityGroupingSet
 .text.IntPriorityGroupingGet
                0x00007c80       0x24 .pio/build/lptm4c1294ncpdt/src/Drivers/soc/driverlib/interrupt.o
                0x00007c80                IntPriorityGroupingGet
 .text.IntPrioritySet
                0x00007ca4       0x28 .pio/build/lptm4c1294ncpdt/src/Drivers/soc/driverlib/interrupt.o
                0x00007ca4                IntPrioritySet
 .text.IntPriorityGet
                0x00007ccc       0x1c .pio/build/lptm4c1294ncpdt/src/Drivers/soc/driverlib/interrupt.o
                0x00007ccc                IntPriorityGet
 .text.IntEnable
                0x00007ce8       0x60 .pio/build/lptm4c1294ncpdt/src/Drivers/soc/driverlib/interrupt.o
                0x00007ce8                IntEnable
 .text.IntDisable
                0x00007d48       0x60 .pio/build/lptm4c1294ncpdt/src/Drivers/soc/driverlib/interrupt.o
                0x00007d48                IntDisable
 .text.IntIsEnabled
                0x00007da8       0x64 .pio/build/lptm4c1294ncpdt/src/Drivers/soc/driverlib/interrupt.o
                0x00007da8                IntIsEnabled
 .text.IntPendSet
                0x00007e0c       0x50 .pio/build/lptm4c1294ncpdt/src/Drivers/soc/driverlib/interrupt.o
                0x00007e0c                IntPendSet
 .text.IntPendClear
                0x00007e5c       0x40 .pio/build/lptm4c1294ncpdt/src/Drivers/soc/driverlib/interrupt.o
                0x00007e5c                IntPendClear
 .text.IntPriorityMaskSet
                0x00007e9c        0x4 .pio/build/lptm4c1294ncpdt/src/Drivers/soc/driverlib/interrupt.o
                0x00007e9c                IntPriorityMaskSet
 .text.IntPriorityMaskGet
                0x00007ea0        0x4 .pio/build/lptm4c1294ncpdt/src/Drivers/soc/driverlib/interrupt.o
                0x00007ea0                IntPriorityMaskGet
 .text.IntTrigger
                0x00007ea4        0xc .pio/build/lptm4c1294ncpdt/src/Drivers/soc/driverlib/interrupt.o
                0x00007ea4                IntTrigger
 .text          0x00007eb0        0x0 .pio/build/lptm4c1294ncpdt/src/Drivers/soc/driverlib/lcd.o
 .text.LCDModeSet
                0x00007eb0       0x20 .pio/build/lptm4c1294ncpdt/src/Drivers/soc/driverlib/lcd.o
                0x00007eb0                LCDModeSet
 .text.LCDClockReset
                0x00007ed0       0x20 .pio/build/lptm4c1294ncpdt/src/Drivers/soc/driverlib/lcd.o
                0x00007ed0                LCDClockReset
 .text.LCDIDDConfigSet
                0x00007ef0        0x4 .pio/build/lptm4c1294ncpdt/src/Drivers/soc/driverlib/lcd.o
                0x00007ef0                LCDIDDConfigSet
 .text.LCDIDDTimingSet
                0x00007ef4       0x34 .pio/build/lptm4c1294ncpdt/src/Drivers/soc/driverlib/lcd.o
                0x00007ef4                LCDIDDTimingSet
 .text.LCDIDDDMADisable
                0x00007f28        0xa .pio/build/lptm4c1294ncpdt/src/Drivers/soc/driverlib/lcd.o
                0x00007f28                LCDIDDDMADisable
 .text.LCDIDDCommandWrite
                0x00007f32        0xc .pio/build/lptm4c1294ncpdt/src/Drivers/soc/driverlib/lcd.o
                0x00007f32                LCDIDDCommandWrite
 .text.LCDIDDDataWrite
                0x00007f3e        0xc .pio/build/lptm4c1294ncpdt/src/Drivers/soc/driverlib/lcd.o
                0x00007f3e                LCDIDDDataWrite
 .text.LCDIDDIndexedWrite
                0x00007f4a       0x14 .pio/build/lptm4c1294ncpdt/src/Drivers/soc/driverlib/lcd.o
                0x00007f4a                LCDIDDIndexedWrite
 .text.LCDIDDStatusRead
                0x00007f5e        0xe .pio/build/lptm4c1294ncpdt/src/Drivers/soc/driverlib/lcd.o
                0x00007f5e                LCDIDDStatusRead
 .text.LCDIDDDataRead
                0x00007f6c        0xe .pio/build/lptm4c1294ncpdt/src/Drivers/soc/driverlib/lcd.o
                0x00007f6c                LCDIDDDataRead
 .text.LCDIDDIndexedRead
                0x00007f7a       0x16 .pio/build/lptm4c1294ncpdt/src/Drivers/soc/driverlib/lcd.o
                0x00007f7a                LCDIDDIndexedRead
 .text.LCDIDDDMAWrite
                0x00007f90       0x2e .pio/build/lptm4c1294ncpdt/src/Drivers/soc/driverlib/lcd.o
                0x00007f90                LCDIDDDMAWrite
 .text.LCDRasterConfigSet
                0x00007fbe        0x8 .pio/build/lptm4c1294ncpdt/src/Drivers/soc/driverlib/lcd.o
                0x00007fbe                LCDRasterConfigSet
 .text.LCDRasterTimingSet
                0x00007fc6       0x92 .pio/build/lptm4c1294ncpdt/src/Drivers/soc/driverlib/lcd.o
                0x00007fc6                LCDRasterTimingSet
 .text.LCDRasterACBiasIntCountSet
                0x00008058       0x12 .pio/build/lptm4c1294ncpdt/src/Drivers/soc/driverlib/lcd.o
                0x00008058                LCDRasterACBiasIntCountSet
 .text.LCDRasterEnable
                0x0000806a       0x14 .pio/build/lptm4c1294ncpdt/src/Drivers/soc/driverlib/lcd.o
                0x0000806a                LCDRasterEnable
 .text.LCDRasterEnabled
                0x0000807e        0x8 .pio/build/lptm4c1294ncpdt/src/Drivers/soc/driverlib/lcd.o
                0x0000807e                LCDRasterEnabled
 .text.LCDRasterDisable
                0x00008086        0xa .pio/build/lptm4c1294ncpdt/src/Drivers/soc/driverlib/lcd.o
                0x00008086                LCDRasterDisable
 .text.LCDRasterSubPanelConfigSet
                0x00008090       0x30 .pio/build/lptm4c1294ncpdt/src/Drivers/soc/driverlib/lcd.o
                0x00008090                LCDRasterSubPanelConfigSet
 .text.LCDRasterSubPanelEnable
                0x000080c0        0xa .pio/build/lptm4c1294ncpdt/src/Drivers/soc/driverlib/lcd.o
                0x000080c0                LCDRasterSubPanelEnable
 .text.LCDRasterSubPanelDisable
                0x000080ca        0xa .pio/build/lptm4c1294ncpdt/src/Drivers/soc/driverlib/lcd.o
                0x000080ca                LCDRasterSubPanelDisable
 .text.LCDDMAConfigSet
                0x000080d4        0x4 .pio/build/lptm4c1294ncpdt/src/Drivers/soc/driverlib/lcd.o
                0x000080d4                LCDDMAConfigSet
 .text.LCDRasterPaletteSet
                0x000080d8       0x58 .pio/build/lptm4c1294ncpdt/src/Drivers/soc/driverlib/lcd.o
                0x000080d8                LCDRasterPaletteSet
 .text.LCDRasterFrameBufferSet
                0x00008130       0x14 .pio/build/lptm4c1294ncpdt/src/Drivers/soc/driverlib/lcd.o
                0x00008130                LCDRasterFrameBufferSet
 .text.LCDIntEnable
                0x00008144        0x4 .pio/build/lptm4c1294ncpdt/src/Drivers/soc/driverlib/lcd.o
                0x00008144                LCDIntEnable
 .text.LCDIntDisable
                0x00008148        0x4 .pio/build/lptm4c1294ncpdt/src/Drivers/soc/driverlib/lcd.o
                0x00008148                LCDIntDisable
 .text.LCDIntStatus
                0x0000814c        0xa .pio/build/lptm4c1294ncpdt/src/Drivers/soc/driverlib/lcd.o
                0x0000814c                LCDIntStatus
 .text.LCDIntClear
                0x00008156        0x4 .pio/build/lptm4c1294ncpdt/src/Drivers/soc/driverlib/lcd.o
                0x00008156                LCDIntClear
 .text.LCDIntRegister
                0x0000815a       0x12 .pio/build/lptm4c1294ncpdt/src/Drivers/soc/driverlib/lcd.o
                0x0000815a                LCDIntRegister
 .text.LCDIntUnregister
                0x0000816c       0x12 .pio/build/lptm4c1294ncpdt/src/Drivers/soc/driverlib/lcd.o
                0x0000816c                LCDIntUnregister
 .text          0x0000817e        0x0 .pio/build/lptm4c1294ncpdt/src/Drivers/soc/driverlib/mpu.o
 *fill*         0x0000817e        0x2 
 .text.MPUEnable
                0x00008180       0x10 .pio/build/lptm4c1294ncpdt/src/Drivers/soc/driverlib/mpu.o
                0x00008180                MPUEnable
 .text.MPUDisable
                0x00008190       0x10 .pio/build/lptm4c1294ncpdt/src/Drivers/soc/driverlib/mpu.o
                0x00008190                MPUDisable
 .text.MPURegionCountGet
                0x000081a0       0x10 .pio/build/lptm4c1294ncpdt/src/Drivers/soc/driverlib/mpu.o
                0x000081a0                MPURegionCountGet
 .text.MPURegionEnable
                0x000081b0       0x14 .pio/build/lptm4c1294ncpdt/src/Drivers/soc/driverlib/mpu.o
                0x000081b0                MPURegionEnable
 .text.MPURegionDisable
                0x000081c4       0x14 .pio/build/lptm4c1294ncpdt/src/Drivers/soc/driverlib/mpu.o
                0x000081c4                MPURegionDisable
 .text.MPURegionSet
                0x000081d8       0x1c .pio/build/lptm4c1294ncpdt/src/Drivers/soc/driverlib/mpu.o
                0x000081d8                MPURegionSet
 .text.MPURegionGet
                0x000081f4       0x20 .pio/build/lptm4c1294ncpdt/src/Drivers/soc/driverlib/mpu.o
                0x000081f4                MPURegionGet
 .text.MPUIntRegister
                0x00008214       0x14 .pio/build/lptm4c1294ncpdt/src/Drivers/soc/driverlib/mpu.o
                0x00008214                MPUIntRegister
 .text.MPUIntUnregister
                0x00008228       0x12 .pio/build/lptm4c1294ncpdt/src/Drivers/soc/driverlib/mpu.o
                0x00008228                MPUIntUnregister
 .text          0x0000823a        0x0 .pio/build/lptm4c1294ncpdt/src/Drivers/soc/driverlib/onewire.o
 .text.OneWireInit
                0x0000823a        0x4 .pio/build/lptm4c1294ncpdt/src/Drivers/soc/driverlib/onewire.o
                0x0000823a                OneWireInit
 .text.OneWireBusReset
                0x0000823e        0xa .pio/build/lptm4c1294ncpdt/src/Drivers/soc/driverlib/onewire.o
                0x0000823e                OneWireBusReset
 .text.OneWireBusStatus
                0x00008248        0x8 .pio/build/lptm4c1294ncpdt/src/Drivers/soc/driverlib/onewire.o
                0x00008248                OneWireBusStatus
 .text.OneWireDataGet
                0x00008250        0xc .pio/build/lptm4c1294ncpdt/src/Drivers/soc/driverlib/onewire.o
                0x00008250                OneWireDataGet
 .text.OneWireDataGetNonBlocking
                0x0000825c       0x10 .pio/build/lptm4c1294ncpdt/src/Drivers/soc/driverlib/onewire.o
                0x0000825c                OneWireDataGetNonBlocking
 .text.OneWireIntClear
                0x0000826c        0x6 .pio/build/lptm4c1294ncpdt/src/Drivers/soc/driverlib/onewire.o
                0x0000826c                OneWireIntClear
 .text.OneWireIntDisable
                0x00008272        0xe .pio/build/lptm4c1294ncpdt/src/Drivers/soc/driverlib/onewire.o
                0x00008272                OneWireIntDisable
 .text.OneWireIntEnable
                0x00008280        0xc .pio/build/lptm4c1294ncpdt/src/Drivers/soc/driverlib/onewire.o
                0x00008280                OneWireIntEnable
 .text.OneWireIntStatus
                0x0000828c        0xe .pio/build/lptm4c1294ncpdt/src/Drivers/soc/driverlib/onewire.o
                0x0000828c                OneWireIntStatus
 *fill*         0x0000829a        0x2 
 .text.OneWireIntRegister
                0x0000829c       0x30 .pio/build/lptm4c1294ncpdt/src/Drivers/soc/driverlib/onewire.o
                0x0000829c                OneWireIntRegister
 .text.OneWireIntUnregister
                0x000082cc       0x30 .pio/build/lptm4c1294ncpdt/src/Drivers/soc/driverlib/onewire.o
                0x000082cc                OneWireIntUnregister
 .text.OneWireDMADisable
                0x000082fc       0x1c .pio/build/lptm4c1294ncpdt/src/Drivers/soc/driverlib/onewire.o
                0x000082fc                OneWireDMADisable
 .text.OneWireDMAEnable
                0x00008318       0x50 .pio/build/lptm4c1294ncpdt/src/Drivers/soc/driverlib/onewire.o
                0x00008318                OneWireDMAEnable
 .text.OneWireTransaction
                0x00008368       0x38 .pio/build/lptm4c1294ncpdt/src/Drivers/soc/driverlib/onewire.o
                0x00008368                OneWireTransaction
 .text          0x000083a0        0x0 .pio/build/lptm4c1294ncpdt/src/Drivers/soc/driverlib/pwm.o
 .text._PWMGenIntNumberGet
                0x000083a0      0x108 .pio/build/lptm4c1294ncpdt/src/Drivers/soc/driverlib/pwm.o
 .text._PWMFaultIntNumberGet
                0x000084a8       0x4c .pio/build/lptm4c1294ncpdt/src/Drivers/soc/driverlib/pwm.o
 .text.PWMGenConfigure
                0x000084f4       0x30 .pio/build/lptm4c1294ncpdt/src/Drivers/soc/driverlib/pwm.o
                0x000084f4                PWMGenConfigure
 .text.PWMGenPeriodSet
                0x00008524       0x12 .pio/build/lptm4c1294ncpdt/src/Drivers/soc/driverlib/pwm.o
                0x00008524                PWMGenPeriodSet
 .text.PWMGenPeriodGet
                0x00008536       0x10 .pio/build/lptm4c1294ncpdt/src/Drivers/soc/driverlib/pwm.o
                0x00008536                PWMGenPeriodGet
 .text.PWMGenEnable
                0x00008546        0xa .pio/build/lptm4c1294ncpdt/src/Drivers/soc/driverlib/pwm.o
                0x00008546                PWMGenEnable
 .text.PWMGenDisable
                0x00008550        0xa .pio/build/lptm4c1294ncpdt/src/Drivers/soc/driverlib/pwm.o
                0x00008550                PWMGenDisable
 .text.PWMPulseWidthSet
                0x0000855a       0x1e .pio/build/lptm4c1294ncpdt/src/Drivers/soc/driverlib/pwm.o
                0x0000855a                PWMPulseWidthSet
 .text.PWMPulseWidthGet
                0x00008578       0x20 .pio/build/lptm4c1294ncpdt/src/Drivers/soc/driverlib/pwm.o
                0x00008578                PWMPulseWidthGet
 .text.PWMDeadBandEnable
                0x00008598       0x10 .pio/build/lptm4c1294ncpdt/src/Drivers/soc/driverlib/pwm.o
                0x00008598                PWMDeadBandEnable
 .text.PWMDeadBandDisable
                0x000085a8        0xc .pio/build/lptm4c1294ncpdt/src/Drivers/soc/driverlib/pwm.o
                0x000085a8                PWMDeadBandDisable
 .text.PWMSyncUpdate
                0x000085b4        0x4 .pio/build/lptm4c1294ncpdt/src/Drivers/soc/driverlib/pwm.o
                0x000085b4                PWMSyncUpdate
 .text.PWMSyncTimeBase
                0x000085b8        0x4 .pio/build/lptm4c1294ncpdt/src/Drivers/soc/driverlib/pwm.o
                0x000085b8                PWMSyncTimeBase
 .text.PWMOutputState
                0x000085bc       0x10 .pio/build/lptm4c1294ncpdt/src/Drivers/soc/driverlib/pwm.o
                0x000085bc                PWMOutputState
 .text.PWMOutputInvert
                0x000085cc       0x10 .pio/build/lptm4c1294ncpdt/src/Drivers/soc/driverlib/pwm.o
                0x000085cc                PWMOutputInvert
 .text.PWMOutputFaultLevel
                0x000085dc       0x10 .pio/build/lptm4c1294ncpdt/src/Drivers/soc/driverlib/pwm.o
                0x000085dc                PWMOutputFaultLevel
 .text.PWMOutputFault
                0x000085ec       0x10 .pio/build/lptm4c1294ncpdt/src/Drivers/soc/driverlib/pwm.o
                0x000085ec                PWMOutputFault
 .text.PWMGenIntRegister
                0x000085fc       0x1a .pio/build/lptm4c1294ncpdt/src/Drivers/soc/driverlib/pwm.o
                0x000085fc                PWMGenIntRegister
 .text.PWMGenIntUnregister
                0x00008616       0x16 .pio/build/lptm4c1294ncpdt/src/Drivers/soc/driverlib/pwm.o
                0x00008616                PWMGenIntUnregister
 .text.PWMFaultIntRegister
                0x0000862c       0x1a .pio/build/lptm4c1294ncpdt/src/Drivers/soc/driverlib/pwm.o
                0x0000862c                PWMFaultIntRegister
 .text.PWMFaultIntUnregister
                0x00008646       0x16 .pio/build/lptm4c1294ncpdt/src/Drivers/soc/driverlib/pwm.o
                0x00008646                PWMFaultIntUnregister
 .text.PWMGenIntTrigEnable
                0x0000865c        0xa .pio/build/lptm4c1294ncpdt/src/Drivers/soc/driverlib/pwm.o
                0x0000865c                PWMGenIntTrigEnable
 .text.PWMGenIntTrigDisable
                0x00008666        0xc .pio/build/lptm4c1294ncpdt/src/Drivers/soc/driverlib/pwm.o
                0x00008666                PWMGenIntTrigDisable
 .text.PWMGenIntStatus
                0x00008672        0xc .pio/build/lptm4c1294ncpdt/src/Drivers/soc/driverlib/pwm.o
                0x00008672                PWMGenIntStatus
 .text.PWMGenIntClear
                0x0000867e        0x6 .pio/build/lptm4c1294ncpdt/src/Drivers/soc/driverlib/pwm.o
                0x0000867e                PWMGenIntClear
 .text.PWMIntEnable
                0x00008684        0x8 .pio/build/lptm4c1294ncpdt/src/Drivers/soc/driverlib/pwm.o
                0x00008684                PWMIntEnable
 .text.PWMIntDisable
                0x0000868c        0xa .pio/build/lptm4c1294ncpdt/src/Drivers/soc/driverlib/pwm.o
                0x0000868c                PWMIntDisable
 .text.PWMFaultIntClear
                0x00008696        0x8 .pio/build/lptm4c1294ncpdt/src/Drivers/soc/driverlib/pwm.o
                0x00008696                PWMFaultIntClear
 .text.PWMIntStatus
                0x0000869e        0xa .pio/build/lptm4c1294ncpdt/src/Drivers/soc/driverlib/pwm.o
                0x0000869e                PWMIntStatus
 .text.PWMFaultIntClearExt
                0x000086a8        0x4 .pio/build/lptm4c1294ncpdt/src/Drivers/soc/driverlib/pwm.o
                0x000086a8                PWMFaultIntClearExt
 .text.PWMGenFaultConfigure
                0x000086ac       0x18 .pio/build/lptm4c1294ncpdt/src/Drivers/soc/driverlib/pwm.o
                0x000086ac                PWMGenFaultConfigure
 .text.PWMGenFaultTriggerSet
                0x000086c4        0xc .pio/build/lptm4c1294ncpdt/src/Drivers/soc/driverlib/pwm.o
                0x000086c4                PWMGenFaultTriggerSet
 .text.PWMGenFaultTriggerGet
                0x000086d0        0xc .pio/build/lptm4c1294ncpdt/src/Drivers/soc/driverlib/pwm.o
                0x000086d0                PWMGenFaultTriggerGet
 .text.PWMGenFaultStatus
                0x000086dc       0x18 .pio/build/lptm4c1294ncpdt/src/Drivers/soc/driverlib/pwm.o
                0x000086dc                PWMGenFaultStatus
 .text.PWMGenFaultClear
                0x000086f4       0x18 .pio/build/lptm4c1294ncpdt/src/Drivers/soc/driverlib/pwm.o
                0x000086f4                PWMGenFaultClear
 .text.PWMClockSet
                0x0000870c       0x14 .pio/build/lptm4c1294ncpdt/src/Drivers/soc/driverlib/pwm.o
                0x0000870c                PWMClockSet
 .text.PWMClockGet
                0x00008720       0x18 .pio/build/lptm4c1294ncpdt/src/Drivers/soc/driverlib/pwm.o
                0x00008720                PWMClockGet
 .text.PWMOutputUpdateMode
                0x00008738       0x30 .pio/build/lptm4c1294ncpdt/src/Drivers/soc/driverlib/pwm.o
                0x00008738                PWMOutputUpdateMode
 .text          0x00008768        0x0 .pio/build/lptm4c1294ncpdt/src/Drivers/soc/driverlib/qei.o
 .text._QEIIntNumberGet
                0x00008768       0x4c .pio/build/lptm4c1294ncpdt/src/Drivers/soc/driverlib/qei.o
 .text.QEIEnable
                0x000087b4        0xa .pio/build/lptm4c1294ncpdt/src/Drivers/soc/driverlib/qei.o
                0x000087b4                QEIEnable
 .text.QEIDisable
                0x000087be        0xa .pio/build/lptm4c1294ncpdt/src/Drivers/soc/driverlib/qei.o
                0x000087be                QEIDisable
 .text.QEIConfigure
                0x000087c8        0xe .pio/build/lptm4c1294ncpdt/src/Drivers/soc/driverlib/qei.o
                0x000087c8                QEIConfigure
 .text.QEIPositionGet
                0x000087d6        0x4 .pio/build/lptm4c1294ncpdt/src/Drivers/soc/driverlib/qei.o
                0x000087d6                QEIPositionGet
 .text.QEIPositionSet
                0x000087da        0x4 .pio/build/lptm4c1294ncpdt/src/Drivers/soc/driverlib/qei.o
                0x000087da                QEIPositionSet
 .text.QEIDirectionGet
                0x000087de       0x10 .pio/build/lptm4c1294ncpdt/src/Drivers/soc/driverlib/qei.o
                0x000087de                QEIDirectionGet
 .text.QEIErrorGet
                0x000087ee        0x8 .pio/build/lptm4c1294ncpdt/src/Drivers/soc/driverlib/qei.o
                0x000087ee                QEIErrorGet
 .text.QEIFilterEnable
                0x000087f6        0xa .pio/build/lptm4c1294ncpdt/src/Drivers/soc/driverlib/qei.o
                0x000087f6                QEIFilterEnable
 .text.QEIFilterDisable
                0x00008800        0xa .pio/build/lptm4c1294ncpdt/src/Drivers/soc/driverlib/qei.o
                0x00008800                QEIFilterDisable
 .text.QEIFilterConfigure
                0x0000880a        0xc .pio/build/lptm4c1294ncpdt/src/Drivers/soc/driverlib/qei.o
                0x0000880a                QEIFilterConfigure
 .text.QEIVelocityEnable
                0x00008816        0xa .pio/build/lptm4c1294ncpdt/src/Drivers/soc/driverlib/qei.o
                0x00008816                QEIVelocityEnable
 .text.QEIVelocityDisable
                0x00008820        0xa .pio/build/lptm4c1294ncpdt/src/Drivers/soc/driverlib/qei.o
                0x00008820                QEIVelocityDisable
 .text.QEIVelocityConfigure
                0x0000882a       0x10 .pio/build/lptm4c1294ncpdt/src/Drivers/soc/driverlib/qei.o
                0x0000882a                QEIVelocityConfigure
 .text.QEIVelocityGet
                0x0000883a        0x4 .pio/build/lptm4c1294ncpdt/src/Drivers/soc/driverlib/qei.o
                0x0000883a                QEIVelocityGet
 .text.QEIIntRegister
                0x0000883e       0x1a .pio/build/lptm4c1294ncpdt/src/Drivers/soc/driverlib/qei.o
                0x0000883e                QEIIntRegister
 .text.QEIIntUnregister
                0x00008858       0x16 .pio/build/lptm4c1294ncpdt/src/Drivers/soc/driverlib/qei.o
                0x00008858                QEIIntUnregister
 .text.QEIIntEnable
                0x0000886e        0x8 .pio/build/lptm4c1294ncpdt/src/Drivers/soc/driverlib/qei.o
                0x0000886e                QEIIntEnable
 .text.QEIIntDisable
                0x00008876        0xa .pio/build/lptm4c1294ncpdt/src/Drivers/soc/driverlib/qei.o
                0x00008876                QEIIntDisable
 .text.QEIIntStatus
                0x00008880        0xa .pio/build/lptm4c1294ncpdt/src/Drivers/soc/driverlib/qei.o
                0x00008880                QEIIntStatus
 .text.QEIIntClear
                0x0000888a        0x4 .pio/build/lptm4c1294ncpdt/src/Drivers/soc/driverlib/qei.o
                0x0000888a                QEIIntClear
 .text          0x0000888e        0x0 .pio/build/lptm4c1294ncpdt/src/Drivers/soc/driverlib/shamd5.o
 .text.SHAMD5Reset
                0x0000888e       0x22 .pio/build/lptm4c1294ncpdt/src/Drivers/soc/driverlib/shamd5.o
                0x0000888e                SHAMD5Reset
 .text.SHAMD5DMAEnable
                0x000088b0        0xe .pio/build/lptm4c1294ncpdt/src/Drivers/soc/driverlib/shamd5.o
                0x000088b0                SHAMD5DMAEnable
 .text.SHAMD5DMADisable
                0x000088be        0xe .pio/build/lptm4c1294ncpdt/src/Drivers/soc/driverlib/shamd5.o
                0x000088be                SHAMD5DMADisable
 .text.SHAMD5IntStatus
                0x000088cc       0x4e .pio/build/lptm4c1294ncpdt/src/Drivers/soc/driverlib/shamd5.o
                0x000088cc                SHAMD5IntStatus
 .text.SHAMD5IntEnable
                0x0000891a       0x38 .pio/build/lptm4c1294ncpdt/src/Drivers/soc/driverlib/shamd5.o
                0x0000891a                SHAMD5IntEnable
 .text.SHAMD5IntDisable
                0x00008952       0x42 .pio/build/lptm4c1294ncpdt/src/Drivers/soc/driverlib/shamd5.o
                0x00008952                SHAMD5IntDisable
 .text.SHAMD5IntClear
                0x00008994       0x18 .pio/build/lptm4c1294ncpdt/src/Drivers/soc/driverlib/shamd5.o
                0x00008994                SHAMD5IntClear
 .text.SHAMD5IntRegister
                0x000089ac       0x12 .pio/build/lptm4c1294ncpdt/src/Drivers/soc/driverlib/shamd5.o
                0x000089ac                SHAMD5IntRegister
 .text.SHAMD5IntUnregister
                0x000089be       0x12 .pio/build/lptm4c1294ncpdt/src/Drivers/soc/driverlib/shamd5.o
                0x000089be                SHAMD5IntUnregister
 .text.SHAMD5HashLengthSet
                0x000089d0        0x4 .pio/build/lptm4c1294ncpdt/src/Drivers/soc/driverlib/shamd5.o
                0x000089d0                SHAMD5HashLengthSet
 .text.SHAMD5ConfigSet
                0x000089d4        0x4 .pio/build/lptm4c1294ncpdt/src/Drivers/soc/driverlib/shamd5.o
                0x000089d4                SHAMD5ConfigSet
 .text.SHAMD5DataWriteNonBlocking
                0x000089d8       0x2e .pio/build/lptm4c1294ncpdt/src/Drivers/soc/driverlib/shamd5.o
                0x000089d8                SHAMD5DataWriteNonBlocking
 .text.SHAMD5DataWrite
                0x00008a06       0x24 .pio/build/lptm4c1294ncpdt/src/Drivers/soc/driverlib/shamd5.o
                0x00008a06                SHAMD5DataWrite
 .text._SHAMD5DataWriteMultiple
                0x00008a2a       0x44 .pio/build/lptm4c1294ncpdt/src/Drivers/soc/driverlib/shamd5.o
 .text.SHAMD5ResultRead
                0x00008a6e       0x38 .pio/build/lptm4c1294ncpdt/src/Drivers/soc/driverlib/shamd5.o
                0x00008a6e                SHAMD5ResultRead
 .text.SHAMD5DataProcess
                0x00008aa6       0x2c .pio/build/lptm4c1294ncpdt/src/Drivers/soc/driverlib/shamd5.o
                0x00008aa6                SHAMD5DataProcess
 .text.SHAMD5HMACProcess
                0x00008ad2       0x2c .pio/build/lptm4c1294ncpdt/src/Drivers/soc/driverlib/shamd5.o
                0x00008ad2                SHAMD5HMACProcess
 .text.SHAMD5HMACPPKeyGenerate
                0x00008afe       0x3a .pio/build/lptm4c1294ncpdt/src/Drivers/soc/driverlib/shamd5.o
                0x00008afe                SHAMD5HMACPPKeyGenerate
 .text.SHAMD5HMACKeySet
                0x00008b38       0x16 .pio/build/lptm4c1294ncpdt/src/Drivers/soc/driverlib/shamd5.o
                0x00008b38                SHAMD5HMACKeySet
 .text.SHAMD5HMACPPKeySet
                0x00008b4e       0x18 .pio/build/lptm4c1294ncpdt/src/Drivers/soc/driverlib/shamd5.o
                0x00008b4e                SHAMD5HMACPPKeySet
 .text          0x00008b66        0x0 .pio/build/lptm4c1294ncpdt/src/Drivers/soc/driverlib/ssi.o
 *fill*         0x00008b66        0x2 
 .text._SSIIntNumberGet
                0x00008b68       0x44 .pio/build/lptm4c1294ncpdt/src/Drivers/soc/driverlib/ssi.o
 .text.SSIConfigSetExpClk
                0x00008bac       0x3a .pio/build/lptm4c1294ncpdt/src/Drivers/soc/driverlib/ssi.o
                0x00008bac                SSIConfigSetExpClk
 .text.SSIEnable
                0x00008be6        0xa .pio/build/lptm4c1294ncpdt/src/Drivers/soc/driverlib/ssi.o
                0x00008be6                SSIEnable
 .text.SSIDisable
                0x00008bf0        0xa .pio/build/lptm4c1294ncpdt/src/Drivers/soc/driverlib/ssi.o
                0x00008bf0                SSIDisable
 .text.SSIIntRegister
                0x00008bfa       0x1a .pio/build/lptm4c1294ncpdt/src/Drivers/soc/driverlib/ssi.o
                0x00008bfa                SSIIntRegister
 .text.SSIIntUnregister
                0x00008c14       0x16 .pio/build/lptm4c1294ncpdt/src/Drivers/soc/driverlib/ssi.o
                0x00008c14                SSIIntUnregister
 .text.SSIIntEnable
                0x00008c2a        0x8 .pio/build/lptm4c1294ncpdt/src/Drivers/soc/driverlib/ssi.o
                0x00008c2a                SSIIntEnable
 .text.SSIIntDisable
                0x00008c32        0xa .pio/build/lptm4c1294ncpdt/src/Drivers/soc/driverlib/ssi.o
                0x00008c32                SSIIntDisable
 .text.SSIIntStatus
                0x00008c3c        0xa .pio/build/lptm4c1294ncpdt/src/Drivers/soc/driverlib/ssi.o
                0x00008c3c                SSIIntStatus
 .text.SSIIntClear
                0x00008c46        0x4 .pio/build/lptm4c1294ncpdt/src/Drivers/soc/driverlib/ssi.o
                0x00008c46                SSIIntClear
 .text.SSIDataPut
                0x00008c4a        0xa .pio/build/lptm4c1294ncpdt/src/Drivers/soc/driverlib/ssi.o
                0x00008c4a                SSIDataPut
 .text.SSIDataPutNonBlocking
                0x00008c54       0x10 .pio/build/lptm4c1294ncpdt/src/Drivers/soc/driverlib/ssi.o
                0x00008c54                SSIDataPutNonBlocking
 .text.SSIDataGet
                0x00008c64        0xc .pio/build/lptm4c1294ncpdt/src/Drivers/soc/driverlib/ssi.o
                0x00008c64                SSIDataGet
 .text.SSIDataGetNonBlocking
                0x00008c70       0x12 .pio/build/lptm4c1294ncpdt/src/Drivers/soc/driverlib/ssi.o
                0x00008c70                SSIDataGetNonBlocking
 .text.SSIDMAEnable
                0x00008c82        0x8 .pio/build/lptm4c1294ncpdt/src/Drivers/soc/driverlib/ssi.o
                0x00008c82                SSIDMAEnable
 .text.SSIDMADisable
                0x00008c8a        0xa .pio/build/lptm4c1294ncpdt/src/Drivers/soc/driverlib/ssi.o
                0x00008c8a                SSIDMADisable
 .text.SSIBusy  0x00008c94        0x8 .pio/build/lptm4c1294ncpdt/src/Drivers/soc/driverlib/ssi.o
                0x00008c94                SSIBusy
 .text.SSIClockSourceSet
                0x00008c9c        0x6 .pio/build/lptm4c1294ncpdt/src/Drivers/soc/driverlib/ssi.o
                0x00008c9c                SSIClockSourceSet
 .text.SSIClockSourceGet
                0x00008ca2        0x6 .pio/build/lptm4c1294ncpdt/src/Drivers/soc/driverlib/ssi.o
                0x00008ca2                SSIClockSourceGet
 .text.SSIAdvModeSet
                0x00008ca8        0xc .pio/build/lptm4c1294ncpdt/src/Drivers/soc/driverlib/ssi.o
                0x00008ca8                SSIAdvModeSet
 .text.SSIAdvDataPutFrameEnd
                0x00008cb4       0x12 .pio/build/lptm4c1294ncpdt/src/Drivers/soc/driverlib/ssi.o
                0x00008cb4                SSIAdvDataPutFrameEnd
 .text.SSIAdvDataPutFrameEndNonBlocking
                0x00008cc6       0x1a .pio/build/lptm4c1294ncpdt/src/Drivers/soc/driverlib/ssi.o
                0x00008cc6                SSIAdvDataPutFrameEndNonBlocking
 .text.SSIAdvFrameHoldEnable
                0x00008ce0        0xa .pio/build/lptm4c1294ncpdt/src/Drivers/soc/driverlib/ssi.o
                0x00008ce0                SSIAdvFrameHoldEnable
 .text.SSIAdvFrameHoldDisable
                0x00008cea        0xa .pio/build/lptm4c1294ncpdt/src/Drivers/soc/driverlib/ssi.o
                0x00008cea                SSIAdvFrameHoldDisable
 .text.SSILoopbackEnable
                0x00008cf4        0xa .pio/build/lptm4c1294ncpdt/src/Drivers/soc/driverlib/ssi.o
                0x00008cf4                SSILoopbackEnable
 .text.SSILoopbackDisable
                0x00008cfe        0xa .pio/build/lptm4c1294ncpdt/src/Drivers/soc/driverlib/ssi.o
                0x00008cfe                SSILoopbackDisable
 .text          0x00008d08        0x0 .pio/build/lptm4c1294ncpdt/src/Drivers/soc/driverlib/sw_crc.o
 .text.Crc8CCITT
                0x00008d08       0x90 .pio/build/lptm4c1294ncpdt/src/Drivers/soc/driverlib/sw_crc.o
                0x00008d08                Crc8CCITT
 .text.Crc16    0x00008d98       0xdc .pio/build/lptm4c1294ncpdt/src/Drivers/soc/driverlib/sw_crc.o
                0x00008d98                Crc16
 .text.Crc16Array
                0x00008e74        0x8 .pio/build/lptm4c1294ncpdt/src/Drivers/soc/driverlib/sw_crc.o
                0x00008e74                Crc16Array
 .text.Crc16Array3
                0x00008e7c       0xb0 .pio/build/lptm4c1294ncpdt/src/Drivers/soc/driverlib/sw_crc.o
                0x00008e7c                Crc16Array3
 .text.Crc32    0x00008f2c       0xdc .pio/build/lptm4c1294ncpdt/src/Drivers/soc/driverlib/sw_crc.o
                0x00008f2c                Crc32
 .text          0x00009008        0x0 .pio/build/lptm4c1294ncpdt/src/Drivers/soc/driverlib/sysctl.o
 .text._SysCtlMemTimingGet
                0x00009008       0x28 .pio/build/lptm4c1294ncpdt/src/Drivers/soc/driverlib/sysctl.o
 .text.SysCtlSRAMSizeGet
                0x00009030       0x10 .pio/build/lptm4c1294ncpdt/src/Drivers/soc/driverlib/sysctl.o
                0x00009030                SysCtlSRAMSizeGet
 .text.SysCtlFlashSizeGet
                0x00009040       0x3c .pio/build/lptm4c1294ncpdt/src/Drivers/soc/driverlib/sysctl.o
                0x00009040                SysCtlFlashSizeGet
 .text.SysCtlFlashSectorSizeGet
                0x0000907c       0x38 .pio/build/lptm4c1294ncpdt/src/Drivers/soc/driverlib/sysctl.o
                0x0000907c                SysCtlFlashSectorSizeGet
 .text.SysCtlPeripheralPresent
                0x000090b4       0x28 .pio/build/lptm4c1294ncpdt/src/Drivers/soc/driverlib/sysctl.o
                0x000090b4                SysCtlPeripheralPresent
 .text.SysCtlPeripheralReady
                0x000090dc       0x28 .pio/build/lptm4c1294ncpdt/src/Drivers/soc/driverlib/sysctl.o
                0x000090dc                SysCtlPeripheralReady
 .text.SysCtlPeripheralPowerOn
                0x00009104       0x24 .pio/build/lptm4c1294ncpdt/src/Drivers/soc/driverlib/sysctl.o
                0x00009104                SysCtlPeripheralPowerOn
 .text.SysCtlPeripheralPowerOff
                0x00009128       0x24 .pio/build/lptm4c1294ncpdt/src/Drivers/soc/driverlib/sysctl.o
                0x00009128                SysCtlPeripheralPowerOff
 .text.SysCtlPeripheralReset
                0x0000914c       0x3c .pio/build/lptm4c1294ncpdt/src/Drivers/soc/driverlib/sysctl.o
                0x0000914c                SysCtlPeripheralReset
 .text.SysCtlPeripheralEnable
                0x00009188       0x24 .pio/build/lptm4c1294ncpdt/src/Drivers/soc/driverlib/sysctl.o
                0x00009188                SysCtlPeripheralEnable
 .text.SysCtlPeripheralDisable
                0x000091ac       0x24 .pio/build/lptm4c1294ncpdt/src/Drivers/soc/driverlib/sysctl.o
                0x000091ac                SysCtlPeripheralDisable
 .text.SysCtlPeripheralSleepEnable
                0x000091d0       0x24 .pio/build/lptm4c1294ncpdt/src/Drivers/soc/driverlib/sysctl.o
                0x000091d0                SysCtlPeripheralSleepEnable
 .text.SysCtlPeripheralSleepDisable
                0x000091f4       0x24 .pio/build/lptm4c1294ncpdt/src/Drivers/soc/driverlib/sysctl.o
                0x000091f4                SysCtlPeripheralSleepDisable
 .text.SysCtlPeripheralDeepSleepEnable
                0x00009218       0x24 .pio/build/lptm4c1294ncpdt/src/Drivers/soc/driverlib/sysctl.o
                0x00009218                SysCtlPeripheralDeepSleepEnable
 .text.SysCtlPeripheralDeepSleepDisable
                0x0000923c       0x24 .pio/build/lptm4c1294ncpdt/src/Drivers/soc/driverlib/sysctl.o
                0x0000923c                SysCtlPeripheralDeepSleepDisable
 .text.SysCtlPeripheralClockGating
                0x00009260       0x48 .pio/build/lptm4c1294ncpdt/src/Drivers/soc/driverlib/sysctl.o
                0x00009260                SysCtlPeripheralClockGating
 .text.SysCtlIntRegister
                0x000092a8       0x14 .pio/build/lptm4c1294ncpdt/src/Drivers/soc/driverlib/sysctl.o
                0x000092a8                SysCtlIntRegister
 .text.SysCtlIntUnregister
                0x000092bc       0x12 .pio/build/lptm4c1294ncpdt/src/Drivers/soc/driverlib/sysctl.o
                0x000092bc                SysCtlIntUnregister
 *fill*         0x000092ce        0x2 
 .text.SysCtlIntEnable
                0x000092d0       0x10 .pio/build/lptm4c1294ncpdt/src/Drivers/soc/driverlib/sysctl.o
                0x000092d0                SysCtlIntEnable
 .text.SysCtlIntDisable
                0x000092e0       0x10 .pio/build/lptm4c1294ncpdt/src/Drivers/soc/driverlib/sysctl.o
                0x000092e0                SysCtlIntDisable
 .text.SysCtlIntClear
                0x000092f0        0xc .pio/build/lptm4c1294ncpdt/src/Drivers/soc/driverlib/sysctl.o
                0x000092f0                SysCtlIntClear
 .text.SysCtlIntStatus
                0x000092fc       0x14 .pio/build/lptm4c1294ncpdt/src/Drivers/soc/driverlib/sysctl.o
                0x000092fc                SysCtlIntStatus
 .text.SysCtlLDOSleepSet
                0x00009310        0xc .pio/build/lptm4c1294ncpdt/src/Drivers/soc/driverlib/sysctl.o
                0x00009310                SysCtlLDOSleepSet
 .text.SysCtlLDOSleepGet
                0x0000931c        0xc .pio/build/lptm4c1294ncpdt/src/Drivers/soc/driverlib/sysctl.o
                0x0000931c                SysCtlLDOSleepGet
 .text.SysCtlLDODeepSleepSet
                0x00009328        0xc .pio/build/lptm4c1294ncpdt/src/Drivers/soc/driverlib/sysctl.o
                0x00009328                SysCtlLDODeepSleepSet
 .text.SysCtlLDODeepSleepGet
                0x00009334        0xc .pio/build/lptm4c1294ncpdt/src/Drivers/soc/driverlib/sysctl.o
                0x00009334                SysCtlLDODeepSleepGet
 .text.SysCtlSleepPowerSet
                0x00009340        0xc .pio/build/lptm4c1294ncpdt/src/Drivers/soc/driverlib/sysctl.o
                0x00009340                SysCtlSleepPowerSet
 .text.SysCtlDeepSleepPowerSet
                0x0000934c        0xc .pio/build/lptm4c1294ncpdt/src/Drivers/soc/driverlib/sysctl.o
                0x0000934c                SysCtlDeepSleepPowerSet
 .text.SysCtlReset
                0x00009358       0x10 .pio/build/lptm4c1294ncpdt/src/Drivers/soc/driverlib/sysctl.o
                0x00009358                SysCtlReset
 .text.SysCtlSleep
                0x00009368        0x4 .pio/build/lptm4c1294ncpdt/src/Drivers/soc/driverlib/sysctl.o
                0x00009368                SysCtlSleep
 .text.SysCtlDeepSleep
                0x0000936c       0x20 .pio/build/lptm4c1294ncpdt/src/Drivers/soc/driverlib/sysctl.o
                0x0000936c                SysCtlDeepSleep
 .text.SysCtlResetCauseGet
                0x0000938c        0xc .pio/build/lptm4c1294ncpdt/src/Drivers/soc/driverlib/sysctl.o
                0x0000938c                SysCtlResetCauseGet
 .text.SysCtlResetCauseClear
                0x00009398       0x10 .pio/build/lptm4c1294ncpdt/src/Drivers/soc/driverlib/sysctl.o
                0x00009398                SysCtlResetCauseClear
 .text.SysCtlDelay
                0x000093a8        0x8 .pio/build/lptm4c1294ncpdt/src/Drivers/soc/driverlib/sysctl.o
                0x000093a8                SysCtlDelay
 .text.SysCtlMOSCConfigSet
                0x000093b0        0xc .pio/build/lptm4c1294ncpdt/src/Drivers/soc/driverlib/sysctl.o
                0x000093b0                SysCtlMOSCConfigSet
 .text.SysCtlPIOSCCalibrate
                0x000093bc       0x48 .pio/build/lptm4c1294ncpdt/src/Drivers/soc/driverlib/sysctl.o
                0x000093bc                SysCtlPIOSCCalibrate
 .text.SysCtlResetBehaviorSet
                0x00009404        0xc .pio/build/lptm4c1294ncpdt/src/Drivers/soc/driverlib/sysctl.o
                0x00009404                SysCtlResetBehaviorSet
 .text.SysCtlResetBehaviorGet
                0x00009410        0xc .pio/build/lptm4c1294ncpdt/src/Drivers/soc/driverlib/sysctl.o
                0x00009410                SysCtlResetBehaviorGet
 .text.SysCtlClockFreqSet
                0x0000941c      0x248 .pio/build/lptm4c1294ncpdt/src/Drivers/soc/driverlib/sysctl.o
                0x0000941c                SysCtlClockFreqSet
 .text.SysCtlClockSet
                0x00009664      0x124 .pio/build/lptm4c1294ncpdt/src/Drivers/soc/driverlib/sysctl.o
                0x00009664                SysCtlClockSet
 .text.SysCtlClockGet
                0x00009788      0x12c .pio/build/lptm4c1294ncpdt/src/Drivers/soc/driverlib/sysctl.o
                0x00009788                SysCtlClockGet
 .text.SysCtlDeepSleepClockSet
                0x000098b4        0xc .pio/build/lptm4c1294ncpdt/src/Drivers/soc/driverlib/sysctl.o
                0x000098b4                SysCtlDeepSleepClockSet
 .text.SysCtlDeepSleepClockConfigSet
                0x000098c0       0x60 .pio/build/lptm4c1294ncpdt/src/Drivers/soc/driverlib/sysctl.o
                0x000098c0                SysCtlDeepSleepClockConfigSet
 .text.SysCtlPWMClockSet
                0x00009920       0x14 .pio/build/lptm4c1294ncpdt/src/Drivers/soc/driverlib/sysctl.o
                0x00009920                SysCtlPWMClockSet
 .text.SysCtlPWMClockGet
                0x00009934       0x18 .pio/build/lptm4c1294ncpdt/src/Drivers/soc/driverlib/sysctl.o
                0x00009934                SysCtlPWMClockGet
 .text.SysCtlGPIOAHBEnable
                0x0000994c       0x18 .pio/build/lptm4c1294ncpdt/src/Drivers/soc/driverlib/sysctl.o
                0x0000994c                SysCtlGPIOAHBEnable
 .text.SysCtlGPIOAHBDisable
                0x00009964       0x1c .pio/build/lptm4c1294ncpdt/src/Drivers/soc/driverlib/sysctl.o
                0x00009964                SysCtlGPIOAHBDisable
 .text.SysCtlUSBPLLEnable
                0x00009980       0x10 .pio/build/lptm4c1294ncpdt/src/Drivers/soc/driverlib/sysctl.o
                0x00009980                SysCtlUSBPLLEnable
 .text.SysCtlUSBPLLDisable
                0x00009990       0x10 .pio/build/lptm4c1294ncpdt/src/Drivers/soc/driverlib/sysctl.o
                0x00009990                SysCtlUSBPLLDisable
 .text.SysCtlVoltageEventConfig
                0x000099a0        0xc .pio/build/lptm4c1294ncpdt/src/Drivers/soc/driverlib/sysctl.o
                0x000099a0                SysCtlVoltageEventConfig
 .text.SysCtlVoltageEventStatus
                0x000099ac        0xc .pio/build/lptm4c1294ncpdt/src/Drivers/soc/driverlib/sysctl.o
                0x000099ac                SysCtlVoltageEventStatus
 .text.SysCtlVoltageEventClear
                0x000099b8       0x10 .pio/build/lptm4c1294ncpdt/src/Drivers/soc/driverlib/sysctl.o
                0x000099b8                SysCtlVoltageEventClear
 .text.SysCtlVCOGet
                0x000099c8       0x70 .pio/build/lptm4c1294ncpdt/src/Drivers/soc/driverlib/sysctl.o
                0x000099c8                SysCtlVCOGet
 .text.SysCtlNMIStatus
                0x00009a38        0xc .pio/build/lptm4c1294ncpdt/src/Drivers/soc/driverlib/sysctl.o
                0x00009a38                SysCtlNMIStatus
 .text.SysCtlNMIClear
                0x00009a44       0x10 .pio/build/lptm4c1294ncpdt/src/Drivers/soc/driverlib/sysctl.o
                0x00009a44                SysCtlNMIClear
 .text.SysCtlClockOutConfig
                0x00009a54       0x10 .pio/build/lptm4c1294ncpdt/src/Drivers/soc/driverlib/sysctl.o
                0x00009a54                SysCtlClockOutConfig
 .text.SysCtlAltClkConfig
                0x00009a64        0xc .pio/build/lptm4c1294ncpdt/src/Drivers/soc/driverlib/sysctl.o
                0x00009a64                SysCtlAltClkConfig
 .text          0x00009a70        0x0 .pio/build/lptm4c1294ncpdt/src/Drivers/soc/driverlib/sysexc.o
 .text._SysExcIntNumberGet
                0x00009a70       0x34 .pio/build/lptm4c1294ncpdt/src/Drivers/soc/driverlib/sysexc.o
 .text.SysExcIntRegister
                0x00009aa4       0x1a .pio/build/lptm4c1294ncpdt/src/Drivers/soc/driverlib/sysexc.o
                0x00009aa4                SysExcIntRegister
 .text.SysExcIntUnregister
                0x00009abe       0x16 .pio/build/lptm4c1294ncpdt/src/Drivers/soc/driverlib/sysexc.o
                0x00009abe                SysExcIntUnregister
 .text.SysExcIntEnable
                0x00009ad4       0x10 .pio/build/lptm4c1294ncpdt/src/Drivers/soc/driverlib/sysexc.o
                0x00009ad4                SysExcIntEnable
 .text.SysExcIntDisable
                0x00009ae4       0x10 .pio/build/lptm4c1294ncpdt/src/Drivers/soc/driverlib/sysexc.o
                0x00009ae4                SysExcIntDisable
 .text.SysExcIntStatus
                0x00009af4       0x14 .pio/build/lptm4c1294ncpdt/src/Drivers/soc/driverlib/sysexc.o
                0x00009af4                SysExcIntStatus
 .text.SysExcIntClear
                0x00009b08        0xc .pio/build/lptm4c1294ncpdt/src/Drivers/soc/driverlib/sysexc.o
                0x00009b08                SysExcIntClear
 .text          0x00009b14        0x0 .pio/build/lptm4c1294ncpdt/src/Drivers/soc/driverlib/systick.o
 .text.SysTickEnable
                0x00009b14       0x10 .pio/build/lptm4c1294ncpdt/src/Drivers/soc/driverlib/systick.o
                0x00009b14                SysTickEnable
 .text.SysTickDisable
                0x00009b24       0x10 .pio/build/lptm4c1294ncpdt/src/Drivers/soc/driverlib/systick.o
                0x00009b24                SysTickDisable
 .text.SysTickIntRegister
                0x00009b34       0x1c .pio/build/lptm4c1294ncpdt/src/Drivers/soc/driverlib/systick.o
                0x00009b34                SysTickIntRegister
 .text.SysTickIntUnregister
                0x00009b50       0x14 .pio/build/lptm4c1294ncpdt/src/Drivers/soc/driverlib/systick.o
                0x00009b50                SysTickIntUnregister
 .text.SysTickIntEnable
                0x00009b64       0x10 .pio/build/lptm4c1294ncpdt/src/Drivers/soc/driverlib/systick.o
                0x00009b64                SysTickIntEnable
 .text.SysTickIntDisable
                0x00009b74       0x10 .pio/build/lptm4c1294ncpdt/src/Drivers/soc/driverlib/systick.o
                0x00009b74                SysTickIntDisable
 .text.SysTickPeriodSet
                0x00009b84        0xc .pio/build/lptm4c1294ncpdt/src/Drivers/soc/driverlib/systick.o
                0x00009b84                SysTickPeriodSet
 .text.SysTickPeriodGet
                0x00009b90        0xc .pio/build/lptm4c1294ncpdt/src/Drivers/soc/driverlib/systick.o
                0x00009b90                SysTickPeriodGet
 .text.SysTickValueGet
                0x00009b9c        0xc .pio/build/lptm4c1294ncpdt/src/Drivers/soc/driverlib/systick.o
                0x00009b9c                SysTickValueGet
 .text          0x00009ba8        0x0 .pio/build/lptm4c1294ncpdt/src/Drivers/soc/driverlib/timer.o
 .text._TimerIntNumberGet
                0x00009ba8       0x54 .pio/build/lptm4c1294ncpdt/src/Drivers/soc/driverlib/timer.o
 .text.TimerEnable
                0x00009bfc       0x10 .pio/build/lptm4c1294ncpdt/src/Drivers/soc/driverlib/timer.o
                0x00009bfc                TimerEnable
 .text.TimerDisable
                0x00009c0c       0x12 .pio/build/lptm4c1294ncpdt/src/Drivers/soc/driverlib/timer.o
                0x00009c0c                TimerDisable
 *fill*         0x00009c1e        0x2 
 .text.TimerConfigure
                0x00009c20       0x58 .pio/build/lptm4c1294ncpdt/src/Drivers/soc/driverlib/timer.o
                0x00009c20                TimerConfigure
 .text.TimerControlLevel
                0x00009c78       0x1c .pio/build/lptm4c1294ncpdt/src/Drivers/soc/driverlib/timer.o
                0x00009c78                TimerControlLevel
 .text.TimerControlTrigger
                0x00009c94       0x50 .pio/build/lptm4c1294ncpdt/src/Drivers/soc/driverlib/timer.o
                0x00009c94                TimerControlTrigger
 .text.TimerControlEvent
                0x00009ce4       0x1a .pio/build/lptm4c1294ncpdt/src/Drivers/soc/driverlib/timer.o
                0x00009ce4                TimerControlEvent
 .text.TimerControlStall
                0x00009cfe       0x1c .pio/build/lptm4c1294ncpdt/src/Drivers/soc/driverlib/timer.o
                0x00009cfe                TimerControlStall
 .text.TimerControlWaitOnTrigger
                0x00009d1a       0x2e .pio/build/lptm4c1294ncpdt/src/Drivers/soc/driverlib/timer.o
                0x00009d1a                TimerControlWaitOnTrigger
 .text.TimerRTCEnable
                0x00009d48        0xa .pio/build/lptm4c1294ncpdt/src/Drivers/soc/driverlib/timer.o
                0x00009d48                TimerRTCEnable
 .text.TimerRTCDisable
                0x00009d52        0xa .pio/build/lptm4c1294ncpdt/src/Drivers/soc/driverlib/timer.o
                0x00009d52                TimerRTCDisable
 .text.TimerClockSourceSet
                0x00009d5c        0x6 .pio/build/lptm4c1294ncpdt/src/Drivers/soc/driverlib/timer.o
                0x00009d5c                TimerClockSourceSet
 .text.TimerClockSourceGet
                0x00009d62        0x6 .pio/build/lptm4c1294ncpdt/src/Drivers/soc/driverlib/timer.o
                0x00009d62                TimerClockSourceGet
 .text.TimerPrescaleSet
                0x00009d68       0x12 .pio/build/lptm4c1294ncpdt/src/Drivers/soc/driverlib/timer.o
                0x00009d68                TimerPrescaleSet
 .text.TimerPrescaleGet
                0x00009d7a        0xa .pio/build/lptm4c1294ncpdt/src/Drivers/soc/driverlib/timer.o
                0x00009d7a                TimerPrescaleGet
 .text.TimerPrescaleMatchSet
                0x00009d84       0x12 .pio/build/lptm4c1294ncpdt/src/Drivers/soc/driverlib/timer.o
                0x00009d84                TimerPrescaleMatchSet
 .text.TimerPrescaleMatchGet
                0x00009d96        0xa .pio/build/lptm4c1294ncpdt/src/Drivers/soc/driverlib/timer.o
                0x00009d96                TimerPrescaleMatchGet
 .text.TimerLoadSet
                0x00009da0       0x12 .pio/build/lptm4c1294ncpdt/src/Drivers/soc/driverlib/timer.o
                0x00009da0                TimerLoadSet
 .text.TimerLoadGet
                0x00009db2        0xa .pio/build/lptm4c1294ncpdt/src/Drivers/soc/driverlib/timer.o
                0x00009db2                TimerLoadGet
 .text.TimerLoadSet64
                0x00009dbc        0x8 .pio/build/lptm4c1294ncpdt/src/Drivers/soc/driverlib/timer.o
                0x00009dbc                TimerLoadSet64
 .text.TimerLoadGet64
                0x00009dc4       0x14 .pio/build/lptm4c1294ncpdt/src/Drivers/soc/driverlib/timer.o
                0x00009dc4                TimerLoadGet64
 .text.TimerValueGet
                0x00009dd8        0xa .pio/build/lptm4c1294ncpdt/src/Drivers/soc/driverlib/timer.o
                0x00009dd8                TimerValueGet
 .text.TimerValueGet64
                0x00009de2       0x14 .pio/build/lptm4c1294ncpdt/src/Drivers/soc/driverlib/timer.o
                0x00009de2                TimerValueGet64
 .text.TimerMatchSet
                0x00009df6       0x12 .pio/build/lptm4c1294ncpdt/src/Drivers/soc/driverlib/timer.o
                0x00009df6                TimerMatchSet
 .text.TimerMatchGet
                0x00009e08        0xa .pio/build/lptm4c1294ncpdt/src/Drivers/soc/driverlib/timer.o
                0x00009e08                TimerMatchGet
 .text.TimerMatchSet64
                0x00009e12        0x8 .pio/build/lptm4c1294ncpdt/src/Drivers/soc/driverlib/timer.o
                0x00009e12                TimerMatchSet64
 .text.TimerMatchGet64
                0x00009e1a       0x14 .pio/build/lptm4c1294ncpdt/src/Drivers/soc/driverlib/timer.o
                0x00009e1a                TimerMatchGet64
 .text.TimerIntRegister
                0x00009e2e       0x1a .pio/build/lptm4c1294ncpdt/src/Drivers/soc/driverlib/timer.o
                0x00009e2e                TimerIntRegister
 .text.TimerIntUnregister
                0x00009e48       0x16 .pio/build/lptm4c1294ncpdt/src/Drivers/soc/driverlib/timer.o
                0x00009e48                TimerIntUnregister
 .text.TimerIntEnable
                0x00009e5e        0x8 .pio/build/lptm4c1294ncpdt/src/Drivers/soc/driverlib/timer.o
                0x00009e5e                TimerIntEnable
 .text.TimerIntDisable
                0x00009e66        0xa .pio/build/lptm4c1294ncpdt/src/Drivers/soc/driverlib/timer.o
                0x00009e66                TimerIntDisable
 .text.TimerIntStatus
                0x00009e70        0xa .pio/build/lptm4c1294ncpdt/src/Drivers/soc/driverlib/timer.o
                0x00009e70                TimerIntStatus
 .text.TimerIntClear
                0x00009e7a        0x4 .pio/build/lptm4c1294ncpdt/src/Drivers/soc/driverlib/timer.o
                0x00009e7a                TimerIntClear
 .text.TimerSynchronize
                0x00009e7e        0x4 .pio/build/lptm4c1294ncpdt/src/Drivers/soc/driverlib/timer.o
                0x00009e7e                TimerSynchronize
 .text.TimerADCEventSet
                0x00009e82        0x4 .pio/build/lptm4c1294ncpdt/src/Drivers/soc/driverlib/timer.o
                0x00009e82                TimerADCEventSet
 .text.TimerADCEventGet
                0x00009e86        0x4 .pio/build/lptm4c1294ncpdt/src/Drivers/soc/driverlib/timer.o
                0x00009e86                TimerADCEventGet
 .text.TimerDMAEventSet
                0x00009e8a        0x4 .pio/build/lptm4c1294ncpdt/src/Drivers/soc/driverlib/timer.o
                0x00009e8a                TimerDMAEventSet
 .text.TimerDMAEventGet
                0x00009e8e        0x4 .pio/build/lptm4c1294ncpdt/src/Drivers/soc/driverlib/timer.o
                0x00009e8e                TimerDMAEventGet
 .text.TimerUpdateMode
                0x00009e92       0x26 .pio/build/lptm4c1294ncpdt/src/Drivers/soc/driverlib/timer.o
                0x00009e92                TimerUpdateMode
 .text          0x00009eb8        0x0 .pio/build/lptm4c1294ncpdt/src/Drivers/soc/driverlib/uart.o
 .text._UARTIntNumberGet
                0x00009eb8       0x44 .pio/build/lptm4c1294ncpdt/src/Drivers/soc/driverlib/uart.o
 .text.UARTParityModeSet
                0x00009efc        0xc .pio/build/lptm4c1294ncpdt/src/Drivers/soc/driverlib/uart.o
                0x00009efc                UARTParityModeSet
 .text.UARTParityModeGet
                0x00009f08        0x8 .pio/build/lptm4c1294ncpdt/src/Drivers/soc/driverlib/uart.o
                0x00009f08                UARTParityModeGet
 .text.UARTFIFOLevelSet
                0x00009f10        0x6 .pio/build/lptm4c1294ncpdt/src/Drivers/soc/driverlib/uart.o
                0x00009f10                UARTFIFOLevelSet
 .text.UARTFIFOLevelGet
                0x00009f16       0x10 .pio/build/lptm4c1294ncpdt/src/Drivers/soc/driverlib/uart.o
                0x00009f16                UARTFIFOLevelGet
 .text.UARTConfigGetExpClk
                0x00009f26       0x26 .pio/build/lptm4c1294ncpdt/src/Drivers/soc/driverlib/uart.o
                0x00009f26                UARTConfigGetExpClk
 .text.UARTEnable
                0x00009f4c       0x16 .pio/build/lptm4c1294ncpdt/src/Drivers/soc/driverlib/uart.o
                0x00009f4c                UARTEnable
 .text.UARTDisable
                0x00009f62       0x1c .pio/build/lptm4c1294ncpdt/src/Drivers/soc/driverlib/uart.o
                0x00009f62                UARTDisable
 .text.UARTConfigSetExpClk
                0x00009f7e       0x48 .pio/build/lptm4c1294ncpdt/src/Drivers/soc/driverlib/uart.o
                0x00009f7e                UARTConfigSetExpClk
 .text.UARTFIFOEnable
                0x00009fc6        0xa .pio/build/lptm4c1294ncpdt/src/Drivers/soc/driverlib/uart.o
                0x00009fc6                UARTFIFOEnable
 .text.UARTFIFODisable
                0x00009fd0        0xa .pio/build/lptm4c1294ncpdt/src/Drivers/soc/driverlib/uart.o
                0x00009fd0                UARTFIFODisable
 .text.UARTEnableSIR
                0x00009fda       0x12 .pio/build/lptm4c1294ncpdt/src/Drivers/soc/driverlib/uart.o
                0x00009fda                UARTEnableSIR
 .text.UARTDisableSIR
                0x00009fec        0xa .pio/build/lptm4c1294ncpdt/src/Drivers/soc/driverlib/uart.o
                0x00009fec                UARTDisableSIR
 .text.UARTSmartCardEnable
                0x00009ff6       0x16 .pio/build/lptm4c1294ncpdt/src/Drivers/soc/driverlib/uart.o
                0x00009ff6                UARTSmartCardEnable
 .text.UARTSmartCardDisable
                0x0000a00c        0xa .pio/build/lptm4c1294ncpdt/src/Drivers/soc/driverlib/uart.o
                0x0000a00c                UARTSmartCardDisable
 .text.UARTModemControlSet
                0x0000a016        0xc .pio/build/lptm4c1294ncpdt/src/Drivers/soc/driverlib/uart.o
                0x0000a016                UARTModemControlSet
 .text.UARTModemControlClear
                0x0000a022        0xe .pio/build/lptm4c1294ncpdt/src/Drivers/soc/driverlib/uart.o
                0x0000a022                UARTModemControlClear
 .text.UARTModemControlGet
                0x0000a030        0x8 .pio/build/lptm4c1294ncpdt/src/Drivers/soc/driverlib/uart.o
                0x0000a030                UARTModemControlGet
 .text.UARTModemStatusGet
                0x0000a038        0xc .pio/build/lptm4c1294ncpdt/src/Drivers/soc/driverlib/uart.o
                0x0000a038                UARTModemStatusGet
 .text.UARTFlowControlSet
                0x0000a044        0xc .pio/build/lptm4c1294ncpdt/src/Drivers/soc/driverlib/uart.o
                0x0000a044                UARTFlowControlSet
 .text.UARTFlowControlGet
                0x0000a050        0x8 .pio/build/lptm4c1294ncpdt/src/Drivers/soc/driverlib/uart.o
                0x0000a050                UARTFlowControlGet
 .text.UARTTxIntModeSet
                0x0000a058        0xc .pio/build/lptm4c1294ncpdt/src/Drivers/soc/driverlib/uart.o
                0x0000a058                UARTTxIntModeSet
 .text.UARTTxIntModeGet
                0x0000a064        0x8 .pio/build/lptm4c1294ncpdt/src/Drivers/soc/driverlib/uart.o
                0x0000a064                UARTTxIntModeGet
 .text.UARTCharsAvail
                0x0000a06c        0xc .pio/build/lptm4c1294ncpdt/src/Drivers/soc/driverlib/uart.o
                0x0000a06c                UARTCharsAvail
 .text.UARTSpaceAvail
                0x0000a078        0xc .pio/build/lptm4c1294ncpdt/src/Drivers/soc/driverlib/uart.o
                0x0000a078                UARTSpaceAvail
 .text.UARTCharGetNonBlocking
                0x0000a084        0xe .pio/build/lptm4c1294ncpdt/src/Drivers/soc/driverlib/uart.o
                0x0000a084                UARTCharGetNonBlocking
 .text.UARTCharGet
                0x0000a092        0xa .pio/build/lptm4c1294ncpdt/src/Drivers/soc/driverlib/uart.o
                0x0000a092                UARTCharGet
 .text.UARTCharPutNonBlocking
                0x0000a09c        0xe .pio/build/lptm4c1294ncpdt/src/Drivers/soc/driverlib/uart.o
                0x0000a09c                UARTCharPutNonBlocking
 .text.UARTCharPut
                0x0000a0aa        0xa .pio/build/lptm4c1294ncpdt/src/Drivers/soc/driverlib/uart.o
                0x0000a0aa                UARTCharPut
 .text.UARTBreakCtl
                0x0000a0b4       0x16 .pio/build/lptm4c1294ncpdt/src/Drivers/soc/driverlib/uart.o
                0x0000a0b4                UARTBreakCtl
 .text.UARTBusy
                0x0000a0ca        0x8 .pio/build/lptm4c1294ncpdt/src/Drivers/soc/driverlib/uart.o
                0x0000a0ca                UARTBusy
 .text.UARTIntRegister
                0x0000a0d2       0x1a .pio/build/lptm4c1294ncpdt/src/Drivers/soc/driverlib/uart.o
                0x0000a0d2                UARTIntRegister
 .text.UARTIntUnregister
                0x0000a0ec       0x16 .pio/build/lptm4c1294ncpdt/src/Drivers/soc/driverlib/uart.o
                0x0000a0ec                UARTIntUnregister
 .text.UARTIntEnable
                0x0000a102        0x8 .pio/build/lptm4c1294ncpdt/src/Drivers/soc/driverlib/uart.o
                0x0000a102                UARTIntEnable
 .text.UARTIntDisable
                0x0000a10a        0xa .pio/build/lptm4c1294ncpdt/src/Drivers/soc/driverlib/uart.o
                0x0000a10a                UARTIntDisable
 .text.UARTIntStatus
                0x0000a114        0xa .pio/build/lptm4c1294ncpdt/src/Drivers/soc/driverlib/uart.o
                0x0000a114                UARTIntStatus
 .text.UARTIntClear
                0x0000a11e        0x4 .pio/build/lptm4c1294ncpdt/src/Drivers/soc/driverlib/uart.o
                0x0000a11e                UARTIntClear
 .text.UARTDMAEnable
                0x0000a122        0x8 .pio/build/lptm4c1294ncpdt/src/Drivers/soc/driverlib/uart.o
                0x0000a122                UARTDMAEnable
 .text.UARTDMADisable
                0x0000a12a        0xa .pio/build/lptm4c1294ncpdt/src/Drivers/soc/driverlib/uart.o
                0x0000a12a                UARTDMADisable
 .text.UARTRxErrorGet
                0x0000a134        0x8 .pio/build/lptm4c1294ncpdt/src/Drivers/soc/driverlib/uart.o
                0x0000a134                UARTRxErrorGet
 .text.UARTRxErrorClear
                0x0000a13c        0x6 .pio/build/lptm4c1294ncpdt/src/Drivers/soc/driverlib/uart.o
                0x0000a13c                UARTRxErrorClear
 .text.UARTClockSourceSet
                0x0000a142        0x6 .pio/build/lptm4c1294ncpdt/src/Drivers/soc/driverlib/uart.o
                0x0000a142                UARTClockSourceSet
 .text.UARTClockSourceGet
                0x0000a148        0x6 .pio/build/lptm4c1294ncpdt/src/Drivers/soc/driverlib/uart.o
                0x0000a148                UARTClockSourceGet
 .text.UART9BitEnable
                0x0000a14e        0xe .pio/build/lptm4c1294ncpdt/src/Drivers/soc/driverlib/uart.o
                0x0000a14e                UART9BitEnable
 .text.UART9BitDisable
                0x0000a15c        0xe .pio/build/lptm4c1294ncpdt/src/Drivers/soc/driverlib/uart.o
                0x0000a15c                UART9BitDisable
 .text.UART9BitAddrSet
                0x0000a16a        0xa .pio/build/lptm4c1294ncpdt/src/Drivers/soc/driverlib/uart.o
                0x0000a16a                UART9BitAddrSet
 .text.UART9BitAddrSend
                0x0000a174       0x2c .pio/build/lptm4c1294ncpdt/src/Drivers/soc/driverlib/uart.o
                0x0000a174                UART9BitAddrSend
 .text.UARTLoopbackEnable
                0x0000a1a0        0xa .pio/build/lptm4c1294ncpdt/src/Drivers/soc/driverlib/uart.o
                0x0000a1a0                UARTLoopbackEnable
 .text          0x0000a1aa        0x0 .pio/build/lptm4c1294ncpdt/src/Drivers/soc/driverlib/udma.o
 *fill*         0x0000a1aa        0x2 
 .text.uDMAEnable
                0x0000a1ac        0xc .pio/build/lptm4c1294ncpdt/src/Drivers/soc/driverlib/udma.o
                0x0000a1ac                uDMAEnable
 .text.uDMADisable
                0x0000a1b8        0xc .pio/build/lptm4c1294ncpdt/src/Drivers/soc/driverlib/udma.o
                0x0000a1b8                uDMADisable
 .text.uDMAErrorStatusGet
                0x0000a1c4        0xc .pio/build/lptm4c1294ncpdt/src/Drivers/soc/driverlib/udma.o
                0x0000a1c4                uDMAErrorStatusGet
 .text.uDMAErrorStatusClear
                0x0000a1d0        0xc .pio/build/lptm4c1294ncpdt/src/Drivers/soc/driverlib/udma.o
                0x0000a1d0                uDMAErrorStatusClear
 .text.uDMAChannelEnable
                0x0000a1dc       0x14 .pio/build/lptm4c1294ncpdt/src/Drivers/soc/driverlib/udma.o
                0x0000a1dc                uDMAChannelEnable
 .text.uDMAChannelDisable
                0x0000a1f0       0x14 .pio/build/lptm4c1294ncpdt/src/Drivers/soc/driverlib/udma.o
                0x0000a1f0                uDMAChannelDisable
 .text.uDMAChannelIsEnabled
                0x0000a204       0x1c .pio/build/lptm4c1294ncpdt/src/Drivers/soc/driverlib/udma.o
                0x0000a204                uDMAChannelIsEnabled
 .text.uDMAControlBaseSet
                0x0000a220        0xc .pio/build/lptm4c1294ncpdt/src/Drivers/soc/driverlib/udma.o
                0x0000a220                uDMAControlBaseSet
 .text.uDMAControlBaseGet
                0x0000a22c        0xc .pio/build/lptm4c1294ncpdt/src/Drivers/soc/driverlib/udma.o
                0x0000a22c                uDMAControlBaseGet
 .text.uDMAControlAlternateBaseGet
                0x0000a238        0xc .pio/build/lptm4c1294ncpdt/src/Drivers/soc/driverlib/udma.o
                0x0000a238                uDMAControlAlternateBaseGet
 .text.uDMAChannelRequest
                0x0000a244       0x14 .pio/build/lptm4c1294ncpdt/src/Drivers/soc/driverlib/udma.o
                0x0000a244                uDMAChannelRequest
 .text.uDMAChannelAttributeEnable
                0x0000a258       0x48 .pio/build/lptm4c1294ncpdt/src/Drivers/soc/driverlib/udma.o
                0x0000a258                uDMAChannelAttributeEnable
 .text.uDMAChannelAttributeDisable
                0x0000a2a0       0x48 .pio/build/lptm4c1294ncpdt/src/Drivers/soc/driverlib/udma.o
                0x0000a2a0                uDMAChannelAttributeDisable
 .text.uDMAChannelAttributeGet
                0x0000a2e8       0x4c .pio/build/lptm4c1294ncpdt/src/Drivers/soc/driverlib/udma.o
                0x0000a2e8                uDMAChannelAttributeGet
 .text.uDMAChannelControlSet
                0x0000a334       0x20 .pio/build/lptm4c1294ncpdt/src/Drivers/soc/driverlib/udma.o
                0x0000a334                uDMAChannelControlSet
 .text.uDMAChannelTransferSet
                0x0000a354       0x84 .pio/build/lptm4c1294ncpdt/src/Drivers/soc/driverlib/udma.o
                0x0000a354                uDMAChannelTransferSet
 .text.uDMAChannelScatterGatherSet
                0x0000a3d8       0x50 .pio/build/lptm4c1294ncpdt/src/Drivers/soc/driverlib/udma.o
                0x0000a3d8                uDMAChannelScatterGatherSet
 .text.uDMAChannelSizeGet
                0x0000a428       0x20 .pio/build/lptm4c1294ncpdt/src/Drivers/soc/driverlib/udma.o
                0x0000a428                uDMAChannelSizeGet
 .text.uDMAChannelModeGet
                0x0000a448       0x20 .pio/build/lptm4c1294ncpdt/src/Drivers/soc/driverlib/udma.o
                0x0000a448                uDMAChannelModeGet
 .text.uDMAIntRegister
                0x0000a468       0x12 .pio/build/lptm4c1294ncpdt/src/Drivers/soc/driverlib/udma.o
                0x0000a468                uDMAIntRegister
 .text.uDMAIntUnregister
                0x0000a47a       0x12 .pio/build/lptm4c1294ncpdt/src/Drivers/soc/driverlib/udma.o
                0x0000a47a                uDMAIntUnregister
 .text.uDMAIntStatus
                0x0000a48c        0xc .pio/build/lptm4c1294ncpdt/src/Drivers/soc/driverlib/udma.o
                0x0000a48c                uDMAIntStatus
 .text.uDMAIntClear
                0x0000a498        0xc .pio/build/lptm4c1294ncpdt/src/Drivers/soc/driverlib/udma.o
                0x0000a498                uDMAIntClear
 .text.uDMAChannelAssign
                0x0000a4a4       0x2c .pio/build/lptm4c1294ncpdt/src/Drivers/soc/driverlib/udma.o
                0x0000a4a4                uDMAChannelAssign
 .text.uDMAChannelSelectSecondary
                0x0000a4d0       0x10 .pio/build/lptm4c1294ncpdt/src/Drivers/soc/driverlib/udma.o
                0x0000a4d0                uDMAChannelSelectSecondary
 .text.uDMAChannelSelectDefault
                0x0000a4e0       0x10 .pio/build/lptm4c1294ncpdt/src/Drivers/soc/driverlib/udma.o
                0x0000a4e0                uDMAChannelSelectDefault
 .text          0x0000a4f0        0x0 .pio/build/lptm4c1294ncpdt/src/Drivers/soc/driverlib/usb.o
 .text._USBIntNumberGet.isra.0
                0x0000a4f0       0x34 .pio/build/lptm4c1294ncpdt/src/Drivers/soc/driverlib/usb.o
 .text.USBHostSuspend
                0x0000a524        0xa .pio/build/lptm4c1294ncpdt/src/Drivers/soc/driverlib/usb.o
                0x0000a524                USBHostSuspend
 .text.USBHostReset
                0x0000a52e       0x12 .pio/build/lptm4c1294ncpdt/src/Drivers/soc/driverlib/usb.o
                0x0000a52e                USBHostReset
 .text.USBHighSpeed
                0x0000a540       0x12 .pio/build/lptm4c1294ncpdt/src/Drivers/soc/driverlib/usb.o
                0x0000a540                USBHighSpeed
 .text.USBHostResume
                0x0000a552       0x12 .pio/build/lptm4c1294ncpdt/src/Drivers/soc/driverlib/usb.o
                0x0000a552                USBHostResume
 .text.USBHostSpeedGet
                0x0000a564       0x28 .pio/build/lptm4c1294ncpdt/src/Drivers/soc/driverlib/usb.o
                0x0000a564                USBHostSpeedGet
 .text.USBDevSpeedGet
                0x0000a58c        0xe .pio/build/lptm4c1294ncpdt/src/Drivers/soc/driverlib/usb.o
                0x0000a58c                USBDevSpeedGet
 *fill*         0x0000a59a        0x2 
 .text.USBIntDisableControl
                0x0000a59c       0x28 .pio/build/lptm4c1294ncpdt/src/Drivers/soc/driverlib/usb.o
                0x0000a59c                USBIntDisableControl
 .text.USBIntEnableControl
                0x0000a5c4       0x28 .pio/build/lptm4c1294ncpdt/src/Drivers/soc/driverlib/usb.o
                0x0000a5c4                USBIntEnableControl
 .text.USBIntStatusControl
                0x0000a5ec       0x38 .pio/build/lptm4c1294ncpdt/src/Drivers/soc/driverlib/usb.o
                0x0000a5ec                USBIntStatusControl
 .text.USBIntDisableEndpoint
                0x0000a624       0x1a .pio/build/lptm4c1294ncpdt/src/Drivers/soc/driverlib/usb.o
                0x0000a624                USBIntDisableEndpoint
 .text.USBIntEnableEndpoint
                0x0000a63e       0x18 .pio/build/lptm4c1294ncpdt/src/Drivers/soc/driverlib/usb.o
                0x0000a63e                USBIntEnableEndpoint
 .text.USBIntStatusEndpoint
                0x0000a656        0xc .pio/build/lptm4c1294ncpdt/src/Drivers/soc/driverlib/usb.o
                0x0000a656                USBIntStatusEndpoint
 .text.USBIntRegister
                0x0000a662       0x1a .pio/build/lptm4c1294ncpdt/src/Drivers/soc/driverlib/usb.o
                0x0000a662                USBIntRegister
 .text.USBIntUnregister
                0x0000a67c       0x16 .pio/build/lptm4c1294ncpdt/src/Drivers/soc/driverlib/usb.o
                0x0000a67c                USBIntUnregister
 .text.USBEndpointStatus
                0x0000a692       0x12 .pio/build/lptm4c1294ncpdt/src/Drivers/soc/driverlib/usb.o
                0x0000a692                USBEndpointStatus
 .text.USBHostEndpointStatusClear
                0x0000a6a4       0x2a .pio/build/lptm4c1294ncpdt/src/Drivers/soc/driverlib/usb.o
                0x0000a6a4                USBHostEndpointStatusClear
 .text.USBDevEndpointStatusClear
                0x0000a6ce       0x58 .pio/build/lptm4c1294ncpdt/src/Drivers/soc/driverlib/usb.o
                0x0000a6ce                USBDevEndpointStatusClear
 .text.USBHostEndpointDataToggle
                0x0000a726       0x4e .pio/build/lptm4c1294ncpdt/src/Drivers/soc/driverlib/usb.o
                0x0000a726                USBHostEndpointDataToggle
 .text.USBEndpointDataToggleClear
                0x0000a774       0x1e .pio/build/lptm4c1294ncpdt/src/Drivers/soc/driverlib/usb.o
                0x0000a774                USBEndpointDataToggleClear
 *fill*         0x0000a792        0x2 
 .text.USBHostEndpointPing
                0x0000a794       0x1c .pio/build/lptm4c1294ncpdt/src/Drivers/soc/driverlib/usb.o
                0x0000a794                USBHostEndpointPing
 .text.USBDevEndpointStall
                0x0000a7b0       0x30 .pio/build/lptm4c1294ncpdt/src/Drivers/soc/driverlib/usb.o
                0x0000a7b0                USBDevEndpointStall
 .text.USBDevEndpointStallClear
                0x0000a7e0       0x40 .pio/build/lptm4c1294ncpdt/src/Drivers/soc/driverlib/usb.o
                0x0000a7e0                USBDevEndpointStallClear
 .text.USBDevConnect
                0x0000a820        0xa .pio/build/lptm4c1294ncpdt/src/Drivers/soc/driverlib/usb.o
                0x0000a820                USBDevConnect
 .text.USBDevDisconnect
                0x0000a82a        0xa .pio/build/lptm4c1294ncpdt/src/Drivers/soc/driverlib/usb.o
                0x0000a82a                USBDevDisconnect
 .text.USBDevAddrSet
                0x0000a834        0x6 .pio/build/lptm4c1294ncpdt/src/Drivers/soc/driverlib/usb.o
                0x0000a834                USBDevAddrSet
 .text.USBDevAddrGet
                0x0000a83a        0x4 .pio/build/lptm4c1294ncpdt/src/Drivers/soc/driverlib/usb.o
                0x0000a83a                USBDevAddrGet
 .text.USBHostEndpointConfig
                0x0000a83e       0xd0 .pio/build/lptm4c1294ncpdt/src/Drivers/soc/driverlib/usb.o
                0x0000a83e                USBHostEndpointConfig
 .text.USBHostEndpointSpeed
                0x0000a90e       0x3e .pio/build/lptm4c1294ncpdt/src/Drivers/soc/driverlib/usb.o
                0x0000a90e                USBHostEndpointSpeed
 .text.USBDevEndpointConfigSet
                0x0000a94c       0x80 .pio/build/lptm4c1294ncpdt/src/Drivers/soc/driverlib/usb.o
                0x0000a94c                USBDevEndpointConfigSet
 .text.USBDevEndpointConfigGet
                0x0000a9cc       0x76 .pio/build/lptm4c1294ncpdt/src/Drivers/soc/driverlib/usb.o
                0x0000a9cc                USBDevEndpointConfigGet
 .text.USBFIFOConfigSet
                0x0000aa42       0x44 .pio/build/lptm4c1294ncpdt/src/Drivers/soc/driverlib/usb.o
                0x0000aa42                USBFIFOConfigSet
 .text.USBFIFOConfigGet
                0x0000aa86       0x48 .pio/build/lptm4c1294ncpdt/src/Drivers/soc/driverlib/usb.o
                0x0000aa86                USBFIFOConfigGet
 .text.USBEndpointDMAConfigSet
                0x0000aace       0x4c .pio/build/lptm4c1294ncpdt/src/Drivers/soc/driverlib/usb.o
                0x0000aace                USBEndpointDMAConfigSet
 .text.USBEndpointDMAEnable
                0x0000ab1a       0x1e .pio/build/lptm4c1294ncpdt/src/Drivers/soc/driverlib/usb.o
                0x0000ab1a                USBEndpointDMAEnable
 .text.USBEndpointDMADisable
                0x0000ab38       0x1e .pio/build/lptm4c1294ncpdt/src/Drivers/soc/driverlib/usb.o
                0x0000ab38                USBEndpointDMADisable
 .text.USBEndpointDataAvail
                0x0000ab56       0x20 .pio/build/lptm4c1294ncpdt/src/Drivers/soc/driverlib/usb.o
                0x0000ab56                USBEndpointDataAvail
 .text.USBEndpointDataGet
                0x0000ab76       0x48 .pio/build/lptm4c1294ncpdt/src/Drivers/soc/driverlib/usb.o
                0x0000ab76                USBEndpointDataGet
 .text.USBDevEndpointDataAck
                0x0000abbe       0x1e .pio/build/lptm4c1294ncpdt/src/Drivers/soc/driverlib/usb.o
                0x0000abbe                USBDevEndpointDataAck
 .text.USBHostEndpointDataAck
                0x0000abdc       0x1e .pio/build/lptm4c1294ncpdt/src/Drivers/soc/driverlib/usb.o
                0x0000abdc                USBHostEndpointDataAck
 .text.USBEndpointDataPut
                0x0000abfa       0x32 .pio/build/lptm4c1294ncpdt/src/Drivers/soc/driverlib/usb.o
                0x0000abfa                USBEndpointDataPut
 .text.USBEndpointDataSend
                0x0000ac2c       0x2e .pio/build/lptm4c1294ncpdt/src/Drivers/soc/driverlib/usb.o
                0x0000ac2c                USBEndpointDataSend
 .text.USBFIFOFlush
                0x0000ac5a       0x3c .pio/build/lptm4c1294ncpdt/src/Drivers/soc/driverlib/usb.o
                0x0000ac5a                USBFIFOFlush
 .text.USBHostRequestIN
                0x0000ac96       0x12 .pio/build/lptm4c1294ncpdt/src/Drivers/soc/driverlib/usb.o
                0x0000ac96                USBHostRequestIN
 .text.USBHostRequestINClear
                0x0000aca8       0x16 .pio/build/lptm4c1294ncpdt/src/Drivers/soc/driverlib/usb.o
                0x0000aca8                USBHostRequestINClear
 .text.USBHostRequestStatus
                0x0000acbe        0x8 .pio/build/lptm4c1294ncpdt/src/Drivers/soc/driverlib/usb.o
                0x0000acbe                USBHostRequestStatus
 .text.USBHostAddrSet
                0x0000acc6       0x14 .pio/build/lptm4c1294ncpdt/src/Drivers/soc/driverlib/usb.o
                0x0000acc6                USBHostAddrSet
 .text.USBHostAddrGet
                0x0000acda       0x14 .pio/build/lptm4c1294ncpdt/src/Drivers/soc/driverlib/usb.o
                0x0000acda                USBHostAddrGet
 .text.USBHostHubAddrSet
                0x0000acee       0x30 .pio/build/lptm4c1294ncpdt/src/Drivers/soc/driverlib/usb.o
                0x0000acee                USBHostHubAddrSet
 .text.USBHostHubAddrGet
                0x0000ad1e       0x14 .pio/build/lptm4c1294ncpdt/src/Drivers/soc/driverlib/usb.o
                0x0000ad1e                USBHostHubAddrGet
 .text.USBHostPwrConfig
                0x0000ad32       0x1e .pio/build/lptm4c1294ncpdt/src/Drivers/soc/driverlib/usb.o
                0x0000ad32                USBHostPwrConfig
 .text.USBHostPwrFaultEnable
                0x0000ad50       0x10 .pio/build/lptm4c1294ncpdt/src/Drivers/soc/driverlib/usb.o
                0x0000ad50                USBHostPwrFaultEnable
 .text.USBHostPwrFaultDisable
                0x0000ad60       0x12 .pio/build/lptm4c1294ncpdt/src/Drivers/soc/driverlib/usb.o
                0x0000ad60                USBHostPwrFaultDisable
 .text.USBHostPwrEnable
                0x0000ad72       0x10 .pio/build/lptm4c1294ncpdt/src/Drivers/soc/driverlib/usb.o
                0x0000ad72                USBHostPwrEnable
 .text.USBHostPwrDisable
                0x0000ad82       0x12 .pio/build/lptm4c1294ncpdt/src/Drivers/soc/driverlib/usb.o
                0x0000ad82                USBHostPwrDisable
 .text.USBFrameNumberGet
                0x0000ad94        0x6 .pio/build/lptm4c1294ncpdt/src/Drivers/soc/driverlib/usb.o
                0x0000ad94                USBFrameNumberGet
 .text.USBOTGSessionRequest
                0x0000ad9a       0x16 .pio/build/lptm4c1294ncpdt/src/Drivers/soc/driverlib/usb.o
                0x0000ad9a                USBOTGSessionRequest
 .text.USBFIFOAddrGet
                0x0000adb0        0x8 .pio/build/lptm4c1294ncpdt/src/Drivers/soc/driverlib/usb.o
                0x0000adb0                USBFIFOAddrGet
 .text.USBModeGet
                0x0000adb8        0xa .pio/build/lptm4c1294ncpdt/src/Drivers/soc/driverlib/usb.o
                0x0000adb8                USBModeGet
 .text.USBEndpointDMAChannel
                0x0000adc2       0x1e .pio/build/lptm4c1294ncpdt/src/Drivers/soc/driverlib/usb.o
                0x0000adc2                USBEndpointDMAChannel
 .text.USBHostMode
                0x0000ade0        0x8 .pio/build/lptm4c1294ncpdt/src/Drivers/soc/driverlib/usb.o
                0x0000ade0                USBHostMode
 .text.USBDevMode
                0x0000ade8        0x8 .pio/build/lptm4c1294ncpdt/src/Drivers/soc/driverlib/usb.o
                0x0000ade8                USBDevMode
 .text.USBOTGMode
                0x0000adf0        0x8 .pio/build/lptm4c1294ncpdt/src/Drivers/soc/driverlib/usb.o
                0x0000adf0                USBOTGMode
 .text.USBModeConfig
                0x0000adf8        0x6 .pio/build/lptm4c1294ncpdt/src/Drivers/soc/driverlib/usb.o
                0x0000adf8                USBModeConfig
 .text.USBPHYPowerOff
                0x0000adfe        0xa .pio/build/lptm4c1294ncpdt/src/Drivers/soc/driverlib/usb.o
                0x0000adfe                USBPHYPowerOff
 .text.USBPHYPowerOn
                0x0000ae08        0xa .pio/build/lptm4c1294ncpdt/src/Drivers/soc/driverlib/usb.o
                0x0000ae08                USBPHYPowerOn
 .text.USBEndpointPacketCountSet
                0x0000ae12       0x12 .pio/build/lptm4c1294ncpdt/src/Drivers/soc/driverlib/usb.o
                0x0000ae12                USBEndpointPacketCountSet
 .text.USBNumEndpointsGet
                0x0000ae24        0xa .pio/build/lptm4c1294ncpdt/src/Drivers/soc/driverlib/usb.o
                0x0000ae24                USBNumEndpointsGet
 .text.USBControllerVersion
                0x0000ae2e        0xa .pio/build/lptm4c1294ncpdt/src/Drivers/soc/driverlib/usb.o
                0x0000ae2e                USBControllerVersion
 .text.USBClockEnable
                0x0000ae38        0xa .pio/build/lptm4c1294ncpdt/src/Drivers/soc/driverlib/usb.o
                0x0000ae38                USBClockEnable
 .text.USBClockDisable
                0x0000ae42        0x8 .pio/build/lptm4c1294ncpdt/src/Drivers/soc/driverlib/usb.o
                0x0000ae42                USBClockDisable
 .text.USBDMAChannelIntEnable
                0x0000ae4a       0x10 .pio/build/lptm4c1294ncpdt/src/Drivers/soc/driverlib/usb.o
                0x0000ae4a                USBDMAChannelIntEnable
 .text.USBDMAChannelIntDisable
                0x0000ae5a       0x10 .pio/build/lptm4c1294ncpdt/src/Drivers/soc/driverlib/usb.o
                0x0000ae5a                USBDMAChannelIntDisable
 .text.USBDMAChannelIntStatus
                0x0000ae6a        0x6 .pio/build/lptm4c1294ncpdt/src/Drivers/soc/driverlib/usb.o
                0x0000ae6a                USBDMAChannelIntStatus
 .text.USBDMAChannelEnable
                0x0000ae70       0x10 .pio/build/lptm4c1294ncpdt/src/Drivers/soc/driverlib/usb.o
                0x0000ae70                USBDMAChannelEnable
 .text.USBDMAChannelDisable
                0x0000ae80       0x10 .pio/build/lptm4c1294ncpdt/src/Drivers/soc/driverlib/usb.o
                0x0000ae80                USBDMAChannelDisable
 .text.USBDMAChannelConfigSet
                0x0000ae90       0x12 .pio/build/lptm4c1294ncpdt/src/Drivers/soc/driverlib/usb.o
                0x0000ae90                USBDMAChannelConfigSet
 .text.USBDMAChannelStatus
                0x0000aea2        0xe .pio/build/lptm4c1294ncpdt/src/Drivers/soc/driverlib/usb.o
                0x0000aea2                USBDMAChannelStatus
 .text.USBDMAChannelStatusClear
                0x0000aeb0       0x14 .pio/build/lptm4c1294ncpdt/src/Drivers/soc/driverlib/usb.o
                0x0000aeb0                USBDMAChannelStatusClear
 .text.USBDMAChannelAddressSet
                0x0000aec4        0xa .pio/build/lptm4c1294ncpdt/src/Drivers/soc/driverlib/usb.o
                0x0000aec4                USBDMAChannelAddressSet
 .text.USBDMAChannelAddressGet
                0x0000aece        0xa .pio/build/lptm4c1294ncpdt/src/Drivers/soc/driverlib/usb.o
                0x0000aece                USBDMAChannelAddressGet
 .text.USBDMAChannelCountSet
                0x0000aed8        0xa .pio/build/lptm4c1294ncpdt/src/Drivers/soc/driverlib/usb.o
                0x0000aed8                USBDMAChannelCountSet
 .text.USBDMAChannelCountGet
                0x0000aee2        0xa .pio/build/lptm4c1294ncpdt/src/Drivers/soc/driverlib/usb.o
                0x0000aee2                USBDMAChannelCountGet
 .text.USBDMANumChannels
                0x0000aeec        0x8 .pio/build/lptm4c1294ncpdt/src/Drivers/soc/driverlib/usb.o
                0x0000aeec                USBDMANumChannels
 .text.USBULPIConfig
                0x0000aef4        0x8 .pio/build/lptm4c1294ncpdt/src/Drivers/soc/driverlib/usb.o
                0x0000aef4                USBULPIConfig
 .text.USBULPIEnable
                0x0000aefc        0xe .pio/build/lptm4c1294ncpdt/src/Drivers/soc/driverlib/usb.o
                0x0000aefc                USBULPIEnable
 .text.USBULPIDisable
                0x0000af0a        0xe .pio/build/lptm4c1294ncpdt/src/Drivers/soc/driverlib/usb.o
                0x0000af0a                USBULPIDisable
 .text.USBULPIRegRead
                0x0000af18       0x20 .pio/build/lptm4c1294ncpdt/src/Drivers/soc/driverlib/usb.o
                0x0000af18                USBULPIRegRead
 .text.USBULPIRegWrite
                0x0000af38       0x20 .pio/build/lptm4c1294ncpdt/src/Drivers/soc/driverlib/usb.o
                0x0000af38                USBULPIRegWrite
 .text.USBHostLPMSend
                0x0000af58       0x28 .pio/build/lptm4c1294ncpdt/src/Drivers/soc/driverlib/usb.o
                0x0000af58                USBHostLPMSend
 .text.USBHostLPMConfig
                0x0000af80       0x14 .pio/build/lptm4c1294ncpdt/src/Drivers/soc/driverlib/usb.o
                0x0000af80                USBHostLPMConfig
 .text.USBHostLPMResume
                0x0000af94        0xe .pio/build/lptm4c1294ncpdt/src/Drivers/soc/driverlib/usb.o
                0x0000af94                USBHostLPMResume
 .text.USBDevLPMRemoteWake
                0x0000afa2        0xe .pio/build/lptm4c1294ncpdt/src/Drivers/soc/driverlib/usb.o
                0x0000afa2                USBDevLPMRemoteWake
 .text.USBDevLPMConfig
                0x0000afb0        0x8 .pio/build/lptm4c1294ncpdt/src/Drivers/soc/driverlib/usb.o
                0x0000afb0                USBDevLPMConfig
 .text.USBDevLPMEnable
                0x0000afb8        0xe .pio/build/lptm4c1294ncpdt/src/Drivers/soc/driverlib/usb.o
                0x0000afb8                USBDevLPMEnable
 .text.USBDevLPMDisable
                0x0000afc6        0xe .pio/build/lptm4c1294ncpdt/src/Drivers/soc/driverlib/usb.o
                0x0000afc6                USBDevLPMDisable
 .text.USBLPMLinkStateGet
                0x0000afd4        0xa .pio/build/lptm4c1294ncpdt/src/Drivers/soc/driverlib/usb.o
                0x0000afd4                USBLPMLinkStateGet
 .text.USBLPMEndpointGet
                0x0000afde        0xc .pio/build/lptm4c1294ncpdt/src/Drivers/soc/driverlib/usb.o
                0x0000afde                USBLPMEndpointGet
 .text.USBLPMRemoteWakeEnabled
                0x0000afea        0xa .pio/build/lptm4c1294ncpdt/src/Drivers/soc/driverlib/usb.o
                0x0000afea                USBLPMRemoteWakeEnabled
 .text.USBLPMIntStatus
                0x0000aff4        0x6 .pio/build/lptm4c1294ncpdt/src/Drivers/soc/driverlib/usb.o
                0x0000aff4                USBLPMIntStatus
 .text.USBLPMIntEnable
                0x0000affa        0xe .pio/build/lptm4c1294ncpdt/src/Drivers/soc/driverlib/usb.o
                0x0000affa                USBLPMIntEnable
 .text.USBLPMIntDisable
                0x0000b008        0xe .pio/build/lptm4c1294ncpdt/src/Drivers/soc/driverlib/usb.o
                0x0000b008                USBLPMIntDisable
 .text          0x0000b016        0x0 .pio/build/lptm4c1294ncpdt/src/Drivers/soc/driverlib/watchdog.o
 .text.WatchdogRunning
                0x0000b016        0x8 .pio/build/lptm4c1294ncpdt/src/Drivers/soc/driverlib/watchdog.o
                0x0000b016                WatchdogRunning
 .text.WatchdogEnable
                0x0000b01e        0xa .pio/build/lptm4c1294ncpdt/src/Drivers/soc/driverlib/watchdog.o
                0x0000b01e                WatchdogEnable
 .text.WatchdogResetEnable
                0x0000b028        0xa .pio/build/lptm4c1294ncpdt/src/Drivers/soc/driverlib/watchdog.o
                0x0000b028                WatchdogResetEnable
 .text.WatchdogResetDisable
                0x0000b032        0xa .pio/build/lptm4c1294ncpdt/src/Drivers/soc/driverlib/watchdog.o
                0x0000b032                WatchdogResetDisable
 .text.WatchdogLock
                0x0000b03c        0x8 .pio/build/lptm4c1294ncpdt/src/Drivers/soc/driverlib/watchdog.o
                0x0000b03c                WatchdogLock
 .text.WatchdogUnlock
                0x0000b044        0xc .pio/build/lptm4c1294ncpdt/src/Drivers/soc/driverlib/watchdog.o
                0x0000b044                WatchdogUnlock
 .text.WatchdogLockState
                0x0000b050        0xc .pio/build/lptm4c1294ncpdt/src/Drivers/soc/driverlib/watchdog.o
                0x0000b050                WatchdogLockState
 .text.WatchdogReloadSet
                0x0000b05c        0x4 .pio/build/lptm4c1294ncpdt/src/Drivers/soc/driverlib/watchdog.o
                0x0000b05c                WatchdogReloadSet
 .text.WatchdogReloadGet
                0x0000b060        0x4 .pio/build/lptm4c1294ncpdt/src/Drivers/soc/driverlib/watchdog.o
                0x0000b060                WatchdogReloadGet
 .text.WatchdogValueGet
                0x0000b064        0x4 .pio/build/lptm4c1294ncpdt/src/Drivers/soc/driverlib/watchdog.o
                0x0000b064                WatchdogValueGet
 .text.WatchdogIntRegister
                0x0000b068       0x12 .pio/build/lptm4c1294ncpdt/src/Drivers/soc/driverlib/watchdog.o
                0x0000b068                WatchdogIntRegister
 .text.WatchdogIntUnregister
                0x0000b07a       0x12 .pio/build/lptm4c1294ncpdt/src/Drivers/soc/driverlib/watchdog.o
                0x0000b07a                WatchdogIntUnregister
 .text.WatchdogIntEnable
                0x0000b08c        0xa .pio/build/lptm4c1294ncpdt/src/Drivers/soc/driverlib/watchdog.o
                0x0000b08c                WatchdogIntEnable
 .text.WatchdogIntStatus
                0x0000b096        0xa .pio/build/lptm4c1294ncpdt/src/Drivers/soc/driverlib/watchdog.o
                0x0000b096                WatchdogIntStatus
 .text.WatchdogIntClear
                0x0000b0a0        0x6 .pio/build/lptm4c1294ncpdt/src/Drivers/soc/driverlib/watchdog.o
                0x0000b0a0                WatchdogIntClear
 .text.WatchdogIntTypeSet
                0x0000b0a6        0xc .pio/build/lptm4c1294ncpdt/src/Drivers/soc/driverlib/watchdog.o
                0x0000b0a6                WatchdogIntTypeSet
 .text.WatchdogStallEnable
                0x0000b0b2        0xe .pio/build/lptm4c1294ncpdt/src/Drivers/soc/driverlib/watchdog.o
                0x0000b0b2                WatchdogStallEnable
 .text.WatchdogStallDisable
                0x0000b0c0        0xe .pio/build/lptm4c1294ncpdt/src/Drivers/soc/driverlib/watchdog.o
                0x0000b0c0                WatchdogStallDisable
 .text          0x0000b0ce        0x0 .pio/build/lptm4c1294ncpdt/src/Drivers/soc/startup_gcc.o
 .text.NmiSR    0x0000b0ce        0x2 .pio/build/lptm4c1294ncpdt/src/Drivers/soc/startup_gcc.o
 .text.FaultISR
                0x0000b0d0        0x2 .pio/build/lptm4c1294ncpdt/src/Drivers/soc/startup_gcc.o
 .text.IntDefaultHandler
                0x0000b0d2        0x2 .pio/build/lptm4c1294ncpdt/src/Drivers/soc/startup_gcc.o
 .text.ResetISR
                0x0000b0d4       0x50 .pio/build/lptm4c1294ncpdt/src/Drivers/soc/startup_gcc.o
                0x0000b0d4                ResetISR
 .text          0x0000b124        0x0 .pio/build/lptm4c1294ncpdt/src/NeonRTOS/HTTPd/HTTPd.o
 .text.GetNumOfHttpdClient
                0x0000b124       0x20 .pio/build/lptm4c1294ncpdt/src/NeonRTOS/HTTPd/HTTPd.o
 .text.HTTPd_isMatch_CGI
                0x0000b144       0xe4 .pio/build/lptm4c1294ncpdt/src/NeonRTOS/HTTPd/HTTPd.o
 .text.HTTP_SendHeader
                0x0000b228      0x104 .pio/build/lptm4c1294ncpdt/src/NeonRTOS/HTTPd/HTTPd.o
 .text.HTTPd_Connection_Timeout_CB
                0x0000b32c       0x40 .pio/build/lptm4c1294ncpdt/src/NeonRTOS/HTTPd/HTTPd.o
 .text.HTTPd_WebsocketServer_Send_Message
                0x0000b36c       0xd4 .pio/build/lptm4c1294ncpdt/src/NeonRTOS/HTTPd/HTTPd.o
 .text.HTTPd_WebsocketServer_Send_Brocast_Message
                0x0000b440       0x38 .pio/build/lptm4c1294ncpdt/src/NeonRTOS/HTTPd/HTTPd.o
 .text.WebsocketServer_SendMessage
                0x0000b478       0x10 .pio/build/lptm4c1294ncpdt/src/NeonRTOS/HTTPd/HTTPd.o
                0x0000b478                WebsocketServer_SendMessage
 .text.WebsocketServer_SendBrocastMessage
                0x0000b488        0xa .pio/build/lptm4c1294ncpdt/src/NeonRTOS/HTTPd/HTTPd.o
                0x0000b488                WebsocketServer_SendBrocastMessage
 .text.WebsocketServer_SendJSONMessage
                0x0000b492       0x54 .pio/build/lptm4c1294ncpdt/src/NeonRTOS/HTTPd/HTTPd.o
                0x0000b492                WebsocketServer_SendJSONMessage
 .text.WebsocketServer_SendBrocastJSONMessage
                0x0000b4e6       0x4e .pio/build/lptm4c1294ncpdt/src/NeonRTOS/HTTPd/HTTPd.o
                0x0000b4e6                WebsocketServer_SendBrocastJSONMessage
 .text.WebsocketServer_RegisterMsgCallback
                0x0000b534        0xc .pio/build/lptm4c1294ncpdt/src/NeonRTOS/HTTPd/HTTPd.o
                0x0000b534                WebsocketServer_RegisterMsgCallback
 .text.WebSocketServer_CreateAcceptKey
                0x0000b540       0x54 .pio/build/lptm4c1294ncpdt/src/NeonRTOS/HTTPd/HTTPd.o
                0x0000b540                WebSocketServer_CreateAcceptKey
 .text.WebSocketServer_ReceiveWsFrame
                0x0000b594       0xe8 .pio/build/lptm4c1294ncpdt/src/NeonRTOS/HTTPd/HTTPd.o
                0x0000b594                WebSocketServer_ReceiveWsFrame
 .text.HTTPd_Parse_InMsg_Headers
                0x0000b67c      0x23c .pio/build/lptm4c1294ncpdt/src/NeonRTOS/HTTPd/HTTPd.o
                0x0000b67c                HTTPd_Parse_InMsg_Headers
 .text.HTTPd_Register_CGI_URL_Callback
                0x0000b8b8       0x74 .pio/build/lptm4c1294ncpdt/src/NeonRTOS/HTTPd/HTTPd.o
                0x0000b8b8                HTTPd_Register_CGI_URL_Callback
 .text.HTTPd_UnRegister_CGI_URL_Callback
                0x0000b92c       0x54 .pio/build/lptm4c1294ncpdt/src/NeonRTOS/HTTPd/HTTPd.o
                0x0000b92c                HTTPd_UnRegister_CGI_URL_Callback
 .text.HTTPd_Get_CGI_Request_Type
                0x0000b980        0x6 .pio/build/lptm4c1294ncpdt/src/NeonRTOS/HTTPd/HTTPd.o
                0x0000b980                HTTPd_Get_CGI_Request_Type
 .text.HTTPd_Get_CGI_Request_URL
                0x0000b986        0x4 .pio/build/lptm4c1294ncpdt/src/NeonRTOS/HTTPd/HTTPd.o
                0x0000b986                HTTPd_Get_CGI_Request_URL
 .text.HTTPd_Get_CGI_Request_Data
                0x0000b98a        0x4 .pio/build/lptm4c1294ncpdt/src/NeonRTOS/HTTPd/HTTPd.o
                0x0000b98a                HTTPd_Get_CGI_Request_Data
 .text.HTTPd_CGI_PathStartsWith
                0x0000b98e       0x2e .pio/build/lptm4c1294ncpdt/src/NeonRTOS/HTTPd/HTTPd.o
                0x0000b98e                HTTPd_CGI_PathStartsWith
 .text.HTTPd_CGI_ParseUint
                0x0000b9bc       0x28 .pio/build/lptm4c1294ncpdt/src/NeonRTOS/HTTPd/HTTPd.o
                0x0000b9bc                HTTPd_CGI_ParseUint
 .text.HTTPd_Send_CGI_Response
                0x0000b9e4      0x124 .pio/build/lptm4c1294ncpdt/src/NeonRTOS/HTTPd/HTTPd.o
                0x0000b9e4                HTTPd_Send_CGI_Response
 .text.HTTPd_Send_CGI_JSON_Response
                0x0000bb08       0x60 .pio/build/lptm4c1294ncpdt/src/NeonRTOS/HTTPd/HTTPd.o
                0x0000bb08                HTTPd_Send_CGI_JSON_Response
 .text.HTTPdGetMimetype
                0x0000bb68       0x50 .pio/build/lptm4c1294ncpdt/src/NeonRTOS/HTTPd/HTTPd.o
                0x0000bb68                HTTPdGetMimetype
 .text.HTTPd_SendWebFile
                0x0000bbb8       0x84 .pio/build/lptm4c1294ncpdt/src/NeonRTOS/HTTPd/HTTPd.o
                0x0000bbb8                HTTPd_SendWebFile
 .text.HTTPd_Redirect
                0x0000bc3c       0xf8 .pio/build/lptm4c1294ncpdt/src/NeonRTOS/HTTPd/HTTPd.o
                0x0000bc3c                HTTPd_Redirect
 .text.HTTPd_NotFound
                0x0000bd34      0x100 .pio/build/lptm4c1294ncpdt/src/NeonRTOS/HTTPd/HTTPd.o
                0x0000bd34                HTTPd_NotFound
 .text.HTTPdSendApiDebugToolPage
                0x0000be34       0x3c .pio/build/lptm4c1294ncpdt/src/NeonRTOS/HTTPd/HTTPd.o
                0x0000be34                HTTPdSendApiDebugToolPage
 .text.cgiDebugPage
                0x0000be70       0x14 .pio/build/lptm4c1294ncpdt/src/NeonRTOS/HTTPd/HTTPd.o
                0x0000be70                cgiDebugPage
 .text.HTTPd_Process_POST_Request
                0x0000be84       0x6a .pio/build/lptm4c1294ncpdt/src/NeonRTOS/HTTPd/HTTPd.o
                0x0000be84                HTTPd_Process_POST_Request
 *fill*         0x0000beee        0x2 
 .text.HTTPd_Process_GET_Request
                0x0000bef0       0xe4 .pio/build/lptm4c1294ncpdt/src/NeonRTOS/HTTPd/HTTPd.o
                0x0000bef0                HTTPd_Process_GET_Request
 .text.HTTPd_Process_PUT_Request
                0x0000bfd4       0x30 .pio/build/lptm4c1294ncpdt/src/NeonRTOS/HTTPd/HTTPd.o
                0x0000bfd4                HTTPd_Process_PUT_Request
 .text.HTTPd_Process_DELETE_Request
                0x0000c004       0x30 .pio/build/lptm4c1294ncpdt/src/NeonRTOS/HTTPd/HTTPd.o
                0x0000c004                HTTPd_Process_DELETE_Request
 .text.HTTP_Server_Task
                0x0000c034      0x804 .pio/build/lptm4c1294ncpdt/src/NeonRTOS/HTTPd/HTTPd.o
                0x0000c034                HTTP_Server_Task
 .text.HTTPd_Init
                0x0000c838       0x3c .pio/build/lptm4c1294ncpdt/src/NeonRTOS/HTTPd/HTTPd.o
                0x0000c838                HTTPd_Init
 .text          0x0000c874        0x0 .pio/build/lptm4c1294ncpdt/src/NeonRTOS/HTTPd/HTTPd_Utils.o
 .text.HTTPd_Parse_Status_Code
                0x0000c874       0x8c .pio/build/lptm4c1294ncpdt/src/NeonRTOS/HTTPd/HTTPd_Utils.o
                0x0000c874                HTTPd_Parse_Status_Code
 .text.HTTPd_Parse_Reguest_Method
                0x0000c900       0xc8 .pio/build/lptm4c1294ncpdt/src/NeonRTOS/HTTPd/HTTPd_Utils.o
                0x0000c900                HTTPd_Parse_Reguest_Method
 .text.HTTPd_Parse_Headers
                0x0000c9c8       0x58 .pio/build/lptm4c1294ncpdt/src/NeonRTOS/HTTPd/HTTPd_Utils.o
                0x0000c9c8                HTTPd_Parse_Headers
 .text.HTTPd_Parse_End_Of_Headers
                0x0000ca20       0x30 .pio/build/lptm4c1294ncpdt/src/NeonRTOS/HTTPd/HTTPd_Utils.o
                0x0000ca20                HTTPd_Parse_End_Of_Headers
 .text.HTTPd_Get_Header_Value
                0x0000ca50       0x60 .pio/build/lptm4c1294ncpdt/src/NeonRTOS/HTTPd/HTTPd_Utils.o
                0x0000ca50                HTTPd_Get_Header_Value
 .text.HTTPd_Get_Host
                0x0000cab0        0xc .pio/build/lptm4c1294ncpdt/src/NeonRTOS/HTTPd/HTTPd_Utils.o
                0x0000cab0                HTTPd_Get_Host
 .text.HTTPd_Get_Header_Method
                0x0000cabc       0x70 .pio/build/lptm4c1294ncpdt/src/NeonRTOS/HTTPd/HTTPd_Utils.o
                0x0000cabc                HTTPd_Get_Header_Method
 .text.HTTPd_Get_Header_Path
                0x0000cb2c       0x70 .pio/build/lptm4c1294ncpdt/src/NeonRTOS/HTTPd/HTTPd_Utils.o
                0x0000cb2c                HTTPd_Get_Header_Path
 .text          0x0000cb9c        0x0 .pio/build/lptm4c1294ncpdt/src/NeonRTOS/HTTPd/HTTPd_def.o
 .text          0x0000cb9c        0x0 .pio/build/lptm4c1294ncpdt/src/NeonRTOS/HTTPd/NeonRtFs.o
 .text.NeonRtFsInit
                0x0000cb9c       0x24 .pio/build/lptm4c1294ncpdt/src/NeonRTOS/HTTPd/NeonRtFs.o
                0x0000cb9c                NeonRtFsInit
 .text.readFlashUnaligned
                0x0000cbc0        0xa .pio/build/lptm4c1294ncpdt/src/NeonRTOS/HTTPd/NeonRtFs.o
                0x0000cbc0                readFlashUnaligned
 .text.NeonRtFsFlags
                0x0000cbca        0xe .pio/build/lptm4c1294ncpdt/src/NeonRTOS/HTTPd/NeonRtFs.o
                0x0000cbca                NeonRtFsFlags
 .text.NeonRtFsOpen
                0x0000cbd8      0x130 .pio/build/lptm4c1294ncpdt/src/NeonRTOS/HTTPd/NeonRtFs.o
                0x0000cbd8                NeonRtFsOpen
 .text.NeonRtFsRead
                0x0000cd08       0x3a .pio/build/lptm4c1294ncpdt/src/NeonRTOS/HTTPd/NeonRtFs.o
                0x0000cd08                NeonRtFsRead
 .text.NeonRtFsClose
                0x0000cd42        0x8 .pio/build/lptm4c1294ncpdt/src/NeonRTOS/HTTPd/NeonRtFs.o
                0x0000cd42                NeonRtFsClose
 .text          0x0000cd4a        0x0 .pio/build/lptm4c1294ncpdt/src/NeonRTOS/HTTPd/heatshrink_decoder.o
 .text.get_bits
                0x0000cd4a       0x70 .pio/build/lptm4c1294ncpdt/src/NeonRTOS/HTTPd/heatshrink_decoder.o
 .text.heatshrink_decoder_free
                0x0000cdba        0x4 .pio/build/lptm4c1294ncpdt/src/NeonRTOS/HTTPd/heatshrink_decoder.o
                0x0000cdba                heatshrink_decoder_free
 .text.heatshrink_decoder_reset
                0x0000cdbe       0x2c .pio/build/lptm4c1294ncpdt/src/NeonRTOS/HTTPd/heatshrink_decoder.o
                0x0000cdbe                heatshrink_decoder_reset
 .text.heatshrink_decoder_alloc
                0x0000cdea       0x3e .pio/build/lptm4c1294ncpdt/src/NeonRTOS/HTTPd/heatshrink_decoder.o
                0x0000cdea                heatshrink_decoder_alloc
 .text.heatshrink_decoder_sink
                0x0000ce28       0x46 .pio/build/lptm4c1294ncpdt/src/NeonRTOS/HTTPd/heatshrink_decoder.o
                0x0000ce28                heatshrink_decoder_sink
 .text.heatshrink_decoder_poll
                0x0000ce6e      0x1aa .pio/build/lptm4c1294ncpdt/src/NeonRTOS/HTTPd/heatshrink_decoder.o
                0x0000ce6e                heatshrink_decoder_poll
 .text.heatshrink_decoder_finish
                0x0000d018       0x2c .pio/build/lptm4c1294ncpdt/src/NeonRTOS/HTTPd/heatshrink_decoder.o
                0x0000d018                heatshrink_decoder_finish
 .text          0x0000d044        0x0 .pio/build/lptm4c1294ncpdt/src/NeonRTOS/HTTPd/neonrtfs_img.o
 .text          0x0000d044        0x0 .pio/build/lptm4c1294ncpdt/src/NeonRTOS/NeonAppInterface.o
 .text.Network_CGI_Root
                0x0000d044      0x1d0 .pio/build/lptm4c1294ncpdt/src/NeonRTOS/NeonAppInterface.o
                0x0000d044                Network_CGI_Root
 .text.Network_CGI_IpAddr
                0x0000d214      0x134 .pio/build/lptm4c1294ncpdt/src/NeonRTOS/NeonAppInterface.o
                0x0000d214                Network_CGI_IpAddr
 .text.Network_CGI_Gateway
                0x0000d348      0x134 .pio/build/lptm4c1294ncpdt/src/NeonRTOS/NeonAppInterface.o
                0x0000d348                Network_CGI_Gateway
 .text.Network_CGI_Netmask
                0x0000d47c      0x134 .pio/build/lptm4c1294ncpdt/src/NeonRTOS/NeonAppInterface.o
                0x0000d47c                Network_CGI_Netmask
 .text.Init_Thread
                0x0000d5b0       0xe4 .pio/build/lptm4c1294ncpdt/src/NeonRTOS/NeonAppInterface.o
                0x0000d5b0                Init_Thread
 .text.Process_Websocket_Incomming_Message
                0x0000d694      0x14c .pio/build/lptm4c1294ncpdt/src/NeonRTOS/NeonAppInterface.o
                0x0000d694                Process_Websocket_Incomming_Message
 .text.Register_Neon_APP_Interface_Msg_CallBack
                0x0000d7e0       0xb4 .pio/build/lptm4c1294ncpdt/src/NeonRTOS/NeonAppInterface.o
                0x0000d7e0                Register_Neon_APP_Interface_Msg_CallBack
 .text.UnRegister_Neon_APP_Interface_Msg_CallBack
                0x0000d894       0x64 .pio/build/lptm4c1294ncpdt/src/NeonRTOS/NeonAppInterface.o
                0x0000d894                UnRegister_Neon_APP_Interface_Msg_CallBack
 .text.Neon_App_Init
                0x0000d8f8       0x3c .pio/build/lptm4c1294ncpdt/src/NeonRTOS/NeonAppInterface.o
                0x0000d8f8                Neon_App_Init
 .text          0x0000d934        0x0 .pio/build/lptm4c1294ncpdt/src/NeonRTOS/NeonRTOS.o
 .text.NeonRTOS_SyncObjCreate
                0x0000d934       0x22 .pio/build/lptm4c1294ncpdt/src/NeonRTOS/NeonRTOS.o
                0x0000d934                NeonRTOS_SyncObjCreate
 .text.NeonRTOS_SyncObjDelete
                0x0000d956       0x14 .pio/build/lptm4c1294ncpdt/src/NeonRTOS/NeonRTOS.o
                0x0000d956                NeonRTOS_SyncObjDelete
 .text.NeonRTOS_SyncObjSignal
                0x0000d96a       0x1a .pio/build/lptm4c1294ncpdt/src/NeonRTOS/NeonRTOS.o
                0x0000d96a                NeonRTOS_SyncObjSignal
 .text.NeonRTOS_SyncObjSignalFromISR
                0x0000d984       0x40 .pio/build/lptm4c1294ncpdt/src/NeonRTOS/NeonRTOS.o
                0x0000d984                NeonRTOS_SyncObjSignalFromISR
 .text.NeonRTOS_SyncObjWait
                0x0000d9c4       0x1a .pio/build/lptm4c1294ncpdt/src/NeonRTOS/NeonRTOS.o
                0x0000d9c4                NeonRTOS_SyncObjWait
 .text.NeonRTOS_SyncObjClear
                0x0000d9de       0x1a .pio/build/lptm4c1294ncpdt/src/NeonRTOS/NeonRTOS.o
                0x0000d9de                NeonRTOS_SyncObjClear
 .text.NeonRTOS_CountingObjCreate
                0x0000d9f8       0x20 .pio/build/lptm4c1294ncpdt/src/NeonRTOS/NeonRTOS.o
                0x0000d9f8                NeonRTOS_CountingObjCreate
 .text.NeonRTOS_CountingObjDelete
                0x0000da18       0x14 .pio/build/lptm4c1294ncpdt/src/NeonRTOS/NeonRTOS.o
                0x0000da18                NeonRTOS_CountingObjDelete
 .text.NeonRTOS_CountingObjIncrease
                0x0000da2c       0x1a .pio/build/lptm4c1294ncpdt/src/NeonRTOS/NeonRTOS.o
                0x0000da2c                NeonRTOS_CountingObjIncrease
 *fill*         0x0000da46        0x2 
 .text.NeonRTOS_CounterObjIncreaseFromISR
                0x0000da48       0x40 .pio/build/lptm4c1294ncpdt/src/NeonRTOS/NeonRTOS.o
                0x0000da48                NeonRTOS_CounterObjIncreaseFromISR
 .text.NeonRTOS_CountingObjWait
                0x0000da88       0x1a .pio/build/lptm4c1294ncpdt/src/NeonRTOS/NeonRTOS.o
                0x0000da88                NeonRTOS_CountingObjWait
 .text.NeonRTOS_CountingObjGetCount
                0x0000daa2       0x18 .pio/build/lptm4c1294ncpdt/src/NeonRTOS/NeonRTOS.o
                0x0000daa2                NeonRTOS_CountingObjGetCount
 .text.NeonRTOS_CountingObjClear
                0x0000daba       0x34 .pio/build/lptm4c1294ncpdt/src/NeonRTOS/NeonRTOS.o
                0x0000daba                NeonRTOS_CountingObjClear
 .text.NeonRTOS_LockObjCreate
                0x0000daee       0x18 .pio/build/lptm4c1294ncpdt/src/NeonRTOS/NeonRTOS.o
                0x0000daee                NeonRTOS_LockObjCreate
 .text.NeonRTOS_TaskCreate
                0x0000db06       0x1e .pio/build/lptm4c1294ncpdt/src/NeonRTOS/NeonRTOS.o
                0x0000db06                NeonRTOS_TaskCreate
 .text.NeonRTOS_TaskDelete
                0x0000db24        0x6 .pio/build/lptm4c1294ncpdt/src/NeonRTOS/NeonRTOS.o
                0x0000db24                NeonRTOS_TaskDelete
 .text.NeonRTOS_TaskSuspend
                0x0000db2a        0x6 .pio/build/lptm4c1294ncpdt/src/NeonRTOS/NeonRTOS.o
                0x0000db2a                NeonRTOS_TaskSuspend
 .text.NeonRTOS_TaskResume
                0x0000db30        0x6 .pio/build/lptm4c1294ncpdt/src/NeonRTOS/NeonRTOS.o
                0x0000db30                NeonRTOS_TaskResume
 .text.NeonRTOS_TaskGetTickCount
                0x0000db36        0x4 .pio/build/lptm4c1294ncpdt/src/NeonRTOS/NeonRTOS.o
                0x0000db36                NeonRTOS_TaskGetTickCount
 .text.NeonRTOS_LockObjDelete
                0x0000db3a        0xc .pio/build/lptm4c1294ncpdt/src/NeonRTOS/NeonRTOS.o
                0x0000db3a                NeonRTOS_LockObjDelete
 .text.NeonRTOS_LockObjLock
                0x0000db46       0x1a .pio/build/lptm4c1294ncpdt/src/NeonRTOS/NeonRTOS.o
                0x0000db46                NeonRTOS_LockObjLock
 .text.NeonRTOS_LockObjUnlock
                0x0000db60       0x20 .pio/build/lptm4c1294ncpdt/src/NeonRTOS/NeonRTOS.o
                0x0000db60                NeonRTOS_LockObjUnlock
 .text.NeonRTOS_MsgQCreate
                0x0000db80       0x2e .pio/build/lptm4c1294ncpdt/src/NeonRTOS/NeonRTOS.o
                0x0000db80                NeonRTOS_MsgQCreate
 .text.NeonRTOS_MsgQDelete
                0x0000dbae       0x14 .pio/build/lptm4c1294ncpdt/src/NeonRTOS/NeonRTOS.o
                0x0000dbae                NeonRTOS_MsgQDelete
 *fill*         0x0000dbc2        0x2 
 .text.NeonRTOS_MsgQWrite
                0x0000dbc4       0x38 .pio/build/lptm4c1294ncpdt/src/NeonRTOS/NeonRTOS.o
                0x0000dbc4                NeonRTOS_MsgQWrite
 .text.NeonRTOS_MsgQRead
                0x0000dbfc       0x1a .pio/build/lptm4c1294ncpdt/src/NeonRTOS/NeonRTOS.o
                0x0000dbfc                NeonRTOS_MsgQRead
 .text.NeonRTOS_TimerCreate
                0x0000dc16       0x2e .pio/build/lptm4c1294ncpdt/src/NeonRTOS/NeonRTOS.o
                0x0000dc16                NeonRTOS_TimerCreate
 .text.NeonRTOS_TimerDelete
                0x0000dc44       0x16 .pio/build/lptm4c1294ncpdt/src/NeonRTOS/NeonRTOS.o
                0x0000dc44                NeonRTOS_TimerDelete
 *fill*         0x0000dc5a        0x2 
 .text.NeonRTOS_TimerChangePeriod
                0x0000dc5c       0x2c .pio/build/lptm4c1294ncpdt/src/NeonRTOS/NeonRTOS.o
                0x0000dc5c                NeonRTOS_TimerChangePeriod
 .text.NeonRTOS_TimerStart
                0x0000dc88       0x30 .pio/build/lptm4c1294ncpdt/src/NeonRTOS/NeonRTOS.o
                0x0000dc88                NeonRTOS_TimerStart
 .text.NeonRTOS_TimerStop
                0x0000dcb8       0x2c .pio/build/lptm4c1294ncpdt/src/NeonRTOS/NeonRTOS.o
                0x0000dcb8                NeonRTOS_TimerStop
 .text.NeonRTOS_TimerReStart
                0x0000dce4       0x30 .pio/build/lptm4c1294ncpdt/src/NeonRTOS/NeonRTOS.o
                0x0000dce4                NeonRTOS_TimerReStart
 .text.NeonRTOS_GetTimerID
                0x0000dd14       0x20 .pio/build/lptm4c1294ncpdt/src/NeonRTOS/NeonRTOS.o
                0x0000dd14                NeonRTOS_GetTimerID
 .text.NeonRTOS_PendingFunctionCall
                0x0000dd34       0x20 .pio/build/lptm4c1294ncpdt/src/NeonRTOS/NeonRTOS.o
                0x0000dd34                NeonRTOS_PendingFunctionCall
 .text.mem_Malloc
                0x0000dd54        0x4 .pio/build/lptm4c1294ncpdt/src/NeonRTOS/NeonRTOS.o
                0x0000dd54                mem_Malloc
 .text.mem_Free
                0x0000dd58        0x4 .pio/build/lptm4c1294ncpdt/src/NeonRTOS/NeonRTOS.o
                0x0000dd58                mem_Free
 .text.mem_Realloc
                0x0000dd5c       0x56 .pio/build/lptm4c1294ncpdt/src/NeonRTOS/NeonRTOS.o
                0x0000dd5c                mem_Realloc
 .text.NeonRTOS_GetFreeHeapSize
                0x0000ddb2        0x4 .pio/build/lptm4c1294ncpdt/src/NeonRTOS/NeonRTOS.o
                0x0000ddb2                NeonRTOS_GetFreeHeapSize
 .text.mem_set  0x0000ddb6        0x4 .pio/build/lptm4c1294ncpdt/src/NeonRTOS/NeonRTOS.o
                0x0000ddb6                mem_set
 .text.mem_copy
                0x0000ddba        0x4 .pio/build/lptm4c1294ncpdt/src/NeonRTOS/NeonRTOS.o
                0x0000ddba                mem_copy
 .text.NeonRTOS_DisableAllInterrupts
                0x0000ddbe       0x14 .pio/build/lptm4c1294ncpdt/src/NeonRTOS/NeonRTOS.o
                0x0000ddbe                NeonRTOS_DisableAllInterrupts
 .text.NeonRTOS_EnableAllInterrupts
                0x0000ddd2        0x8 .pio/build/lptm4c1294ncpdt/src/NeonRTOS/NeonRTOS.o
                0x0000ddd2                NeonRTOS_EnableAllInterrupts
 .text.NeonRTOS_EnterCritical
                0x0000ddda        0xa .pio/build/lptm4c1294ncpdt/src/NeonRTOS/NeonRTOS.o
                0x0000ddda                NeonRTOS_EnterCritical
 .text.NeonRTOS_ExitCritical
                0x0000dde4        0x4 .pio/build/lptm4c1294ncpdt/src/NeonRTOS/NeonRTOS.o
                0x0000dde4                NeonRTOS_ExitCritical
 .text.NeonRTOS_GetOsVersion
                0x0000dde8        0x8 .pio/build/lptm4c1294ncpdt/src/NeonRTOS/NeonRTOS.o
                0x0000dde8                NeonRTOS_GetOsVersion
 .text.NeonRTOS_start
                0x0000ddf0        0x4 .pio/build/lptm4c1294ncpdt/src/NeonRTOS/NeonRTOS.o
                0x0000ddf0                NeonRTOS_start
 .text.NeonRTOS_Sleep
                0x0000ddf4        0x4 .pio/build/lptm4c1294ncpdt/src/NeonRTOS/NeonRTOS.o
                0x0000ddf4                NeonRTOS_Sleep
 .text.NeonRTOS_TaskDisable
                0x0000ddf8        0xa .pio/build/lptm4c1294ncpdt/src/NeonRTOS/NeonRTOS.o
                0x0000ddf8                NeonRTOS_TaskDisable
 .text.NeonRTOS_TaskEnable
                0x0000de02        0x4 .pio/build/lptm4c1294ncpdt/src/NeonRTOS/NeonRTOS.o
                0x0000de02                NeonRTOS_TaskEnable
 .text.NeonRTOS_TaskSetPriority
                0x0000de06        0x6 .pio/build/lptm4c1294ncpdt/src/NeonRTOS/NeonRTOS.o
                0x0000de06                NeonRTOS_TaskSetPriority
 .text          0x0000de0c        0x0 .pio/build/lptm4c1294ncpdt/src/NeonRTOS/NeonTCPIP.o
 .text.dns_callback
                0x0000de0c        0xc .pio/build/lptm4c1294ncpdt/src/NeonRTOS/NeonTCPIP.o
                0x0000de0c                dns_callback
 .text.NeonTCPIP_ETH_Poll
                0x0000de18       0x34 .pio/build/lptm4c1294ncpdt/src/NeonRTOS/NeonTCPIP.o
 .text.NeonTCPIP_Task
                0x0000de4c        0xe .pio/build/lptm4c1294ncpdt/src/NeonRTOS/NeonTCPIP.o
                0x0000de4c                NeonTCPIP_Task
 *fill*         0x0000de5a        0x2 
 .text.NeonTCPIP_ETH_Init
                0x0000de5c       0xdc .pio/build/lptm4c1294ncpdt/src/NeonRTOS/NeonTCPIP.o
 .text.NeonTCPIP_init
                0x0000df38       0x68 .pio/build/lptm4c1294ncpdt/src/NeonRTOS/NeonTCPIP.o
                0x0000df38                NeonTCPIP_init
 .text.NeonTCPIP_IF_isInit
                0x0000dfa0        0x4 .pio/build/lptm4c1294ncpdt/src/NeonRTOS/NeonTCPIP.o
                0x0000dfa0                NeonTCPIP_IF_isInit
 .text.NeonTCPIP_IF_isLinkUp
                0x0000dfa4       0x10 .pio/build/lptm4c1294ncpdt/src/NeonRTOS/NeonTCPIP.o
                0x0000dfa4                NeonTCPIP_IF_isLinkUp
 .text.NeonTCPIP_IF_Update_Addresses
                0x0000dfb4       0x20 .pio/build/lptm4c1294ncpdt/src/NeonRTOS/NeonTCPIP.o
                0x0000dfb4                NeonTCPIP_IF_Update_Addresses
 .text.NeonTCPIP_IF_Get_IP_Address
                0x0000dfd4        0xc .pio/build/lptm4c1294ncpdt/src/NeonRTOS/NeonTCPIP.o
                0x0000dfd4                NeonTCPIP_IF_Get_IP_Address
 .text.NeonTCPIP_IF_Set_IP_Address
                0x0000dfe0       0x24 .pio/build/lptm4c1294ncpdt/src/NeonRTOS/NeonTCPIP.o
                0x0000dfe0                NeonTCPIP_IF_Set_IP_Address
 .text.NeonTCPIP_IF_Get_Gateway_Address
                0x0000e004        0xc .pio/build/lptm4c1294ncpdt/src/NeonRTOS/NeonTCPIP.o
                0x0000e004                NeonTCPIP_IF_Get_Gateway_Address
 .text.NeonTCPIP_IF_Set_Gateway_Address
                0x0000e010       0x24 .pio/build/lptm4c1294ncpdt/src/NeonRTOS/NeonTCPIP.o
                0x0000e010                NeonTCPIP_IF_Set_Gateway_Address
 .text.NeonTCPIP_IF_Get_NetMask_Address
                0x0000e034        0xc .pio/build/lptm4c1294ncpdt/src/NeonRTOS/NeonTCPIP.o
                0x0000e034                NeonTCPIP_IF_Get_NetMask_Address
 .text.NeonTCPIP_IF_Set_NetMask_Address
                0x0000e040       0x24 .pio/build/lptm4c1294ncpdt/src/NeonRTOS/NeonTCPIP.o
                0x0000e040                NeonTCPIP_IF_Set_NetMask_Address
 .text.NeonTCPIP_IF_Get_DNS_Address
                0x0000e064        0xc .pio/build/lptm4c1294ncpdt/src/NeonRTOS/NeonTCPIP.o
                0x0000e064                NeonTCPIP_IF_Get_DNS_Address
 .text.ethernetif_notify_conn_changed
                0x0000e070       0x20 .pio/build/lptm4c1294ncpdt/src/NeonRTOS/NeonTCPIP.o
                0x0000e070                ethernetif_notify_conn_changed
 .text.NeonTCPIP_DNS_Init
                0x0000e090       0x2e .pio/build/lptm4c1294ncpdt/src/NeonRTOS/NeonTCPIP.o
                0x0000e090                NeonTCPIP_DNS_Init
 *fill*         0x0000e0be        0x2 
 .text.NeonTCPIP_DNS_GetHostByName
                0x0000e0c0       0x50 .pio/build/lptm4c1294ncpdt/src/NeonRTOS/NeonTCPIP.o
                0x0000e0c0                NeonTCPIP_DNS_GetHostByName
 .text.u8_to_ip_addr
                0x0000e110       0x1e .pio/build/lptm4c1294ncpdt/src/NeonRTOS/NeonTCPIP.o
                0x0000e110                u8_to_ip_addr
 .text.ip_addr_to_u32
                0x0000e12e        0x4 .pio/build/lptm4c1294ncpdt/src/NeonRTOS/NeonTCPIP.o
                0x0000e12e                ip_addr_to_u32
 .text.ip_string_to_u32
                0x0000e132       0x12 .pio/build/lptm4c1294ncpdt/src/NeonRTOS/NeonTCPIP.o
                0x0000e132                ip_string_to_u32
 .text.ip_u32_to_string
                0x0000e144       0x28 .pio/build/lptm4c1294ncpdt/src/NeonRTOS/NeonTCPIP.o
                0x0000e144                ip_u32_to_string
 .text          0x0000e16c        0x0 .pio/build/lptm4c1294ncpdt/src/NeonRTOS/kernel/croutine.o
 .text.xCoRoutineCreate
                0x0000e16c       0xc4 .pio/build/lptm4c1294ncpdt/src/NeonRTOS/kernel/croutine.o
                0x0000e16c                xCoRoutineCreate
 .text.vCoRoutineAddToDelayedList
                0x0000e230       0x4c .pio/build/lptm4c1294ncpdt/src/NeonRTOS/kernel/croutine.o
                0x0000e230                vCoRoutineAddToDelayedList
 .text.vCoRoutineSchedule
                0x0000e27c      0x164 .pio/build/lptm4c1294ncpdt/src/NeonRTOS/kernel/croutine.o
                0x0000e27c                vCoRoutineSchedule
 .text.xCoRoutineRemoveFromEventList
                0x0000e3e0       0x34 .pio/build/lptm4c1294ncpdt/src/NeonRTOS/kernel/croutine.o
                0x0000e3e0                xCoRoutineRemoveFromEventList
 .text.vCoRoutineResetState
                0x0000e414       0x3c .pio/build/lptm4c1294ncpdt/src/NeonRTOS/kernel/croutine.o
                0x0000e414                vCoRoutineResetState
 .text          0x0000e450        0x0 .pio/build/lptm4c1294ncpdt/src/NeonRTOS/kernel/event_groups.o
 .text.xEventGroupCreate
                0x0000e450       0x1a .pio/build/lptm4c1294ncpdt/src/NeonRTOS/kernel/event_groups.o
                0x0000e450                xEventGroupCreate
 *fill*         0x0000e46a        0x2 
 .text.xEventGroupWaitBits
                0x0000e46c      0x114 .pio/build/lptm4c1294ncpdt/src/NeonRTOS/kernel/event_groups.o
                0x0000e46c                xEventGroupWaitBits
 .text.xEventGroupClearBits
                0x0000e580       0x46 .pio/build/lptm4c1294ncpdt/src/NeonRTOS/kernel/event_groups.o
                0x0000e580                xEventGroupClearBits
 .text.vEventGroupClearBitsCallback
                0x0000e5c6        0x4 .pio/build/lptm4c1294ncpdt/src/NeonRTOS/kernel/event_groups.o
                0x0000e5c6                vEventGroupClearBitsCallback
 *fill*         0x0000e5ca        0x2 
 .text.xEventGroupClearBitsFromISR
                0x0000e5cc       0x14 .pio/build/lptm4c1294ncpdt/src/NeonRTOS/kernel/event_groups.o
                0x0000e5cc                xEventGroupClearBitsFromISR
 .text.xEventGroupGetBitsFromISR
                0x0000e5e0       0x1c .pio/build/lptm4c1294ncpdt/src/NeonRTOS/kernel/event_groups.o
                0x0000e5e0                xEventGroupGetBitsFromISR
 .text.xEventGroupSetBits
                0x0000e5fc       0x84 .pio/build/lptm4c1294ncpdt/src/NeonRTOS/kernel/event_groups.o
                0x0000e5fc                xEventGroupSetBits
 .text.xEventGroupSync
                0x0000e680       0xdc .pio/build/lptm4c1294ncpdt/src/NeonRTOS/kernel/event_groups.o
                0x0000e680                xEventGroupSync
 .text.vEventGroupSetBitsCallback
                0x0000e75c        0x4 .pio/build/lptm4c1294ncpdt/src/NeonRTOS/kernel/event_groups.o
                0x0000e75c                vEventGroupSetBitsCallback
 .text.vEventGroupDelete
                0x0000e760       0x54 .pio/build/lptm4c1294ncpdt/src/NeonRTOS/kernel/event_groups.o
                0x0000e760                vEventGroupDelete
 .text.xEventGroupSetBitsFromISR
                0x0000e7b4       0x1c .pio/build/lptm4c1294ncpdt/src/NeonRTOS/kernel/event_groups.o
                0x0000e7b4                xEventGroupSetBitsFromISR
 .text.uxEventGroupGetNumber
                0x0000e7d0        0x6 .pio/build/lptm4c1294ncpdt/src/NeonRTOS/kernel/event_groups.o
                0x0000e7d0                uxEventGroupGetNumber
 .text.vEventGroupSetNumber
                0x0000e7d6        0x4 .pio/build/lptm4c1294ncpdt/src/NeonRTOS/kernel/event_groups.o
                0x0000e7d6                vEventGroupSetNumber
 .text          0x0000e7da        0x0 .pio/build/lptm4c1294ncpdt/src/NeonRTOS/kernel/list.o
 .text.vListInitialise
                0x0000e7da       0x16 .pio/build/lptm4c1294ncpdt/src/NeonRTOS/kernel/list.o
                0x0000e7da                vListInitialise
 .text.vListInitialiseItem
                0x0000e7f0        0x6 .pio/build/lptm4c1294ncpdt/src/NeonRTOS/kernel/list.o
                0x0000e7f0                vListInitialiseItem
 .text.vListInsertEnd
                0x0000e7f6       0x18 .pio/build/lptm4c1294ncpdt/src/NeonRTOS/kernel/list.o
                0x0000e7f6                vListInsertEnd
 .text.vListInsert
                0x0000e80e       0x30 .pio/build/lptm4c1294ncpdt/src/NeonRTOS/kernel/list.o
                0x0000e80e                vListInsert
 .text.uxListRemove
                0x0000e83e       0x20 .pio/build/lptm4c1294ncpdt/src/NeonRTOS/kernel/list.o
                0x0000e83e                uxListRemove
 .text          0x0000e85e        0x0 .pio/build/lptm4c1294ncpdt/src/NeonRTOS/kernel/portable/GCC/ARM_CM4F/port.o
 *fill*         0x0000e85e        0x2 
 .text.prvTaskExitError
                0x0000e860       0x40 .pio/build/lptm4c1294ncpdt/src/NeonRTOS/kernel/portable/GCC/ARM_CM4F/port.o
 .text.unlikely.prvPortStartFirstTask
                0x0000e8a0       0x28 .pio/build/lptm4c1294ncpdt/src/NeonRTOS/kernel/portable/GCC/ARM_CM4F/port.o
 .text.unlikely.vPortEnableVFP
                0x0000e8c8       0x14 .pio/build/lptm4c1294ncpdt/src/NeonRTOS/kernel/portable/GCC/ARM_CM4F/port.o
 .text.pxPortInitialiseStack
                0x0000e8dc       0x2c .pio/build/lptm4c1294ncpdt/src/NeonRTOS/kernel/portable/GCC/ARM_CM4F/port.o
                0x0000e8dc                pxPortInitialiseStack
 *fill*         0x0000e908        0x8 
 .text.vPortSVCHandler
                0x0000e910       0x30 .pio/build/lptm4c1294ncpdt/src/NeonRTOS/kernel/portable/GCC/ARM_CM4F/port.o
                0x0000e910                vPortSVCHandler
 .text.vPortEndScheduler
                0x0000e940       0x24 .pio/build/lptm4c1294ncpdt/src/NeonRTOS/kernel/portable/GCC/ARM_CM4F/port.o
                0x0000e940                vPortEndScheduler
 .text.vPortEnterCritical
                0x0000e964       0x44 .pio/build/lptm4c1294ncpdt/src/NeonRTOS/kernel/portable/GCC/ARM_CM4F/port.o
                0x0000e964                vPortEnterCritical
 .text.vPortExitCritical
                0x0000e9a8       0x28 .pio/build/lptm4c1294ncpdt/src/NeonRTOS/kernel/portable/GCC/ARM_CM4F/port.o
                0x0000e9a8                vPortExitCritical
 .text.xPortPendSVHandler
                0x0000e9d0       0x70 .pio/build/lptm4c1294ncpdt/src/NeonRTOS/kernel/portable/GCC/ARM_CM4F/port.o
                0x0000e9d0                xPortPendSVHandler
 .text.xPortSysTickHandler
                0x0000ea40       0x2c .pio/build/lptm4c1294ncpdt/src/NeonRTOS/kernel/portable/GCC/ARM_CM4F/port.o
                0x0000ea40                xPortSysTickHandler
 .text.vPortSetupTimerInterrupt
                0x0000ea6c       0x28 .pio/build/lptm4c1294ncpdt/src/NeonRTOS/kernel/portable/GCC/ARM_CM4F/port.o
                0x0000ea6c                vPortSetupTimerInterrupt
 .text.xPortStartScheduler
                0x0000ea94      0x108 .pio/build/lptm4c1294ncpdt/src/NeonRTOS/kernel/portable/GCC/ARM_CM4F/port.o
                0x0000ea94                xPortStartScheduler
 .text.vPortValidateInterruptPriority
                0x0000eb9c       0x5c .pio/build/lptm4c1294ncpdt/src/NeonRTOS/kernel/portable/GCC/ARM_CM4F/port.o
                0x0000eb9c                vPortValidateInterruptPriority
 .text          0x0000ebf8        0x0 .pio/build/lptm4c1294ncpdt/src/NeonRTOS/kernel/portable/MemMang/heap_4.o
 .text.pvPortMalloc
                0x0000ebf8      0x198 .pio/build/lptm4c1294ncpdt/src/NeonRTOS/kernel/portable/MemMang/heap_4.o
                0x0000ebf8                pvPortMalloc
 .text.vPortFree
                0x0000ed90       0xfc .pio/build/lptm4c1294ncpdt/src/NeonRTOS/kernel/portable/MemMang/heap_4.o
                0x0000ed90                vPortFree
 .text.xPortGetFreeHeapSize
                0x0000ee8c        0xc .pio/build/lptm4c1294ncpdt/src/NeonRTOS/kernel/portable/MemMang/heap_4.o
                0x0000ee8c                xPortGetFreeHeapSize
 .text.xPortGetMinimumEverFreeHeapSize
                0x0000ee98        0xc .pio/build/lptm4c1294ncpdt/src/NeonRTOS/kernel/portable/MemMang/heap_4.o
                0x0000ee98                xPortGetMinimumEverFreeHeapSize
 .text.vPortInitialiseBlocks
                0x0000eea4        0x2 .pio/build/lptm4c1294ncpdt/src/NeonRTOS/kernel/portable/MemMang/heap_4.o
                0x0000eea4                vPortInitialiseBlocks
 .text.pvPortCalloc
                0x0000eea6       0x2e .pio/build/lptm4c1294ncpdt/src/NeonRTOS/kernel/portable/MemMang/heap_4.o
                0x0000eea6                pvPortCalloc
 .text.vPortGetHeapStats
                0x0000eed4       0x80 .pio/build/lptm4c1294ncpdt/src/NeonRTOS/kernel/portable/MemMang/heap_4.o
                0x0000eed4                vPortGetHeapStats
 .text.vPortHeapResetState
                0x0000ef54       0x2c .pio/build/lptm4c1294ncpdt/src/NeonRTOS/kernel/portable/MemMang/heap_4.o
                0x0000ef54                vPortHeapResetState
 .text          0x0000ef80        0x0 .pio/build/lptm4c1294ncpdt/src/NeonRTOS/kernel/queue.o
 .text.prvIsQueueEmpty
                0x0000ef80       0x18 .pio/build/lptm4c1294ncpdt/src/NeonRTOS/kernel/queue.o
 .text.prvCopyDataToQueue
                0x0000ef98       0x6e .pio/build/lptm4c1294ncpdt/src/NeonRTOS/kernel/queue.o
 .text.unlikely.prvCopyDataFromQueue
                0x0000f006       0x26 .pio/build/lptm4c1294ncpdt/src/NeonRTOS/kernel/queue.o
 .text.prvUnlockQueue
                0x0000f02c       0x68 .pio/build/lptm4c1294ncpdt/src/NeonRTOS/kernel/queue.o
 .text.xQueueGenericReset
                0x0000f094       0xa4 .pio/build/lptm4c1294ncpdt/src/NeonRTOS/kernel/queue.o
                0x0000f094                xQueueGenericReset
 .text.xQueueGenericCreate
                0x0000f138       0x5a .pio/build/lptm4c1294ncpdt/src/NeonRTOS/kernel/queue.o
                0x0000f138                xQueueGenericCreate
 .text.xQueueCreateCountingSemaphore
                0x0000f192       0x2c .pio/build/lptm4c1294ncpdt/src/NeonRTOS/kernel/queue.o
                0x0000f192                xQueueCreateCountingSemaphore
 *fill*         0x0000f1be        0x2 
 .text.xQueueGenericSend
                0x0000f1c0      0x168 .pio/build/lptm4c1294ncpdt/src/NeonRTOS/kernel/queue.o
                0x0000f1c0                xQueueGenericSend
 .text.xQueueCreateMutex
                0x0000f328       0x24 .pio/build/lptm4c1294ncpdt/src/NeonRTOS/kernel/queue.o
                0x0000f328                xQueueCreateMutex
 .text.xQueueGiveMutexRecursive
                0x0000f34c       0x3e .pio/build/lptm4c1294ncpdt/src/NeonRTOS/kernel/queue.o
                0x0000f34c                xQueueGiveMutexRecursive
 .text.xQueueGenericSendFromISR
                0x0000f38a       0xda .pio/build/lptm4c1294ncpdt/src/NeonRTOS/kernel/queue.o
                0x0000f38a                xQueueGenericSendFromISR
 .text.xQueueGiveFromISR
                0x0000f464       0xc8 .pio/build/lptm4c1294ncpdt/src/NeonRTOS/kernel/queue.o
                0x0000f464                xQueueGiveFromISR
 .text.xQueueReceive
                0x0000f52c      0x13c .pio/build/lptm4c1294ncpdt/src/NeonRTOS/kernel/queue.o
                0x0000f52c                xQueueReceive
 .text.xQueueSemaphoreTake
                0x0000f668      0x16c .pio/build/lptm4c1294ncpdt/src/NeonRTOS/kernel/queue.o
                0x0000f668                xQueueSemaphoreTake
 .text.xQueueTakeMutexRecursive
                0x0000f7d4       0x40 .pio/build/lptm4c1294ncpdt/src/NeonRTOS/kernel/queue.o
                0x0000f7d4                xQueueTakeMutexRecursive
 .text.xQueuePeek
                0x0000f814      0x13c .pio/build/lptm4c1294ncpdt/src/NeonRTOS/kernel/queue.o
                0x0000f814                xQueuePeek
 .text.xQueueReceiveFromISR
                0x0000f950       0xb4 .pio/build/lptm4c1294ncpdt/src/NeonRTOS/kernel/queue.o
                0x0000f950                xQueueReceiveFromISR
 .text.xQueuePeekFromISR
                0x0000fa04       0x78 .pio/build/lptm4c1294ncpdt/src/NeonRTOS/kernel/queue.o
                0x0000fa04                xQueuePeekFromISR
 .text.uxQueueMessagesWaiting
                0x0000fa7c       0x26 .pio/build/lptm4c1294ncpdt/src/NeonRTOS/kernel/queue.o
                0x0000fa7c                uxQueueMessagesWaiting
 .text.uxQueueSpacesAvailable
                0x0000faa2       0x2a .pio/build/lptm4c1294ncpdt/src/NeonRTOS/kernel/queue.o
                0x0000faa2                uxQueueSpacesAvailable
 .text.uxQueueMessagesWaitingFromISR
                0x0000facc       0x18 .pio/build/lptm4c1294ncpdt/src/NeonRTOS/kernel/queue.o
                0x0000facc                uxQueueMessagesWaitingFromISR
 .text.uxQueueGetQueueNumber
                0x0000fae4        0x4 .pio/build/lptm4c1294ncpdt/src/NeonRTOS/kernel/queue.o
                0x0000fae4                uxQueueGetQueueNumber
 .text.vQueueSetQueueNumber
                0x0000fae8        0x4 .pio/build/lptm4c1294ncpdt/src/NeonRTOS/kernel/queue.o
                0x0000fae8                vQueueSetQueueNumber
 .text.ucQueueGetQueueType
                0x0000faec        0x6 .pio/build/lptm4c1294ncpdt/src/NeonRTOS/kernel/queue.o
                0x0000faec                ucQueueGetQueueType
 .text.uxQueueGetQueueItemSize
                0x0000faf2        0x4 .pio/build/lptm4c1294ncpdt/src/NeonRTOS/kernel/queue.o
                0x0000faf2                uxQueueGetQueueItemSize
 .text.uxQueueGetQueueLength
                0x0000faf6        0x4 .pio/build/lptm4c1294ncpdt/src/NeonRTOS/kernel/queue.o
                0x0000faf6                uxQueueGetQueueLength
 .text.xQueueIsQueueEmptyFromISR
                0x0000fafa       0x20 .pio/build/lptm4c1294ncpdt/src/NeonRTOS/kernel/queue.o
                0x0000fafa                xQueueIsQueueEmptyFromISR
 .text.xQueueIsQueueFullFromISR
                0x0000fb1a       0x20 .pio/build/lptm4c1294ncpdt/src/NeonRTOS/kernel/queue.o
                0x0000fb1a                xQueueIsQueueFullFromISR
 .text.xQueueCRSend
                0x0000fb3a       0x9c .pio/build/lptm4c1294ncpdt/src/NeonRTOS/kernel/queue.o
                0x0000fb3a                xQueueCRSend
 .text.xQueueCRReceive
                0x0000fbd6       0x94 .pio/build/lptm4c1294ncpdt/src/NeonRTOS/kernel/queue.o
                0x0000fbd6                xQueueCRReceive
 .text.xQueueCRSendFromISR
                0x0000fc6a       0x30 .pio/build/lptm4c1294ncpdt/src/NeonRTOS/kernel/queue.o
                0x0000fc6a                xQueueCRSendFromISR
 .text.xQueueCRReceiveFromISR
                0x0000fc9a       0x4e .pio/build/lptm4c1294ncpdt/src/NeonRTOS/kernel/queue.o
                0x0000fc9a                xQueueCRReceiveFromISR
 .text.vQueueAddToRegistry
                0x0000fce8       0x50 .pio/build/lptm4c1294ncpdt/src/NeonRTOS/kernel/queue.o
                0x0000fce8                vQueueAddToRegistry
 .text.pcQueueGetName
                0x0000fd38       0x38 .pio/build/lptm4c1294ncpdt/src/NeonRTOS/kernel/queue.o
                0x0000fd38                pcQueueGetName
 .text.vQueueUnregisterQueue
                0x0000fd70       0x3c .pio/build/lptm4c1294ncpdt/src/NeonRTOS/kernel/queue.o
                0x0000fd70                vQueueUnregisterQueue
 .text.vQueueDelete
                0x0000fdac       0x26 .pio/build/lptm4c1294ncpdt/src/NeonRTOS/kernel/queue.o
                0x0000fdac                vQueueDelete
 .text.vQueueWaitForMessageRestricted
                0x0000fdd2       0x4a .pio/build/lptm4c1294ncpdt/src/NeonRTOS/kernel/queue.o
                0x0000fdd2                vQueueWaitForMessageRestricted
 .text          0x0000fe1c        0x0 .pio/build/lptm4c1294ncpdt/src/NeonRTOS/kernel/stream_buffer.o
 .text.prvBytesInBuffer
                0x0000fe1c       0x14 .pio/build/lptm4c1294ncpdt/src/NeonRTOS/kernel/stream_buffer.o
 .text.prvWriteBytesToBuffer
                0x0000fe30       0x84 .pio/build/lptm4c1294ncpdt/src/NeonRTOS/kernel/stream_buffer.o
 .text.prvWriteMessageToBuffer
                0x0000feb4       0x44 .pio/build/lptm4c1294ncpdt/src/NeonRTOS/kernel/stream_buffer.o
 .text.prvReadBytesFromBuffer
                0x0000fef8       0x7e .pio/build/lptm4c1294ncpdt/src/NeonRTOS/kernel/stream_buffer.o
 .text.prvReadMessageFromBuffer
                0x0000ff76       0x42 .pio/build/lptm4c1294ncpdt/src/NeonRTOS/kernel/stream_buffer.o
 .text.prvInitialiseNewStreamBuffer.isra.0
                0x0000ffb8       0x48 .pio/build/lptm4c1294ncpdt/src/NeonRTOS/kernel/stream_buffer.o
 .text.xStreamBufferGenericCreate
                0x00010000       0x9c .pio/build/lptm4c1294ncpdt/src/NeonRTOS/kernel/stream_buffer.o
                0x00010000                xStreamBufferGenericCreate
 .text.vStreamBufferDelete
                0x0001009c       0x26 .pio/build/lptm4c1294ncpdt/src/NeonRTOS/kernel/stream_buffer.o
                0x0001009c                vStreamBufferDelete
 .text.xStreamBufferReset
                0x000100c2       0x4c .pio/build/lptm4c1294ncpdt/src/NeonRTOS/kernel/stream_buffer.o
                0x000100c2                xStreamBufferReset
 .text.xStreamBufferResetFromISR
                0x0001010e       0x58 .pio/build/lptm4c1294ncpdt/src/NeonRTOS/kernel/stream_buffer.o
                0x0001010e                xStreamBufferResetFromISR
 .text.xStreamBufferSetTriggerLevel
                0x00010166       0x28 .pio/build/lptm4c1294ncpdt/src/NeonRTOS/kernel/stream_buffer.o
                0x00010166                xStreamBufferSetTriggerLevel
 .text.xStreamBufferSpacesAvailable
                0x0001018e       0x34 .pio/build/lptm4c1294ncpdt/src/NeonRTOS/kernel/stream_buffer.o
                0x0001018e                xStreamBufferSpacesAvailable
 .text.xStreamBufferBytesAvailable
                0x000101c2       0x18 .pio/build/lptm4c1294ncpdt/src/NeonRTOS/kernel/stream_buffer.o
                0x000101c2                xStreamBufferBytesAvailable
 .text.xStreamBufferSend
                0x000101da      0x12c .pio/build/lptm4c1294ncpdt/src/NeonRTOS/kernel/stream_buffer.o
                0x000101da                xStreamBufferSend
 .text.xStreamBufferSendFromISR
                0x00010306       0x98 .pio/build/lptm4c1294ncpdt/src/NeonRTOS/kernel/stream_buffer.o
                0x00010306                xStreamBufferSendFromISR
 .text.xStreamBufferReceive
                0x0001039e       0xe8 .pio/build/lptm4c1294ncpdt/src/NeonRTOS/kernel/stream_buffer.o
                0x0001039e                xStreamBufferReceive
 .text.xStreamBufferNextMessageLengthBytes
                0x00010486       0x50 .pio/build/lptm4c1294ncpdt/src/NeonRTOS/kernel/stream_buffer.o
                0x00010486                xStreamBufferNextMessageLengthBytes
 .text.xStreamBufferReceiveFromISR
                0x000104d6       0x9a .pio/build/lptm4c1294ncpdt/src/NeonRTOS/kernel/stream_buffer.o
                0x000104d6                xStreamBufferReceiveFromISR
 .text.xStreamBufferIsEmpty
                0x00010570       0x20 .pio/build/lptm4c1294ncpdt/src/NeonRTOS/kernel/stream_buffer.o
                0x00010570                xStreamBufferIsEmpty
 .text.xStreamBufferIsFull
                0x00010590       0x30 .pio/build/lptm4c1294ncpdt/src/NeonRTOS/kernel/stream_buffer.o
                0x00010590                xStreamBufferIsFull
 .text.xStreamBufferSendCompletedFromISR
                0x000105c0       0x4e .pio/build/lptm4c1294ncpdt/src/NeonRTOS/kernel/stream_buffer.o
                0x000105c0                xStreamBufferSendCompletedFromISR
 .text.xStreamBufferReceiveCompletedFromISR
                0x0001060e       0x4e .pio/build/lptm4c1294ncpdt/src/NeonRTOS/kernel/stream_buffer.o
                0x0001060e                xStreamBufferReceiveCompletedFromISR
 .text.uxStreamBufferGetStreamBufferNotificationIndex
                0x0001065c       0x18 .pio/build/lptm4c1294ncpdt/src/NeonRTOS/kernel/stream_buffer.o
                0x0001065c                uxStreamBufferGetStreamBufferNotificationIndex
 .text.vStreamBufferSetStreamBufferNotificationIndex
                0x00010674       0x58 .pio/build/lptm4c1294ncpdt/src/NeonRTOS/kernel/stream_buffer.o
                0x00010674                vStreamBufferSetStreamBufferNotificationIndex
 .text.uxStreamBufferGetStreamBufferNumber
                0x000106cc        0x4 .pio/build/lptm4c1294ncpdt/src/NeonRTOS/kernel/stream_buffer.o
                0x000106cc                uxStreamBufferGetStreamBufferNumber
 .text.vStreamBufferSetStreamBufferNumber
                0x000106d0        0x4 .pio/build/lptm4c1294ncpdt/src/NeonRTOS/kernel/stream_buffer.o
                0x000106d0                vStreamBufferSetStreamBufferNumber
 .text.ucStreamBufferGetStreamBufferType
                0x000106d4        0x8 .pio/build/lptm4c1294ncpdt/src/NeonRTOS/kernel/stream_buffer.o
                0x000106d4                ucStreamBufferGetStreamBufferType
 .text          0x000106dc        0x0 .pio/build/lptm4c1294ncpdt/src/NeonRTOS/kernel/tasks.o
 .text.prvAddCurrentTaskToDelayedList
                0x000106dc       0xb8 .pio/build/lptm4c1294ncpdt/src/NeonRTOS/kernel/tasks.o
 .text.prvTaskIsTaskSuspended
                0x00010794       0x40 .pio/build/lptm4c1294ncpdt/src/NeonRTOS/kernel/tasks.o
 .text.prvResetNextTaskUnblockTime
                0x000107d4       0x24 .pio/build/lptm4c1294ncpdt/src/NeonRTOS/kernel/tasks.o
 .text.prvCheckTasksWaitingTermination
                0x000107f8       0x48 .pio/build/lptm4c1294ncpdt/src/NeonRTOS/kernel/tasks.o
 .text.prvIdleTask
                0x00010840       0x2c .pio/build/lptm4c1294ncpdt/src/NeonRTOS/kernel/tasks.o
 .text.xTaskCreate
                0x0001086c      0x1cc .pio/build/lptm4c1294ncpdt/src/NeonRTOS/kernel/tasks.o
                0x0001086c                xTaskCreate
 .text.vTaskDelete
                0x00010a38       0xe8 .pio/build/lptm4c1294ncpdt/src/NeonRTOS/kernel/tasks.o
                0x00010a38                vTaskDelete
 .text.eTaskGetState
                0x00010b20       0xa4 .pio/build/lptm4c1294ncpdt/src/NeonRTOS/kernel/tasks.o
                0x00010b20                eTaskGetState
 .text.uxTaskPriorityGet
                0x00010bc4       0x1c .pio/build/lptm4c1294ncpdt/src/NeonRTOS/kernel/tasks.o
                0x00010bc4                uxTaskPriorityGet
 .text.uxTaskPriorityGetFromISR
                0x00010be0       0x34 .pio/build/lptm4c1294ncpdt/src/NeonRTOS/kernel/tasks.o
                0x00010be0                uxTaskPriorityGetFromISR
 .text.uxTaskBasePriorityGet
                0x00010c14       0x1c .pio/build/lptm4c1294ncpdt/src/NeonRTOS/kernel/tasks.o
                0x00010c14                uxTaskBasePriorityGet
 .text.uxTaskBasePriorityGetFromISR
                0x00010c30       0x34 .pio/build/lptm4c1294ncpdt/src/NeonRTOS/kernel/tasks.o
                0x00010c30                uxTaskBasePriorityGetFromISR
 .text.vTaskPrioritySet
                0x00010c64       0xf0 .pio/build/lptm4c1294ncpdt/src/NeonRTOS/kernel/tasks.o
                0x00010c64                vTaskPrioritySet
 .text.vTaskResume
                0x00010d54       0x9c .pio/build/lptm4c1294ncpdt/src/NeonRTOS/kernel/tasks.o
                0x00010d54                vTaskResume
 .text.xTaskResumeFromISR
                0x00010df0       0xbc .pio/build/lptm4c1294ncpdt/src/NeonRTOS/kernel/tasks.o
                0x00010df0                xTaskResumeFromISR
 .text.vTaskStartScheduler
                0x00010eac       0x94 .pio/build/lptm4c1294ncpdt/src/NeonRTOS/kernel/tasks.o
                0x00010eac                vTaskStartScheduler
 .text.vTaskEndScheduler
                0x00010f40       0x3c .pio/build/lptm4c1294ncpdt/src/NeonRTOS/kernel/tasks.o
                0x00010f40                vTaskEndScheduler
 .text.vTaskSuspendAll
                0x00010f7c       0x10 .pio/build/lptm4c1294ncpdt/src/NeonRTOS/kernel/tasks.o
                0x00010f7c                vTaskSuspendAll
 .text.xTaskGetTickCount
                0x00010f8c        0xc .pio/build/lptm4c1294ncpdt/src/NeonRTOS/kernel/tasks.o
                0x00010f8c                xTaskGetTickCount
 .text.xTaskGetTickCountFromISR
                0x00010f98       0x10 .pio/build/lptm4c1294ncpdt/src/NeonRTOS/kernel/tasks.o
                0x00010f98                xTaskGetTickCountFromISR
 .text.uxTaskGetNumberOfTasks
                0x00010fa8        0xc .pio/build/lptm4c1294ncpdt/src/NeonRTOS/kernel/tasks.o
                0x00010fa8                uxTaskGetNumberOfTasks
 .text.pcTaskGetName
                0x00010fb4       0x24 .pio/build/lptm4c1294ncpdt/src/NeonRTOS/kernel/tasks.o
                0x00010fb4                pcTaskGetName
 .text.xTaskIncrementTick
                0x00010fd8      0x180 .pio/build/lptm4c1294ncpdt/src/NeonRTOS/kernel/tasks.o
                0x00010fd8                xTaskIncrementTick
 .text.xTaskResumeAll
                0x00011158      0x12c .pio/build/lptm4c1294ncpdt/src/NeonRTOS/kernel/tasks.o
                0x00011158                xTaskResumeAll
 .text.xTaskDelayUntil
                0x00011284       0xa4 .pio/build/lptm4c1294ncpdt/src/NeonRTOS/kernel/tasks.o
                0x00011284                xTaskDelayUntil
 .text.vTaskDelay
                0x00011328       0x50 .pio/build/lptm4c1294ncpdt/src/NeonRTOS/kernel/tasks.o
                0x00011328                vTaskDelay
 .text.xTaskCatchUpTicks
                0x00011378       0x40 .pio/build/lptm4c1294ncpdt/src/NeonRTOS/kernel/tasks.o
                0x00011378                xTaskCatchUpTicks
 .text.vTaskSwitchContext
                0x000113b8       0x88 .pio/build/lptm4c1294ncpdt/src/NeonRTOS/kernel/tasks.o
                0x000113b8                vTaskSwitchContext
 .text.vTaskSuspend
                0x00011440       0xe0 .pio/build/lptm4c1294ncpdt/src/NeonRTOS/kernel/tasks.o
                0x00011440                vTaskSuspend
 .text.vTaskPlaceOnEventList
                0x00011520       0x34 .pio/build/lptm4c1294ncpdt/src/NeonRTOS/kernel/tasks.o
                0x00011520                vTaskPlaceOnEventList
 .text.vTaskPlaceOnUnorderedEventList
                0x00011554       0x70 .pio/build/lptm4c1294ncpdt/src/NeonRTOS/kernel/tasks.o
                0x00011554                vTaskPlaceOnUnorderedEventList
 .text.vTaskPlaceOnEventListRestricted
                0x000115c4       0x58 .pio/build/lptm4c1294ncpdt/src/NeonRTOS/kernel/tasks.o
                0x000115c4                vTaskPlaceOnEventListRestricted
 .text.xTaskRemoveFromEventList
                0x0001161c       0xd0 .pio/build/lptm4c1294ncpdt/src/NeonRTOS/kernel/tasks.o
                0x0001161c                xTaskRemoveFromEventList
 .text.vTaskRemoveFromUnorderedEventList
                0x000116ec       0xc8 .pio/build/lptm4c1294ncpdt/src/NeonRTOS/kernel/tasks.o
                0x000116ec                vTaskRemoveFromUnorderedEventList
 .text.vTaskSetTimeOutState
                0x000117b4       0x38 .pio/build/lptm4c1294ncpdt/src/NeonRTOS/kernel/tasks.o
                0x000117b4                vTaskSetTimeOutState
 .text.vTaskInternalSetTimeOutState
                0x000117ec       0x18 .pio/build/lptm4c1294ncpdt/src/NeonRTOS/kernel/tasks.o
                0x000117ec                vTaskInternalSetTimeOutState
 .text.xTaskCheckForTimeOut
                0x00011804       0x78 .pio/build/lptm4c1294ncpdt/src/NeonRTOS/kernel/tasks.o
                0x00011804                xTaskCheckForTimeOut
 .text.vTaskMissedYield
                0x0001187c        0xc .pio/build/lptm4c1294ncpdt/src/NeonRTOS/kernel/tasks.o
                0x0001187c                vTaskMissedYield
 .text.uxTaskGetTaskNumber
                0x00011888        0x6 .pio/build/lptm4c1294ncpdt/src/NeonRTOS/kernel/tasks.o
                0x00011888                uxTaskGetTaskNumber
 .text.vTaskSetTaskNumber
                0x0001188e        0x6 .pio/build/lptm4c1294ncpdt/src/NeonRTOS/kernel/tasks.o
                0x0001188e                vTaskSetTaskNumber
 .text.vTaskGetInfo
                0x00011894       0x9c .pio/build/lptm4c1294ncpdt/src/NeonRTOS/kernel/tasks.o
                0x00011894                vTaskGetInfo
 .text.prvListTasksWithinSingleList
                0x00011930       0x36 .pio/build/lptm4c1294ncpdt/src/NeonRTOS/kernel/tasks.o
 *fill*         0x00011966        0x2 
 .text.uxTaskGetSystemState
                0x00011968       0xa4 .pio/build/lptm4c1294ncpdt/src/NeonRTOS/kernel/tasks.o
                0x00011968                uxTaskGetSystemState
 .text.xTaskGetCurrentTaskHandle
                0x00011a0c        0xc .pio/build/lptm4c1294ncpdt/src/NeonRTOS/kernel/tasks.o
                0x00011a0c                xTaskGetCurrentTaskHandle
 .text.xTaskGetCurrentTaskHandleForCore
                0x00011a18       0x10 .pio/build/lptm4c1294ncpdt/src/NeonRTOS/kernel/tasks.o
                0x00011a18                xTaskGetCurrentTaskHandleForCore
 .text.xTaskGetSchedulerState
                0x00011a28       0x20 .pio/build/lptm4c1294ncpdt/src/NeonRTOS/kernel/tasks.o
                0x00011a28                xTaskGetSchedulerState
 .text.xTaskPriorityInherit
                0x00011a48       0xa8 .pio/build/lptm4c1294ncpdt/src/NeonRTOS/kernel/tasks.o
                0x00011a48                xTaskPriorityInherit
 .text.xTaskPriorityDisinherit
                0x00011af0       0xa8 .pio/build/lptm4c1294ncpdt/src/NeonRTOS/kernel/tasks.o
                0x00011af0                xTaskPriorityDisinherit
 .text.vTaskPriorityDisinheritAfterTimeout
                0x00011b98       0xb8 .pio/build/lptm4c1294ncpdt/src/NeonRTOS/kernel/tasks.o
                0x00011b98                vTaskPriorityDisinheritAfterTimeout
 .text.uxTaskResetEventItemValue
                0x00011c50       0x18 .pio/build/lptm4c1294ncpdt/src/NeonRTOS/kernel/tasks.o
                0x00011c50                uxTaskResetEventItemValue
 .text.pvTaskIncrementMutexHeldCount
                0x00011c68       0x14 .pio/build/lptm4c1294ncpdt/src/NeonRTOS/kernel/tasks.o
                0x00011c68                pvTaskIncrementMutexHeldCount
 .text.ulTaskGenericNotifyTake
                0x00011c7c       0x94 .pio/build/lptm4c1294ncpdt/src/NeonRTOS/kernel/tasks.o
                0x00011c7c                ulTaskGenericNotifyTake
 .text.xTaskGenericNotifyWait
                0x00011d10       0xbc .pio/build/lptm4c1294ncpdt/src/NeonRTOS/kernel/tasks.o
                0x00011d10                xTaskGenericNotifyWait
 .text.xTaskGenericNotify
                0x00011dcc      0x128 .pio/build/lptm4c1294ncpdt/src/NeonRTOS/kernel/tasks.o
                0x00011dcc                xTaskGenericNotify
 .text.xTaskGenericNotifyFromISR
                0x00011ef4      0x178 .pio/build/lptm4c1294ncpdt/src/NeonRTOS/kernel/tasks.o
                0x00011ef4                xTaskGenericNotifyFromISR
 .text.vTaskGenericNotifyGiveFromISR
                0x0001206c      0x11c .pio/build/lptm4c1294ncpdt/src/NeonRTOS/kernel/tasks.o
                0x0001206c                vTaskGenericNotifyGiveFromISR
 .text.xTaskGenericNotifyStateClear
                0x00012188       0x44 .pio/build/lptm4c1294ncpdt/src/NeonRTOS/kernel/tasks.o
                0x00012188                xTaskGenericNotifyStateClear
 .text.ulTaskGenericNotifyValueClear
                0x000121cc       0x3c .pio/build/lptm4c1294ncpdt/src/NeonRTOS/kernel/tasks.o
                0x000121cc                ulTaskGenericNotifyValueClear
 .text.vTaskResetState
                0x00012208       0x64 .pio/build/lptm4c1294ncpdt/src/NeonRTOS/kernel/tasks.o
                0x00012208                vTaskResetState
 .text          0x0001226c        0x0 .pio/build/lptm4c1294ncpdt/src/NeonRTOS/kernel/timers.o
 .text.prvCheckForValidListAndQueue
                0x0001226c       0x58 .pio/build/lptm4c1294ncpdt/src/NeonRTOS/kernel/timers.o
 .text.prvInsertTimerInActiveList
                0x000122c4       0x3c .pio/build/lptm4c1294ncpdt/src/NeonRTOS/kernel/timers.o
 .text.prvReloadTimer
                0x00012300       0x26 .pio/build/lptm4c1294ncpdt/src/NeonRTOS/kernel/timers.o
 *fill*         0x00012326        0x2 
 .text.prvProcessExpiredTimer
                0x00012328       0x3c .pio/build/lptm4c1294ncpdt/src/NeonRTOS/kernel/timers.o
 .text.prvSwitchTimerLists
                0x00012364       0x2c .pio/build/lptm4c1294ncpdt/src/NeonRTOS/kernel/timers.o
 .text.prvTimerTask
                0x00012390      0x198 .pio/build/lptm4c1294ncpdt/src/NeonRTOS/kernel/timers.o
 .text.xTimerCreateTimerTask
                0x00012528       0x50 .pio/build/lptm4c1294ncpdt/src/NeonRTOS/kernel/timers.o
                0x00012528                xTimerCreateTimerTask
 .text.xTimerCreate
                0x00012578       0x5a .pio/build/lptm4c1294ncpdt/src/NeonRTOS/kernel/timers.o
                0x00012578                xTimerCreate
 *fill*         0x000125d2        0x2 
 .text.xTimerGenericCommandFromTask
                0x000125d4       0x60 .pio/build/lptm4c1294ncpdt/src/NeonRTOS/kernel/timers.o
                0x000125d4                xTimerGenericCommandFromTask
 .text.xTimerGenericCommandFromISR
                0x00012634       0x4c .pio/build/lptm4c1294ncpdt/src/NeonRTOS/kernel/timers.o
                0x00012634                xTimerGenericCommandFromISR
 .text.xTimerGetTimerDaemonTaskHandle
                0x00012680       0x20 .pio/build/lptm4c1294ncpdt/src/NeonRTOS/kernel/timers.o
                0x00012680                xTimerGetTimerDaemonTaskHandle
 .text.xTimerGetPeriod
                0x000126a0       0x18 .pio/build/lptm4c1294ncpdt/src/NeonRTOS/kernel/timers.o
                0x000126a0                xTimerGetPeriod
 .text.vTimerSetReloadMode
                0x000126b8       0x3a .pio/build/lptm4c1294ncpdt/src/NeonRTOS/kernel/timers.o
                0x000126b8                vTimerSetReloadMode
 .text.xTimerGetReloadMode
                0x000126f2       0x2c .pio/build/lptm4c1294ncpdt/src/NeonRTOS/kernel/timers.o
                0x000126f2                xTimerGetReloadMode
 .text.uxTimerGetReloadMode
                0x0001271e        0x4 .pio/build/lptm4c1294ncpdt/src/NeonRTOS/kernel/timers.o
                0x0001271e                uxTimerGetReloadMode
 .text.xTimerGetExpiryTime
                0x00012722       0x18 .pio/build/lptm4c1294ncpdt/src/NeonRTOS/kernel/timers.o
                0x00012722                xTimerGetExpiryTime
 .text.pcTimerGetName
                0x0001273a       0x18 .pio/build/lptm4c1294ncpdt/src/NeonRTOS/kernel/timers.o
                0x0001273a                pcTimerGetName
 .text.xTimerIsTimerActive
                0x00012752       0x2c .pio/build/lptm4c1294ncpdt/src/NeonRTOS/kernel/timers.o
                0x00012752                xTimerIsTimerActive
 .text.pvTimerGetTimerID
                0x0001277e       0x26 .pio/build/lptm4c1294ncpdt/src/NeonRTOS/kernel/timers.o
                0x0001277e                pvTimerGetTimerID
 .text.vTimerSetTimerID
                0x000127a4       0x28 .pio/build/lptm4c1294ncpdt/src/NeonRTOS/kernel/timers.o
                0x000127a4                vTimerSetTimerID
 .text.xTimerPendFunctionCallFromISR
                0x000127cc       0x24 .pio/build/lptm4c1294ncpdt/src/NeonRTOS/kernel/timers.o
                0x000127cc                xTimerPendFunctionCallFromISR
 .text.xTimerPendFunctionCall
                0x000127f0       0x3c .pio/build/lptm4c1294ncpdt/src/NeonRTOS/kernel/timers.o
                0x000127f0                xTimerPendFunctionCall
 .text.uxTimerGetTimerNumber
                0x0001282c        0x4 .pio/build/lptm4c1294ncpdt/src/NeonRTOS/kernel/timers.o
                0x0001282c                uxTimerGetTimerNumber
 .text.vTimerSetTimerNumber
                0x00012830        0x4 .pio/build/lptm4c1294ncpdt/src/NeonRTOS/kernel/timers.o
                0x00012830                vTimerSetTimerNumber
 .text.vTimerResetState
                0x00012834       0x14 .pio/build/lptm4c1294ncpdt/src/NeonRTOS/kernel/timers.o
                0x00012834                vTimerResetState
 .text          0x00012848        0x0 .pio/build/lptm4c1294ncpdt/src/NeonRTOS/lwip/api/api_lib.o
 .text.netconn_apimsg
                0x00012848       0x14 .pio/build/lptm4c1294ncpdt/src/NeonRTOS/lwip/api/api_lib.o
 .text.netconn_close_shutdown
                0x0001285c       0x2c .pio/build/lptm4c1294ncpdt/src/NeonRTOS/lwip/api/api_lib.o
 .text.netconn_recv_data
                0x00012888       0xc4 .pio/build/lptm4c1294ncpdt/src/NeonRTOS/lwip/api/api_lib.o
 .text.netconn_recv_data_tcp
                0x0001294c       0xa8 .pio/build/lptm4c1294ncpdt/src/NeonRTOS/lwip/api/api_lib.o
 .text.netconn_new_with_proto_and_callback
                0x000129f4       0x48 .pio/build/lptm4c1294ncpdt/src/NeonRTOS/lwip/api/api_lib.o
                0x000129f4                netconn_new_with_proto_and_callback
 .text.netconn_prepare_delete
                0x00012a3c       0x24 .pio/build/lptm4c1294ncpdt/src/NeonRTOS/lwip/api/api_lib.o
                0x00012a3c                netconn_prepare_delete
 .text.netconn_delete
                0x00012a60       0x1e .pio/build/lptm4c1294ncpdt/src/NeonRTOS/lwip/api/api_lib.o
                0x00012a60                netconn_delete
 *fill*         0x00012a7e        0x2 
 .text.netconn_getaddr
                0x00012a80       0x2c .pio/build/lptm4c1294ncpdt/src/NeonRTOS/lwip/api/api_lib.o
                0x00012a80                netconn_getaddr
 .text.netconn_bind
                0x00012aac       0x34 .pio/build/lptm4c1294ncpdt/src/NeonRTOS/lwip/api/api_lib.o
                0x00012aac                netconn_bind
 .text.netconn_bind_if
                0x00012ae0       0x24 .pio/build/lptm4c1294ncpdt/src/NeonRTOS/lwip/api/api_lib.o
                0x00012ae0                netconn_bind_if
 .text.netconn_connect
                0x00012b04       0x34 .pio/build/lptm4c1294ncpdt/src/NeonRTOS/lwip/api/api_lib.o
                0x00012b04                netconn_connect
 .text.netconn_disconnect
                0x00012b38       0x24 .pio/build/lptm4c1294ncpdt/src/NeonRTOS/lwip/api/api_lib.o
                0x00012b38                netconn_disconnect
 .text.netconn_listen_with_backlog
                0x00012b5c       0x24 .pio/build/lptm4c1294ncpdt/src/NeonRTOS/lwip/api/api_lib.o
                0x00012b5c                netconn_listen_with_backlog
 .text.netconn_accept
                0x00012b80       0x88 .pio/build/lptm4c1294ncpdt/src/NeonRTOS/lwip/api/api_lib.o
                0x00012b80                netconn_accept
 .text.netconn_tcp_recvd
                0x00012c08       0x2c .pio/build/lptm4c1294ncpdt/src/NeonRTOS/lwip/api/api_lib.o
                0x00012c08                netconn_tcp_recvd
 .text.netconn_recv_tcp_pbuf
                0x00012c34       0x18 .pio/build/lptm4c1294ncpdt/src/NeonRTOS/lwip/api/api_lib.o
                0x00012c34                netconn_recv_tcp_pbuf
 .text.netconn_recv_tcp_pbuf_flags
                0x00012c4c       0x16 .pio/build/lptm4c1294ncpdt/src/NeonRTOS/lwip/api/api_lib.o
                0x00012c4c                netconn_recv_tcp_pbuf_flags
 .text.netconn_recv_udp_raw_netbuf
                0x00012c62       0x18 .pio/build/lptm4c1294ncpdt/src/NeonRTOS/lwip/api/api_lib.o
                0x00012c62                netconn_recv_udp_raw_netbuf
 .text.netconn_recv_udp_raw_netbuf_flags
                0x00012c7a       0x16 .pio/build/lptm4c1294ncpdt/src/NeonRTOS/lwip/api/api_lib.o
                0x00012c7a                netconn_recv_udp_raw_netbuf_flags
 .text.netconn_recv
                0x00012c90       0x62 .pio/build/lptm4c1294ncpdt/src/NeonRTOS/lwip/api/api_lib.o
                0x00012c90                netconn_recv
 *fill*         0x00012cf2        0x2 
 .text.netconn_send
                0x00012cf4       0x24 .pio/build/lptm4c1294ncpdt/src/NeonRTOS/lwip/api/api_lib.o
                0x00012cf4                netconn_send
 .text.netconn_sendto
                0x00012d18       0x14 .pio/build/lptm4c1294ncpdt/src/NeonRTOS/lwip/api/api_lib.o
                0x00012d18                netconn_sendto
 .text.netconn_write_vectors_partly
                0x00012d2c       0x98 .pio/build/lptm4c1294ncpdt/src/NeonRTOS/lwip/api/api_lib.o
                0x00012d2c                netconn_write_vectors_partly
 .text.netconn_write_partly
                0x00012dc4       0x18 .pio/build/lptm4c1294ncpdt/src/NeonRTOS/lwip/api/api_lib.o
                0x00012dc4                netconn_write_partly
 .text.netconn_close
                0x00012ddc        0x6 .pio/build/lptm4c1294ncpdt/src/NeonRTOS/lwip/api/api_lib.o
                0x00012ddc                netconn_close
 .text.netconn_err
                0x00012de2        0xe .pio/build/lptm4c1294ncpdt/src/NeonRTOS/lwip/api/api_lib.o
                0x00012de2                netconn_err
 .text.netconn_shutdown
                0x00012df0       0x16 .pio/build/lptm4c1294ncpdt/src/NeonRTOS/lwip/api/api_lib.o
                0x00012df0                netconn_shutdown
 *fill*         0x00012e06        0x2 
 .text.netconn_gethostbyname
                0x00012e08       0x50 .pio/build/lptm4c1294ncpdt/src/NeonRTOS/lwip/api/api_lib.o
                0x00012e08                netconn_gethostbyname
 .text          0x00012e58        0x0 .pio/build/lptm4c1294ncpdt/src/NeonRTOS/lwip/api/api_msg.o
 .text.recv_udp
                0x00012e58       0x68 .pio/build/lptm4c1294ncpdt/src/NeonRTOS/lwip/api/api_msg.o
 .text.recv_raw
                0x00012ec0       0x78 .pio/build/lptm4c1294ncpdt/src/NeonRTOS/lwip/api/api_msg.o
 .text.setup_tcp
                0x00012f38       0x44 .pio/build/lptm4c1294ncpdt/src/NeonRTOS/lwip/api/api_msg.o
 .text.err_tcp  0x00012f7c       0xc0 .pio/build/lptm4c1294ncpdt/src/NeonRTOS/lwip/api/api_msg.o
 .text.lwip_netconn_do_connected
                0x0001303c       0x5e .pio/build/lptm4c1294ncpdt/src/NeonRTOS/lwip/api/api_msg.o
 .text.lwip_netconn_do_dns_found
                0x0001309a       0x1a .pio/build/lptm4c1294ncpdt/src/NeonRTOS/lwip/api/api_msg.o
 .text.lwip_netconn_do_writemore
                0x000130b4      0x1b8 .pio/build/lptm4c1294ncpdt/src/NeonRTOS/lwip/api/api_msg.o
 .text.lwip_netconn_do_close_internal
                0x0001326c      0x18c .pio/build/lptm4c1294ncpdt/src/NeonRTOS/lwip/api/api_msg.o
 .text.poll_tcp
                0x000133f8       0x52 .pio/build/lptm4c1294ncpdt/src/NeonRTOS/lwip/api/api_msg.o
 .text.sent_tcp
                0x0001344a       0x52 .pio/build/lptm4c1294ncpdt/src/NeonRTOS/lwip/api/api_msg.o
 .text.recv_tcp
                0x0001349c       0x68 .pio/build/lptm4c1294ncpdt/src/NeonRTOS/lwip/api/api_msg.o
 .text.lwip_netconn_is_err_msg
                0x00013504       0x34 .pio/build/lptm4c1294ncpdt/src/NeonRTOS/lwip/api/api_msg.o
                0x00013504                lwip_netconn_is_err_msg
 .text.lwip_netconn_do_newconn
                0x00013538       0x88 .pio/build/lptm4c1294ncpdt/src/NeonRTOS/lwip/api/api_msg.o
                0x00013538                lwip_netconn_do_newconn
 .text.netconn_alloc
                0x000135c0       0x82 .pio/build/lptm4c1294ncpdt/src/NeonRTOS/lwip/api/api_msg.o
                0x000135c0                netconn_alloc
 .text.netconn_free
                0x00013642       0x20 .pio/build/lptm4c1294ncpdt/src/NeonRTOS/lwip/api/api_msg.o
                0x00013642                netconn_free
 .text.netconn_drain
                0x00013662       0x9e .pio/build/lptm4c1294ncpdt/src/NeonRTOS/lwip/api/api_msg.o
 .text.accept_function
                0x00013700       0xcc .pio/build/lptm4c1294ncpdt/src/NeonRTOS/lwip/api/api_msg.o
 .text.lwip_netconn_do_delconn
                0x000137cc       0xb0 .pio/build/lptm4c1294ncpdt/src/NeonRTOS/lwip/api/api_msg.o
                0x000137cc                lwip_netconn_do_delconn
 .text.lwip_netconn_do_bind
                0x0001387c       0x3e .pio/build/lptm4c1294ncpdt/src/NeonRTOS/lwip/api/api_msg.o
                0x0001387c                lwip_netconn_do_bind
 .text.lwip_netconn_do_bind_if
                0x000138ba       0x40 .pio/build/lptm4c1294ncpdt/src/NeonRTOS/lwip/api/api_msg.o
                0x000138ba                lwip_netconn_do_bind_if
 *fill*         0x000138fa        0x2 
 .text.lwip_netconn_do_connect
                0x000138fc       0xb4 .pio/build/lptm4c1294ncpdt/src/NeonRTOS/lwip/api/api_msg.o
                0x000138fc                lwip_netconn_do_connect
 .text.lwip_netconn_do_disconnect
                0x000139b0       0x20 .pio/build/lptm4c1294ncpdt/src/NeonRTOS/lwip/api/api_msg.o
                0x000139b0                lwip_netconn_do_disconnect
 .text.lwip_netconn_do_listen
                0x000139d0       0xbc .pio/build/lptm4c1294ncpdt/src/NeonRTOS/lwip/api/api_msg.o
                0x000139d0                lwip_netconn_do_listen
 .text.lwip_netconn_do_send
                0x00013a8c       0x5c .pio/build/lptm4c1294ncpdt/src/NeonRTOS/lwip/api/api_msg.o
                0x00013a8c                lwip_netconn_do_send
 .text.lwip_netconn_do_recv
                0x00013ae8       0x36 .pio/build/lptm4c1294ncpdt/src/NeonRTOS/lwip/api/api_msg.o
                0x00013ae8                lwip_netconn_do_recv
 *fill*         0x00013b1e        0x2 
 .text.lwip_netconn_do_write
                0x00013b20       0x5c .pio/build/lptm4c1294ncpdt/src/NeonRTOS/lwip/api/api_msg.o
                0x00013b20                lwip_netconn_do_write
 .text.lwip_netconn_do_getaddr
                0x00013b7c       0x76 .pio/build/lptm4c1294ncpdt/src/NeonRTOS/lwip/api/api_msg.o
                0x00013b7c                lwip_netconn_do_getaddr
 *fill*         0x00013bf2        0x2 
 .text.lwip_netconn_do_close
                0x00013bf4       0x6c .pio/build/lptm4c1294ncpdt/src/NeonRTOS/lwip/api/api_msg.o
                0x00013bf4                lwip_netconn_do_close
 .text.lwip_netconn_do_gethostbyname
                0x00013c60       0x48 .pio/build/lptm4c1294ncpdt/src/NeonRTOS/lwip/api/api_msg.o
                0x00013c60                lwip_netconn_do_gethostbyname
 .text          0x00013ca8        0x0 .pio/build/lptm4c1294ncpdt/src/NeonRTOS/lwip/api/err.o
 .text.err_to_errno
                0x00013ca8       0x1c .pio/build/lptm4c1294ncpdt/src/NeonRTOS/lwip/api/err.o
                0x00013ca8                err_to_errno
 .text          0x00013cc4        0x0 .pio/build/lptm4c1294ncpdt/src/NeonRTOS/lwip/api/if_api.o
 .text.lwip_if_indextoname
                0x00013cc4       0x10 .pio/build/lptm4c1294ncpdt/src/NeonRTOS/lwip/api/if_api.o
                0x00013cc4                lwip_if_indextoname
 .text.lwip_if_nametoindex
                0x00013cd4        0x4 .pio/build/lptm4c1294ncpdt/src/NeonRTOS/lwip/api/if_api.o
                0x00013cd4                lwip_if_nametoindex
 .text          0x00013cd8        0x0 .pio/build/lptm4c1294ncpdt/src/NeonRTOS/lwip/api/netbuf.o
 .text.netbuf_new
                0x00013cd8       0x18 .pio/build/lptm4c1294ncpdt/src/NeonRTOS/lwip/api/netbuf.o
                0x00013cd8                netbuf_new
 .text.netbuf_delete
                0x00013cf0       0x22 .pio/build/lptm4c1294ncpdt/src/NeonRTOS/lwip/api/netbuf.o
                0x00013cf0                netbuf_delete
 .text.netbuf_alloc
                0x00013d12       0x2c .pio/build/lptm4c1294ncpdt/src/NeonRTOS/lwip/api/netbuf.o
                0x00013d12                netbuf_alloc
 .text.netbuf_free
                0x00013d3e       0x16 .pio/build/lptm4c1294ncpdt/src/NeonRTOS/lwip/api/netbuf.o
                0x00013d3e                netbuf_free
 .text.netbuf_ref
                0x00013d54       0x38 .pio/build/lptm4c1294ncpdt/src/NeonRTOS/lwip/api/netbuf.o
                0x00013d54                netbuf_ref
 .text.netbuf_chain
                0x00013d8c       0x24 .pio/build/lptm4c1294ncpdt/src/NeonRTOS/lwip/api/netbuf.o
                0x00013d8c                netbuf_chain
 .text.netbuf_data
                0x00013db0       0x22 .pio/build/lptm4c1294ncpdt/src/NeonRTOS/lwip/api/netbuf.o
                0x00013db0                netbuf_data
 .text.netbuf_next
                0x00013dd2       0x1c .pio/build/lptm4c1294ncpdt/src/NeonRTOS/lwip/api/netbuf.o
                0x00013dd2                netbuf_next
 .text.netbuf_first
                0x00013dee        0x8 .pio/build/lptm4c1294ncpdt/src/NeonRTOS/lwip/api/netbuf.o
                0x00013dee                netbuf_first
 .text          0x00013df6        0x0 .pio/build/lptm4c1294ncpdt/src/NeonRTOS/lwip/api/netdb.o
 *fill*         0x00013df6        0x2 
 .text.lwip_gethostbyname
                0x00013df8       0x68 .pio/build/lptm4c1294ncpdt/src/NeonRTOS/lwip/api/netdb.o
                0x00013df8                lwip_gethostbyname
 .text.lwip_gethostbyname_r
                0x00013e60       0x98 .pio/build/lptm4c1294ncpdt/src/NeonRTOS/lwip/api/netdb.o
                0x00013e60                lwip_gethostbyname_r
 .text.lwip_freeaddrinfo
                0x00013ef8       0x14 .pio/build/lptm4c1294ncpdt/src/NeonRTOS/lwip/api/netdb.o
                0x00013ef8                lwip_freeaddrinfo
 .text.lwip_getaddrinfo
                0x00013f0c      0x114 .pio/build/lptm4c1294ncpdt/src/NeonRTOS/lwip/api/netdb.o
                0x00013f0c                lwip_getaddrinfo
 .text          0x00014020        0x0 .pio/build/lptm4c1294ncpdt/src/NeonRTOS/lwip/api/netifapi.o
 .text          0x00014020        0x0 .pio/build/lptm4c1294ncpdt/src/NeonRTOS/lwip/api/sockets.o
 .text.tryget_socket
                0x00014020       0x1c .pio/build/lptm4c1294ncpdt/src/NeonRTOS/lwip/api/sockets.o
 .text.get_socket
                0x0001403c       0x14 .pio/build/lptm4c1294ncpdt/src/NeonRTOS/lwip/api/sockets.o
 .text.alloc_socket
                0x00014050       0x44 .pio/build/lptm4c1294ncpdt/src/NeonRTOS/lwip/api/sockets.o
 .text.lwip_selscan
                0x00014094      0x184 .pio/build/lptm4c1294ncpdt/src/NeonRTOS/lwip/api/sockets.o
 .text.lwip_pollscan
                0x00014218       0xec .pio/build/lptm4c1294ncpdt/src/NeonRTOS/lwip/api/sockets.o
 .text.lwip_link_select_cb
                0x00014304       0x28 .pio/build/lptm4c1294ncpdt/src/NeonRTOS/lwip/api/sockets.o
 .text.lwip_unlink_select_cb
                0x0001432c       0x30 .pio/build/lptm4c1294ncpdt/src/NeonRTOS/lwip/api/sockets.o
 .text.lwip_getaddrname
                0x0001435c       0x78 .pio/build/lptm4c1294ncpdt/src/NeonRTOS/lwip/api/sockets.o
 .text.free_socket
                0x000143d4       0x2a .pio/build/lptm4c1294ncpdt/src/NeonRTOS/lwip/api/sockets.o
 *fill*         0x000143fe        0x2 
 .text.lwip_recv_tcp
                0x00014400       0xcc .pio/build/lptm4c1294ncpdt/src/NeonRTOS/lwip/api/sockets.o
 .text.event_callback
                0x000144cc      0x158 .pio/build/lptm4c1294ncpdt/src/NeonRTOS/lwip/api/sockets.o
 .text.lwip_sock_make_addr.isra.1
                0x00014624       0x4e .pio/build/lptm4c1294ncpdt/src/NeonRTOS/lwip/api/sockets.o
 .text.lwip_recvfrom_udp_raw.isra.3
                0x00014672       0xc4 .pio/build/lptm4c1294ncpdt/src/NeonRTOS/lwip/api/sockets.o
 .text.lwip_socket_thread_init
                0x00014736        0x2 .pio/build/lptm4c1294ncpdt/src/NeonRTOS/lwip/api/sockets.o
                0x00014736                lwip_socket_thread_init
 .text.lwip_socket_thread_cleanup
                0x00014738        0x2 .pio/build/lptm4c1294ncpdt/src/NeonRTOS/lwip/api/sockets.o
                0x00014738                lwip_socket_thread_cleanup
 *fill*         0x0001473a        0x2 
 .text.lwip_socket_dbg_get_socket
                0x0001473c       0x14 .pio/build/lptm4c1294ncpdt/src/NeonRTOS/lwip/api/sockets.o
                0x0001473c                lwip_socket_dbg_get_socket
 .text.lwip_accept
                0x00014750      0x118 .pio/build/lptm4c1294ncpdt/src/NeonRTOS/lwip/api/sockets.o
                0x00014750                lwip_accept
 .text.lwip_bind
                0x00014868       0x68 .pio/build/lptm4c1294ncpdt/src/NeonRTOS/lwip/api/sockets.o
                0x00014868                lwip_bind
 .text.lwip_close
                0x000148d0       0x50 .pio/build/lptm4c1294ncpdt/src/NeonRTOS/lwip/api/sockets.o
                0x000148d0                lwip_close
 .text.lwip_connect
                0x00014920       0x70 .pio/build/lptm4c1294ncpdt/src/NeonRTOS/lwip/api/sockets.o
                0x00014920                lwip_connect
 .text.lwip_listen
                0x00014990       0x54 .pio/build/lptm4c1294ncpdt/src/NeonRTOS/lwip/api/sockets.o
                0x00014990                lwip_listen
 .text.lwip_recvfrom
                0x000149e4       0xd0 .pio/build/lptm4c1294ncpdt/src/NeonRTOS/lwip/api/sockets.o
                0x000149e4                lwip_recvfrom
 .text.lwip_read
                0x00014ab4       0x12 .pio/build/lptm4c1294ncpdt/src/NeonRTOS/lwip/api/sockets.o
                0x00014ab4                lwip_read
 .text.lwip_recv
                0x00014ac6       0x10 .pio/build/lptm4c1294ncpdt/src/NeonRTOS/lwip/api/sockets.o
                0x00014ac6                lwip_recv
 *fill*         0x00014ad6        0x2 
 .text.lwip_recvmsg
                0x00014ad8      0x114 .pio/build/lptm4c1294ncpdt/src/NeonRTOS/lwip/api/sockets.o
                0x00014ad8                lwip_recvmsg
 .text.lwip_readv
                0x00014bec       0x22 .pio/build/lptm4c1294ncpdt/src/NeonRTOS/lwip/api/sockets.o
                0x00014bec                lwip_readv
 *fill*         0x00014c0e        0x2 
 .text.lwip_sendmsg
                0x00014c10      0x16c .pio/build/lptm4c1294ncpdt/src/NeonRTOS/lwip/api/sockets.o
                0x00014c10                lwip_sendmsg
 .text.lwip_sendto
                0x00014d7c       0xd0 .pio/build/lptm4c1294ncpdt/src/NeonRTOS/lwip/api/sockets.o
                0x00014d7c                lwip_sendto
 .text.lwip_send
                0x00014e4c       0x84 .pio/build/lptm4c1294ncpdt/src/NeonRTOS/lwip/api/sockets.o
                0x00014e4c                lwip_send
 .text.lwip_socket
                0x00014ed0       0x64 .pio/build/lptm4c1294ncpdt/src/NeonRTOS/lwip/api/sockets.o
                0x00014ed0                lwip_socket
 .text.lwip_write
                0x00014f34        0x6 .pio/build/lptm4c1294ncpdt/src/NeonRTOS/lwip/api/sockets.o
                0x00014f34                lwip_write
 .text.lwip_writev
                0x00014f3a       0x22 .pio/build/lptm4c1294ncpdt/src/NeonRTOS/lwip/api/sockets.o
                0x00014f3a                lwip_writev
 .text.lwip_select
                0x00014f5c      0x248 .pio/build/lptm4c1294ncpdt/src/NeonRTOS/lwip/api/sockets.o
                0x00014f5c                lwip_select
 .text.lwip_poll
                0x000151a4       0x90 .pio/build/lptm4c1294ncpdt/src/NeonRTOS/lwip/api/sockets.o
                0x000151a4                lwip_poll
 .text.lwip_shutdown
                0x00015234       0x70 .pio/build/lptm4c1294ncpdt/src/NeonRTOS/lwip/api/sockets.o
                0x00015234                lwip_shutdown
 .text.lwip_getpeername
                0x000152a4        0x6 .pio/build/lptm4c1294ncpdt/src/NeonRTOS/lwip/api/sockets.o
                0x000152a4                lwip_getpeername
 .text.lwip_getsockname
                0x000152aa        0x6 .pio/build/lptm4c1294ncpdt/src/NeonRTOS/lwip/api/sockets.o
                0x000152aa                lwip_getsockname
 .text.lwip_getsockopt
                0x000152b0      0x220 .pio/build/lptm4c1294ncpdt/src/NeonRTOS/lwip/api/sockets.o
                0x000152b0                lwip_getsockopt
 .text.lwip_setsockopt
                0x000154d0      0x23c .pio/build/lptm4c1294ncpdt/src/NeonRTOS/lwip/api/sockets.o
                0x000154d0                lwip_setsockopt
 .text.lwip_ioctl
                0x0001570c       0x48 .pio/build/lptm4c1294ncpdt/src/NeonRTOS/lwip/api/sockets.o
                0x0001570c                lwip_ioctl
 .text.lwip_fcntl
                0x00015754       0x94 .pio/build/lptm4c1294ncpdt/src/NeonRTOS/lwip/api/sockets.o
                0x00015754                lwip_fcntl
 .text.lwip_inet_ntop
                0x000157e8       0x30 .pio/build/lptm4c1294ncpdt/src/NeonRTOS/lwip/api/sockets.o
                0x000157e8                lwip_inet_ntop
 .text.lwip_inet_pton
                0x00015818       0x1c .pio/build/lptm4c1294ncpdt/src/NeonRTOS/lwip/api/sockets.o
                0x00015818                lwip_inet_pton
 .text          0x00015834        0x0 .pio/build/lptm4c1294ncpdt/src/NeonRTOS/lwip/api/tcpip.o
 .text.pbuf_free_int
                0x00015834        0x4 .pio/build/lptm4c1294ncpdt/src/NeonRTOS/lwip/api/tcpip.o
 .text.tcpip_thread
                0x00015838       0xa4 .pio/build/lptm4c1294ncpdt/src/NeonRTOS/lwip/api/tcpip.o
 .text.tcpip_inpkt
                0x000158dc       0x38 .pio/build/lptm4c1294ncpdt/src/NeonRTOS/lwip/api/tcpip.o
                0x000158dc                tcpip_inpkt
 .text.tcpip_input
                0x00015914       0x1c .pio/build/lptm4c1294ncpdt/src/NeonRTOS/lwip/api/tcpip.o
                0x00015914                tcpip_input
 .text.tcpip_callback
                0x00015930       0x2c .pio/build/lptm4c1294ncpdt/src/NeonRTOS/lwip/api/tcpip.o
                0x00015930                tcpip_callback
 .text.tcpip_try_callback
                0x0001595c       0x34 .pio/build/lptm4c1294ncpdt/src/NeonRTOS/lwip/api/tcpip.o
                0x0001595c                tcpip_try_callback
 .text.tcpip_send_msg_wait_sem
                0x00015990       0x20 .pio/build/lptm4c1294ncpdt/src/NeonRTOS/lwip/api/tcpip.o
                0x00015990                tcpip_send_msg_wait_sem
 .text.tcpip_api_call
                0x000159b0       0x24 .pio/build/lptm4c1294ncpdt/src/NeonRTOS/lwip/api/tcpip.o
                0x000159b0                tcpip_api_call
 .text.tcpip_callbackmsg_new
                0x000159d4       0x18 .pio/build/lptm4c1294ncpdt/src/NeonRTOS/lwip/api/tcpip.o
                0x000159d4                tcpip_callbackmsg_new
 .text.tcpip_callbackmsg_delete
                0x000159ec        0x8 .pio/build/lptm4c1294ncpdt/src/NeonRTOS/lwip/api/tcpip.o
                0x000159ec                tcpip_callbackmsg_delete
 .text.tcpip_callbackmsg_trycallback
                0x000159f4        0xc .pio/build/lptm4c1294ncpdt/src/NeonRTOS/lwip/api/tcpip.o
                0x000159f4                tcpip_callbackmsg_trycallback
 .text.tcpip_callbackmsg_trycallback_fromisr
                0x00015a00        0xc .pio/build/lptm4c1294ncpdt/src/NeonRTOS/lwip/api/tcpip.o
                0x00015a00                tcpip_callbackmsg_trycallback_fromisr
 .text.tcpip_callback_wait
                0x00015a0c       0x20 .pio/build/lptm4c1294ncpdt/src/NeonRTOS/lwip/api/tcpip.o
                0x00015a0c                tcpip_callback_wait
 .text.tcpip_init
                0x00015a2c       0x4c .pio/build/lptm4c1294ncpdt/src/NeonRTOS/lwip/api/tcpip.o
                0x00015a2c                tcpip_init
 .text.pbuf_free_callback
                0x00015a78        0xc .pio/build/lptm4c1294ncpdt/src/NeonRTOS/lwip/api/tcpip.o
                0x00015a78                pbuf_free_callback
 .text.mem_free_callback
                0x00015a84        0xc .pio/build/lptm4c1294ncpdt/src/NeonRTOS/lwip/api/tcpip.o
                0x00015a84                mem_free_callback
 .text          0x00015a90        0x0 .pio/build/lptm4c1294ncpdt/src/NeonRTOS/lwip/arch/sys_arch.o
 .text.sys_mbox_new
                0x00015a90       0x1c .pio/build/lptm4c1294ncpdt/src/NeonRTOS/lwip/arch/sys_arch.o
                0x00015a90                sys_mbox_new
 .text.sys_mbox_free
                0x00015aac       0x14 .pio/build/lptm4c1294ncpdt/src/NeonRTOS/lwip/arch/sys_arch.o
                0x00015aac                sys_mbox_free
 .text.sys_mbox_post
                0x00015ac0       0x1c .pio/build/lptm4c1294ncpdt/src/NeonRTOS/lwip/arch/sys_arch.o
                0x00015ac0                sys_mbox_post
 .text.sys_mbox_trypost
                0x00015adc       0x22 .pio/build/lptm4c1294ncpdt/src/NeonRTOS/lwip/arch/sys_arch.o
                0x00015adc                sys_mbox_trypost
 .text.sys_mbox_trypost_fromisr
                0x00015afe        0x4 .pio/build/lptm4c1294ncpdt/src/NeonRTOS/lwip/arch/sys_arch.o
                0x00015afe                sys_mbox_trypost_fromisr
 .text.sys_arch_mbox_fetch
                0x00015b02       0x4e .pio/build/lptm4c1294ncpdt/src/NeonRTOS/lwip/arch/sys_arch.o
                0x00015b02                sys_arch_mbox_fetch
 .text.sys_arch_mbox_tryfetch
                0x00015b50       0x2e .pio/build/lptm4c1294ncpdt/src/NeonRTOS/lwip/arch/sys_arch.o
                0x00015b50                sys_arch_mbox_tryfetch
 .text.sys_mbox_valid
                0x00015b7e        0xa .pio/build/lptm4c1294ncpdt/src/NeonRTOS/lwip/arch/sys_arch.o
                0x00015b7e                sys_mbox_valid
 .text.sys_mbox_set_invalid
                0x00015b88        0x6 .pio/build/lptm4c1294ncpdt/src/NeonRTOS/lwip/arch/sys_arch.o
                0x00015b88                sys_mbox_set_invalid
 .text.sys_sem_new
                0x00015b8e       0x26 .pio/build/lptm4c1294ncpdt/src/NeonRTOS/lwip/arch/sys_arch.o
                0x00015b8e                sys_sem_new
 .text.sys_arch_sem_wait
                0x00015bb4       0x38 .pio/build/lptm4c1294ncpdt/src/NeonRTOS/lwip/arch/sys_arch.o
                0x00015bb4                sys_arch_sem_wait
 .text.sys_sem_signal
                0x00015bec        0xc .pio/build/lptm4c1294ncpdt/src/NeonRTOS/lwip/arch/sys_arch.o
                0x00015bec                sys_sem_signal
 .text.sys_sem_free
                0x00015bf8        0x6 .pio/build/lptm4c1294ncpdt/src/NeonRTOS/lwip/arch/sys_arch.o
                0x00015bf8                sys_sem_free
 .text.sys_sem_valid
                0x00015bfe        0xa .pio/build/lptm4c1294ncpdt/src/NeonRTOS/lwip/arch/sys_arch.o
                0x00015bfe                sys_sem_valid
 .text.sys_sem_set_invalid
                0x00015c08        0x6 .pio/build/lptm4c1294ncpdt/src/NeonRTOS/lwip/arch/sys_arch.o
                0x00015c08                sys_sem_set_invalid
 *fill*         0x00015c0e        0x2 
 .text.sys_init
                0x00015c10       0x28 .pio/build/lptm4c1294ncpdt/src/NeonRTOS/lwip/arch/sys_arch.o
                0x00015c10                sys_init
 .text.sys_mutex_new
                0x00015c38       0x18 .pio/build/lptm4c1294ncpdt/src/NeonRTOS/lwip/arch/sys_arch.o
                0x00015c38                sys_mutex_new
 .text.sys_mutex_free
                0x00015c50        0x6 .pio/build/lptm4c1294ncpdt/src/NeonRTOS/lwip/arch/sys_arch.o
                0x00015c50                sys_mutex_free
 .text.sys_mutex_lock
                0x00015c56       0x24 .pio/build/lptm4c1294ncpdt/src/NeonRTOS/lwip/arch/sys_arch.o
                0x00015c56                sys_mutex_lock
 .text.sys_mutex_unlock
                0x00015c7a       0x26 .pio/build/lptm4c1294ncpdt/src/NeonRTOS/lwip/arch/sys_arch.o
                0x00015c7a                sys_mutex_unlock
 .text.sys_thread_new
                0x00015ca0       0x26 .pio/build/lptm4c1294ncpdt/src/NeonRTOS/lwip/arch/sys_arch.o
                0x00015ca0                sys_thread_new
 .text          0x00015cc6        0x0 .pio/build/lptm4c1294ncpdt/src/NeonRTOS/lwip/core/altcp.o
 .text          0x00015cc6        0x0 .pio/build/lptm4c1294ncpdt/src/NeonRTOS/lwip/core/altcp_alloc.o
 .text          0x00015cc6        0x0 .pio/build/lptm4c1294ncpdt/src/NeonRTOS/lwip/core/altcp_tcp.o
 .text          0x00015cc6        0x0 .pio/build/lptm4c1294ncpdt/src/NeonRTOS/lwip/core/def.o
 .text.lwip_htons
                0x00015cc6        0x6 .pio/build/lptm4c1294ncpdt/src/NeonRTOS/lwip/core/def.o
                0x00015cc6                lwip_htons
 .text.lwip_htonl
                0x00015ccc        0x4 .pio/build/lptm4c1294ncpdt/src/NeonRTOS/lwip/core/def.o
                0x00015ccc                lwip_htonl
 .text.lwip_strnstr
                0x00015cd0       0x50 .pio/build/lptm4c1294ncpdt/src/NeonRTOS/lwip/core/def.o
                0x00015cd0                lwip_strnstr
 .text.lwip_stricmp
                0x00015d20       0x2e .pio/build/lptm4c1294ncpdt/src/NeonRTOS/lwip/core/def.o
                0x00015d20                lwip_stricmp
 .text.lwip_strnicmp
                0x00015d4e       0x36 .pio/build/lptm4c1294ncpdt/src/NeonRTOS/lwip/core/def.o
                0x00015d4e                lwip_strnicmp
 .text.lwip_strnistr
                0x00015d84       0x4c .pio/build/lptm4c1294ncpdt/src/NeonRTOS/lwip/core/def.o
                0x00015d84                lwip_strnistr
 .text.lwip_itoa
                0x00015dd0       0x68 .pio/build/lptm4c1294ncpdt/src/NeonRTOS/lwip/core/def.o
                0x00015dd0                lwip_itoa
 .text          0x00015e38        0x0 .pio/build/lptm4c1294ncpdt/src/NeonRTOS/lwip/core/dns.o
 .text.dns_call_found
                0x00015e38       0xa4 .pio/build/lptm4c1294ncpdt/src/NeonRTOS/lwip/core/dns.o
 .text.dns_send
                0x00015edc      0x138 .pio/build/lptm4c1294ncpdt/src/NeonRTOS/lwip/core/dns.o
 .text.dns_check_entry
                0x00016014       0xa4 .pio/build/lptm4c1294ncpdt/src/NeonRTOS/lwip/core/dns.o
 .text.dns_recv
                0x000160b8      0x2e8 .pio/build/lptm4c1294ncpdt/src/NeonRTOS/lwip/core/dns.o
 .text.dns_init
                0x000163a0        0x2 .pio/build/lptm4c1294ncpdt/src/NeonRTOS/lwip/core/dns.o
                0x000163a0                dns_init
 *fill*         0x000163a2        0x2 
 .text.dns_setserver
                0x000163a4       0x20 .pio/build/lptm4c1294ncpdt/src/NeonRTOS/lwip/core/dns.o
                0x000163a4                dns_setserver
 .text.dns_getserver
                0x000163c4       0x18 .pio/build/lptm4c1294ncpdt/src/NeonRTOS/lwip/core/dns.o
                0x000163c4                dns_getserver
 .text.dns_tmr  0x000163dc       0x1e .pio/build/lptm4c1294ncpdt/src/NeonRTOS/lwip/core/dns.o
                0x000163dc                dns_tmr
 *fill*         0x000163fa        0x2 
 .text.dns_gethostbyname_addrtype
                0x000163fc      0x274 .pio/build/lptm4c1294ncpdt/src/NeonRTOS/lwip/core/dns.o
                0x000163fc                dns_gethostbyname_addrtype
 .text.dns_gethostbyname
                0x00016670        0xe .pio/build/lptm4c1294ncpdt/src/NeonRTOS/lwip/core/dns.o
                0x00016670                dns_gethostbyname
 .text          0x0001667e        0x0 .pio/build/lptm4c1294ncpdt/src/NeonRTOS/lwip/core/inet_chksum.o
 .text.lwip_standard_chksum
                0x0001667e       0x58 .pio/build/lptm4c1294ncpdt/src/NeonRTOS/lwip/core/inet_chksum.o
                0x0001667e                lwip_standard_chksum
 .text.inet_chksum_pseudo
                0x000166d6       0x88 .pio/build/lptm4c1294ncpdt/src/NeonRTOS/lwip/core/inet_chksum.o
                0x000166d6                inet_chksum_pseudo
 .text.ip_chksum_pseudo
                0x0001675e        0x4 .pio/build/lptm4c1294ncpdt/src/NeonRTOS/lwip/core/inet_chksum.o
                0x0001675e                ip_chksum_pseudo
 .text.inet_chksum_pseudo_partial
                0x00016762       0xa2 .pio/build/lptm4c1294ncpdt/src/NeonRTOS/lwip/core/inet_chksum.o
                0x00016762                inet_chksum_pseudo_partial
 .text.ip_chksum_pseudo_partial
                0x00016804        0xa .pio/build/lptm4c1294ncpdt/src/NeonRTOS/lwip/core/inet_chksum.o
                0x00016804                ip_chksum_pseudo_partial
 .text.inet_chksum
                0x0001680e        0xc .pio/build/lptm4c1294ncpdt/src/NeonRTOS/lwip/core/inet_chksum.o
                0x0001680e                inet_chksum
 .text.inet_chksum_pbuf
                0x0001681a       0x44 .pio/build/lptm4c1294ncpdt/src/NeonRTOS/lwip/core/inet_chksum.o
                0x0001681a                inet_chksum_pbuf
 .text          0x0001685e        0x0 .pio/build/lptm4c1294ncpdt/src/NeonRTOS/lwip/core/init.o
 .text.lwip_init
                0x0001685e       0x26 .pio/build/lptm4c1294ncpdt/src/NeonRTOS/lwip/core/init.o
                0x0001685e                lwip_init
 .text          0x00016884        0x0 .pio/build/lptm4c1294ncpdt/src/NeonRTOS/lwip/core/ip.o
 .text          0x00016884        0x0 .pio/build/lptm4c1294ncpdt/src/NeonRTOS/lwip/core/ipv4/acd.o
 .text          0x00016884        0x0 .pio/build/lptm4c1294ncpdt/src/NeonRTOS/lwip/core/ipv4/autoip.o
 .text          0x00016884        0x0 .pio/build/lptm4c1294ncpdt/src/NeonRTOS/lwip/core/ipv4/dhcp.o
 .text          0x00016884        0x0 .pio/build/lptm4c1294ncpdt/src/NeonRTOS/lwip/core/ipv4/etharp.o
 .text.etharp_free_entry
                0x00016884       0x28 .pio/build/lptm4c1294ncpdt/src/NeonRTOS/lwip/core/ipv4/etharp.o
 .text.etharp_find_entry
                0x000168ac      0x108 .pio/build/lptm4c1294ncpdt/src/NeonRTOS/lwip/core/ipv4/etharp.o
 .text.etharp_raw
                0x000169b4       0x86 .pio/build/lptm4c1294ncpdt/src/NeonRTOS/lwip/core/ipv4/etharp.o
 *fill*         0x00016a3a        0x2 
 .text.etharp_cleanup_netif
                0x00016a3c       0x28 .pio/build/lptm4c1294ncpdt/src/NeonRTOS/lwip/core/ipv4/etharp.o
                0x00016a3c                etharp_cleanup_netif
 .text.etharp_find_addr
                0x00016a64       0x3c .pio/build/lptm4c1294ncpdt/src/NeonRTOS/lwip/core/ipv4/etharp.o
                0x00016a64                etharp_find_addr
 .text.etharp_get_entry
                0x00016aa0       0x30 .pio/build/lptm4c1294ncpdt/src/NeonRTOS/lwip/core/ipv4/etharp.o
                0x00016aa0                etharp_get_entry
 .text.etharp_input
                0x00016ad0      0x110 .pio/build/lptm4c1294ncpdt/src/NeonRTOS/lwip/core/ipv4/etharp.o
                0x00016ad0                etharp_input
 .text.etharp_request
                0x00016be0       0x2c .pio/build/lptm4c1294ncpdt/src/NeonRTOS/lwip/core/ipv4/etharp.o
                0x00016be0                etharp_request
 .text.etharp_tmr
                0x00016c0c       0x54 .pio/build/lptm4c1294ncpdt/src/NeonRTOS/lwip/core/ipv4/etharp.o
                0x00016c0c                etharp_tmr
 .text.etharp_output_to_arp_index
                0x00016c60       0x84 .pio/build/lptm4c1294ncpdt/src/NeonRTOS/lwip/core/ipv4/etharp.o
 .text.etharp_query
                0x00016ce4      0x100 .pio/build/lptm4c1294ncpdt/src/NeonRTOS/lwip/core/ipv4/etharp.o
                0x00016ce4                etharp_query
 .text.etharp_output
                0x00016de4      0x100 .pio/build/lptm4c1294ncpdt/src/NeonRTOS/lwip/core/ipv4/etharp.o
                0x00016de4                etharp_output
 .text          0x00016ee4        0x0 .pio/build/lptm4c1294ncpdt/src/NeonRTOS/lwip/core/ipv4/icmp.o
 .text.icmp_send_response
                0x00016ee4       0x7e .pio/build/lptm4c1294ncpdt/src/NeonRTOS/lwip/core/ipv4/icmp.o
 *fill*         0x00016f62        0x2 
 .text.icmp_input
                0x00016f64      0x10c .pio/build/lptm4c1294ncpdt/src/NeonRTOS/lwip/core/ipv4/icmp.o
                0x00016f64                icmp_input
 .text.icmp_dest_unreach
                0x00017070        0x8 .pio/build/lptm4c1294ncpdt/src/NeonRTOS/lwip/core/ipv4/icmp.o
                0x00017070                icmp_dest_unreach
 .text.icmp_time_exceeded
                0x00017078        0x8 .pio/build/lptm4c1294ncpdt/src/NeonRTOS/lwip/core/ipv4/icmp.o
                0x00017078                icmp_time_exceeded
 .text          0x00017080        0x0 .pio/build/lptm4c1294ncpdt/src/NeonRTOS/lwip/core/ipv4/igmp.o
 .text          0x00017080        0x0 .pio/build/lptm4c1294ncpdt/src/NeonRTOS/lwip/core/ipv4/ip4.o
 .text.ip4_input_accept
                0x00017080       0x34 .pio/build/lptm4c1294ncpdt/src/NeonRTOS/lwip/core/ipv4/ip4.o
 .text.ip4_route
                0x000170b4       0x60 .pio/build/lptm4c1294ncpdt/src/NeonRTOS/lwip/core/ipv4/ip4.o
                0x000170b4                ip4_route
 .text.ip4_input
                0x00017114      0x184 .pio/build/lptm4c1294ncpdt/src/NeonRTOS/lwip/core/ipv4/ip4.o
                0x00017114                ip4_input
 .text.ip4_output_if_src
                0x00017298       0xbc .pio/build/lptm4c1294ncpdt/src/NeonRTOS/lwip/core/ipv4/ip4.o
                0x00017298                ip4_output_if_src
 .text.ip4_output_if
                0x00017354       0x24 .pio/build/lptm4c1294ncpdt/src/NeonRTOS/lwip/core/ipv4/ip4.o
                0x00017354                ip4_output_if
 .text.ip4_output
                0x00017378       0x38 .pio/build/lptm4c1294ncpdt/src/NeonRTOS/lwip/core/ipv4/ip4.o
                0x00017378                ip4_output
 .text          0x000173b0        0x0 .pio/build/lptm4c1294ncpdt/src/NeonRTOS/lwip/core/ipv4/ip4_addr.o
 .text.ip4_addr_isbroadcast_u32
                0x000173b0       0x3a .pio/build/lptm4c1294ncpdt/src/NeonRTOS/lwip/core/ipv4/ip4_addr.o
                0x000173b0                ip4_addr_isbroadcast_u32
 .text.ip4_addr_netmask_valid
                0x000173ea       0x2e .pio/build/lptm4c1294ncpdt/src/NeonRTOS/lwip/core/ipv4/ip4_addr.o
                0x000173ea                ip4_addr_netmask_valid
 .text.ip4addr_aton
                0x00017418      0x138 .pio/build/lptm4c1294ncpdt/src/NeonRTOS/lwip/core/ipv4/ip4_addr.o
                0x00017418                ip4addr_aton
 .text.ipaddr_addr
                0x00017550       0x18 .pio/build/lptm4c1294ncpdt/src/NeonRTOS/lwip/core/ipv4/ip4_addr.o
                0x00017550                ipaddr_addr
 .text.ip4addr_ntoa_r
                0x00017568       0x98 .pio/build/lptm4c1294ncpdt/src/NeonRTOS/lwip/core/ipv4/ip4_addr.o
                0x00017568                ip4addr_ntoa_r
 .text.ip4addr_ntoa
                0x00017600        0xc .pio/build/lptm4c1294ncpdt/src/NeonRTOS/lwip/core/ipv4/ip4_addr.o
                0x00017600                ip4addr_ntoa
 .text          0x0001760c        0x0 .pio/build/lptm4c1294ncpdt/src/NeonRTOS/lwip/core/ipv4/ip4_frag.o
 .text.ip_reass_dequeue_datagram.isra.0
                0x0001760c       0x20 .pio/build/lptm4c1294ncpdt/src/NeonRTOS/lwip/core/ipv4/ip4_frag.o
 .text.ip_reass_free_complete_datagram
                0x0001762c       0x7c .pio/build/lptm4c1294ncpdt/src/NeonRTOS/lwip/core/ipv4/ip4_frag.o
 .text.ip_reass_remove_oldest_datagram
                0x000176a8       0x78 .pio/build/lptm4c1294ncpdt/src/NeonRTOS/lwip/core/ipv4/ip4_frag.o
 .text.ipfrag_free_pbuf_custom
                0x00017720       0x18 .pio/build/lptm4c1294ncpdt/src/NeonRTOS/lwip/core/ipv4/ip4_frag.o
 .text.ip_reass_tmr
                0x00017738       0x28 .pio/build/lptm4c1294ncpdt/src/NeonRTOS/lwip/core/ipv4/ip4_frag.o
                0x00017738                ip_reass_tmr
 .text.ip4_reass
                0x00017760      0x2e0 .pio/build/lptm4c1294ncpdt/src/NeonRTOS/lwip/core/ipv4/ip4_frag.o
                0x00017760                ip4_reass
 .text.ip4_frag
                0x00017a40      0x1a4 .pio/build/lptm4c1294ncpdt/src/NeonRTOS/lwip/core/ipv4/ip4_frag.o
                0x00017a40                ip4_frag
 .text          0x00017be4        0x0 .pio/build/lptm4c1294ncpdt/src/NeonRTOS/lwip/core/ipv6/dhcp6.o
 .text          0x00017be4        0x0 .pio/build/lptm4c1294ncpdt/src/NeonRTOS/lwip/core/ipv6/ethip6.o
 .text          0x00017be4        0x0 .pio/build/lptm4c1294ncpdt/src/NeonRTOS/lwip/core/ipv6/icmp6.o
 .text          0x00017be4        0x0 .pio/build/lptm4c1294ncpdt/src/NeonRTOS/lwip/core/ipv6/inet6.o
 .text          0x00017be4        0x0 .pio/build/lptm4c1294ncpdt/src/NeonRTOS/lwip/core/ipv6/ip6.o
 .text          0x00017be4        0x0 .pio/build/lptm4c1294ncpdt/src/NeonRTOS/lwip/core/ipv6/ip6_addr.o
 .text          0x00017be4        0x0 .pio/build/lptm4c1294ncpdt/src/NeonRTOS/lwip/core/ipv6/ip6_frag.o
 .text          0x00017be4        0x0 .pio/build/lptm4c1294ncpdt/src/NeonRTOS/lwip/core/ipv6/mld6.o
 .text          0x00017be4        0x0 .pio/build/lptm4c1294ncpdt/src/NeonRTOS/lwip/core/ipv6/nd6.o
 .text          0x00017be4        0x0 .pio/build/lptm4c1294ncpdt/src/NeonRTOS/lwip/core/mem.o
 .text.mem_init
                0x00017be4       0x44 .pio/build/lptm4c1294ncpdt/src/NeonRTOS/lwip/core/mem.o
                0x00017be4                mem_init
 .text.mem_free
                0x00017c28       0xf4 .pio/build/lptm4c1294ncpdt/src/NeonRTOS/lwip/core/mem.o
                0x00017c28                mem_free
 .text.mem_trim
                0x00017d1c       0xd0 .pio/build/lptm4c1294ncpdt/src/NeonRTOS/lwip/core/mem.o
                0x00017d1c                mem_trim
 .text.mem_malloc
                0x00017dec       0xcc .pio/build/lptm4c1294ncpdt/src/NeonRTOS/lwip/core/mem.o
                0x00017dec                mem_malloc
 .text.mem_calloc
                0x00017eb8       0x1c .pio/build/lptm4c1294ncpdt/src/NeonRTOS/lwip/core/mem.o
                0x00017eb8                mem_calloc
 .text          0x00017ed4        0x0 .pio/build/lptm4c1294ncpdt/src/NeonRTOS/lwip/core/memp.o
 .text.memp_init_pool
                0x00017ed4       0x28 .pio/build/lptm4c1294ncpdt/src/NeonRTOS/lwip/core/memp.o
                0x00017ed4                memp_init_pool
 .text.memp_init
                0x00017efc       0x18 .pio/build/lptm4c1294ncpdt/src/NeonRTOS/lwip/core/memp.o
                0x00017efc                memp_init
 .text.memp_malloc_pool
                0x00017f14        0xe .pio/build/lptm4c1294ncpdt/src/NeonRTOS/lwip/core/memp.o
                0x00017f14                memp_malloc_pool
 *fill*         0x00017f22        0x2 
 .text.memp_malloc
                0x00017f24       0x20 .pio/build/lptm4c1294ncpdt/src/NeonRTOS/lwip/core/memp.o
                0x00017f24                memp_malloc
 .text.memp_free_pool
                0x00017f44        0xe .pio/build/lptm4c1294ncpdt/src/NeonRTOS/lwip/core/memp.o
                0x00017f44                memp_free_pool
 *fill*         0x00017f52        0x2 
 .text.memp_free
                0x00017f54       0x1c .pio/build/lptm4c1294ncpdt/src/NeonRTOS/lwip/core/memp.o
                0x00017f54                memp_free
 .text          0x00017f70        0x0 .pio/build/lptm4c1294ncpdt/src/NeonRTOS/lwip/core/netif.o
 .text.netif_null_output_ip4
                0x00017f70        0x6 .pio/build/lptm4c1294ncpdt/src/NeonRTOS/lwip/core/netif.o
 .text.netif_issue_reports
                0x00017f76       0x26 .pio/build/lptm4c1294ncpdt/src/NeonRTOS/lwip/core/netif.o
 .text.netif_do_set_ipaddr
                0x00017f9c       0x4e .pio/build/lptm4c1294ncpdt/src/NeonRTOS/lwip/core/netif.o
 .text.netif_init
                0x00017fea        0x2 .pio/build/lptm4c1294ncpdt/src/NeonRTOS/lwip/core/netif.o
                0x00017fea                netif_init
 .text.netif_input
                0x00017fec       0x12 .pio/build/lptm4c1294ncpdt/src/NeonRTOS/lwip/core/netif.o
                0x00017fec                netif_input
 *fill*         0x00017ffe        0x2 
 .text.netif_set_ipaddr
                0x00018000       0x1c .pio/build/lptm4c1294ncpdt/src/NeonRTOS/lwip/core/netif.o
                0x00018000                netif_set_ipaddr
 .text.netif_set_netmask
                0x0001801c       0x1c .pio/build/lptm4c1294ncpdt/src/NeonRTOS/lwip/core/netif.o
                0x0001801c                netif_set_netmask
 .text.netif_set_gw
                0x00018038       0x1c .pio/build/lptm4c1294ncpdt/src/NeonRTOS/lwip/core/netif.o
                0x00018038                netif_set_gw
 .text.netif_set_addr
                0x00018054       0x58 .pio/build/lptm4c1294ncpdt/src/NeonRTOS/lwip/core/netif.o
                0x00018054                netif_set_addr
 .text.netif_add
                0x000180ac       0xbc .pio/build/lptm4c1294ncpdt/src/NeonRTOS/lwip/core/netif.o
                0x000180ac                netif_add
 .text.netif_add_noaddr
                0x00018168       0x16 .pio/build/lptm4c1294ncpdt/src/NeonRTOS/lwip/core/netif.o
                0x00018168                netif_add_noaddr
 *fill*         0x0001817e        0x2 
 .text.netif_set_default
                0x00018180        0xc .pio/build/lptm4c1294ncpdt/src/NeonRTOS/lwip/core/netif.o
                0x00018180                netif_set_default
 .text.netif_set_up
                0x0001818c       0x2a .pio/build/lptm4c1294ncpdt/src/NeonRTOS/lwip/core/netif.o
                0x0001818c                netif_set_up
 .text.netif_set_down
                0x000181b6       0x28 .pio/build/lptm4c1294ncpdt/src/NeonRTOS/lwip/core/netif.o
                0x000181b6                netif_set_down
 *fill*         0x000181de        0x2 
 .text.netif_remove
                0x000181e0       0x6c .pio/build/lptm4c1294ncpdt/src/NeonRTOS/lwip/core/netif.o
                0x000181e0                netif_remove
 .text.netif_set_status_callback
                0x0001824c        0x6 .pio/build/lptm4c1294ncpdt/src/NeonRTOS/lwip/core/netif.o
                0x0001824c                netif_set_status_callback
 .text.netif_set_link_up
                0x00018252       0x26 .pio/build/lptm4c1294ncpdt/src/NeonRTOS/lwip/core/netif.o
                0x00018252                netif_set_link_up
 .text.netif_set_link_down
                0x00018278       0x1c .pio/build/lptm4c1294ncpdt/src/NeonRTOS/lwip/core/netif.o
                0x00018278                netif_set_link_down
 .text.netif_set_link_callback
                0x00018294        0x6 .pio/build/lptm4c1294ncpdt/src/NeonRTOS/lwip/core/netif.o
                0x00018294                netif_set_link_callback
 *fill*         0x0001829a        0x2 
 .text.netif_get_by_index
                0x0001829c       0x1c .pio/build/lptm4c1294ncpdt/src/NeonRTOS/lwip/core/netif.o
                0x0001829c                netif_get_by_index
 .text.netif_index_to_name
                0x000182b8       0x26 .pio/build/lptm4c1294ncpdt/src/NeonRTOS/lwip/core/netif.o
                0x000182b8                netif_index_to_name
 *fill*         0x000182de        0x2 
 .text.netif_find
                0x000182e0       0x48 .pio/build/lptm4c1294ncpdt/src/NeonRTOS/lwip/core/netif.o
                0x000182e0                netif_find
 .text.netif_name_to_index
                0x00018328       0x12 .pio/build/lptm4c1294ncpdt/src/NeonRTOS/lwip/core/netif.o
                0x00018328                netif_name_to_index
 .text          0x0001833a        0x0 .pio/build/lptm4c1294ncpdt/src/NeonRTOS/lwip/core/pbuf.o
 .text.pbuf_skip_const
                0x0001833a       0x16 .pio/build/lptm4c1294ncpdt/src/NeonRTOS/lwip/core/pbuf.o
 .text.pbuf_free_ooseq_callback
                0x00018350       0x24 .pio/build/lptm4c1294ncpdt/src/NeonRTOS/lwip/core/pbuf.o
 .text.pbuf_add_header_impl
                0x00018374       0x44 .pio/build/lptm4c1294ncpdt/src/NeonRTOS/lwip/core/pbuf.o
 .text.pbuf_alloc_reference
                0x000183b8       0x26 .pio/build/lptm4c1294ncpdt/src/NeonRTOS/lwip/core/pbuf.o
                0x000183b8                pbuf_alloc_reference
 .text.pbuf_alloced_custom
                0x000183de       0x38 .pio/build/lptm4c1294ncpdt/src/NeonRTOS/lwip/core/pbuf.o
                0x000183de                pbuf_alloced_custom
 .text.pbuf_add_header
                0x00018416        0x6 .pio/build/lptm4c1294ncpdt/src/NeonRTOS/lwip/core/pbuf.o
                0x00018416                pbuf_add_header
 .text.pbuf_add_header_force
                0x0001841c        0x6 .pio/build/lptm4c1294ncpdt/src/NeonRTOS/lwip/core/pbuf.o
                0x0001841c                pbuf_add_header_force
 .text.pbuf_remove_header
                0x00018422       0x2c .pio/build/lptm4c1294ncpdt/src/NeonRTOS/lwip/core/pbuf.o
                0x00018422                pbuf_remove_header
 .text.pbuf_header
                0x0001844e       0x10 .pio/build/lptm4c1294ncpdt/src/NeonRTOS/lwip/core/pbuf.o
                0x0001844e                pbuf_header
 .text.pbuf_header_force
                0x0001845e       0x10 .pio/build/lptm4c1294ncpdt/src/NeonRTOS/lwip/core/pbuf.o
                0x0001845e                pbuf_header_force
 .text.pbuf_free
                0x0001846e       0x52 .pio/build/lptm4c1294ncpdt/src/NeonRTOS/lwip/core/pbuf.o
                0x0001846e                pbuf_free
 .text.pbuf_alloc
                0x000184c0       0xfc .pio/build/lptm4c1294ncpdt/src/NeonRTOS/lwip/core/pbuf.o
                0x000184c0                pbuf_alloc
 .text.pbuf_realloc
                0x000185bc       0x52 .pio/build/lptm4c1294ncpdt/src/NeonRTOS/lwip/core/pbuf.o
                0x000185bc                pbuf_realloc
 .text.pbuf_free_header
                0x0001860e       0x30 .pio/build/lptm4c1294ncpdt/src/NeonRTOS/lwip/core/pbuf.o
                0x0001860e                pbuf_free_header
 .text.pbuf_clen
                0x0001863e       0x10 .pio/build/lptm4c1294ncpdt/src/NeonRTOS/lwip/core/pbuf.o
                0x0001863e                pbuf_clen
 .text.pbuf_ref
                0x0001864e        0xa .pio/build/lptm4c1294ncpdt/src/NeonRTOS/lwip/core/pbuf.o
                0x0001864e                pbuf_ref
 .text.pbuf_cat
                0x00018658       0x22 .pio/build/lptm4c1294ncpdt/src/NeonRTOS/lwip/core/pbuf.o
                0x00018658                pbuf_cat
 .text.pbuf_chain
                0x0001867a       0x12 .pio/build/lptm4c1294ncpdt/src/NeonRTOS/lwip/core/pbuf.o
                0x0001867a                pbuf_chain
 .text.pbuf_dechain
                0x0001868c       0x26 .pio/build/lptm4c1294ncpdt/src/NeonRTOS/lwip/core/pbuf.o
                0x0001868c                pbuf_dechain
 .text.pbuf_copy_partial_pbuf
                0x000186b2       0xae .pio/build/lptm4c1294ncpdt/src/NeonRTOS/lwip/core/pbuf.o
                0x000186b2                pbuf_copy_partial_pbuf
 .text.pbuf_copy
                0x00018760       0x10 .pio/build/lptm4c1294ncpdt/src/NeonRTOS/lwip/core/pbuf.o
                0x00018760                pbuf_copy
 .text.pbuf_copy_partial
                0x00018770       0x62 .pio/build/lptm4c1294ncpdt/src/NeonRTOS/lwip/core/pbuf.o
                0x00018770                pbuf_copy_partial
 .text.pbuf_get_contiguous
                0x000187d2       0x48 .pio/build/lptm4c1294ncpdt/src/NeonRTOS/lwip/core/pbuf.o
                0x000187d2                pbuf_get_contiguous
 .text.pbuf_skip
                0x0001881a        0x4 .pio/build/lptm4c1294ncpdt/src/NeonRTOS/lwip/core/pbuf.o
                0x0001881a                pbuf_skip
 .text.pbuf_take
                0x0001881e       0x44 .pio/build/lptm4c1294ncpdt/src/NeonRTOS/lwip/core/pbuf.o
                0x0001881e                pbuf_take
 .text.pbuf_take_at
                0x00018862       0x54 .pio/build/lptm4c1294ncpdt/src/NeonRTOS/lwip/core/pbuf.o
                0x00018862                pbuf_take_at
 .text.pbuf_clone
                0x000188b6       0x1c .pio/build/lptm4c1294ncpdt/src/NeonRTOS/lwip/core/pbuf.o
                0x000188b6                pbuf_clone
 .text.pbuf_coalesce
                0x000188d2       0x28 .pio/build/lptm4c1294ncpdt/src/NeonRTOS/lwip/core/pbuf.o
                0x000188d2                pbuf_coalesce
 .text.pbuf_try_get_at
                0x000188fa       0x26 .pio/build/lptm4c1294ncpdt/src/NeonRTOS/lwip/core/pbuf.o
                0x000188fa                pbuf_try_get_at
 .text.pbuf_get_at
                0x00018920       0x10 .pio/build/lptm4c1294ncpdt/src/NeonRTOS/lwip/core/pbuf.o
                0x00018920                pbuf_get_at
 .text.pbuf_put_at
                0x00018930       0x20 .pio/build/lptm4c1294ncpdt/src/NeonRTOS/lwip/core/pbuf.o
                0x00018930                pbuf_put_at
 .text.pbuf_memcmp
                0x00018950       0x60 .pio/build/lptm4c1294ncpdt/src/NeonRTOS/lwip/core/pbuf.o
                0x00018950                pbuf_memcmp
 .text.pbuf_memfind
                0x000189b0       0x3e .pio/build/lptm4c1294ncpdt/src/NeonRTOS/lwip/core/pbuf.o
                0x000189b0                pbuf_memfind
 .text.pbuf_strstr
                0x000189ee       0x40 .pio/build/lptm4c1294ncpdt/src/NeonRTOS/lwip/core/pbuf.o
                0x000189ee                pbuf_strstr
 .text          0x00018a2e        0x0 .pio/build/lptm4c1294ncpdt/src/NeonRTOS/lwip/core/raw.o
 *fill*         0x00018a2e        0x2 
 .text.raw_input
                0x00018a30       0xa8 .pio/build/lptm4c1294ncpdt/src/NeonRTOS/lwip/core/raw.o
                0x00018a30                raw_input
 .text.raw_bind
                0x00018ad8       0x12 .pio/build/lptm4c1294ncpdt/src/NeonRTOS/lwip/core/raw.o
                0x00018ad8                raw_bind
 .text.raw_bind_netif
                0x00018aea       0x10 .pio/build/lptm4c1294ncpdt/src/NeonRTOS/lwip/core/raw.o
                0x00018aea                raw_bind_netif
 .text.raw_connect
                0x00018afa       0x1a .pio/build/lptm4c1294ncpdt/src/NeonRTOS/lwip/core/raw.o
                0x00018afa                raw_connect
 .text.raw_disconnect
                0x00018b14       0x10 .pio/build/lptm4c1294ncpdt/src/NeonRTOS/lwip/core/raw.o
                0x00018b14                raw_disconnect
 .text.raw_recv
                0x00018b24        0x6 .pio/build/lptm4c1294ncpdt/src/NeonRTOS/lwip/core/raw.o
                0x00018b24                raw_recv
 .text.raw_sendto_if_src
                0x00018b2a       0xc2 .pio/build/lptm4c1294ncpdt/src/NeonRTOS/lwip/core/raw.o
                0x00018b2a                raw_sendto_if_src
 .text.raw_sendto
                0x00018bec       0x4c .pio/build/lptm4c1294ncpdt/src/NeonRTOS/lwip/core/raw.o
                0x00018bec                raw_sendto
 .text.raw_send
                0x00018c38        0x6 .pio/build/lptm4c1294ncpdt/src/NeonRTOS/lwip/core/raw.o
                0x00018c38                raw_send
 *fill*         0x00018c3e        0x2 
 .text.raw_remove
                0x00018c40       0x30 .pio/build/lptm4c1294ncpdt/src/NeonRTOS/lwip/core/raw.o
                0x00018c40                raw_remove
 .text.raw_new  0x00018c70       0x2c .pio/build/lptm4c1294ncpdt/src/NeonRTOS/lwip/core/raw.o
                0x00018c70                raw_new
 .text.raw_new_ip_type
                0x00018c9c        0x6 .pio/build/lptm4c1294ncpdt/src/NeonRTOS/lwip/core/raw.o
                0x00018c9c                raw_new_ip_type
 *fill*         0x00018ca2        0x2 
 .text.raw_netif_ip_addr_changed
                0x00018ca4       0x2c .pio/build/lptm4c1294ncpdt/src/NeonRTOS/lwip/core/raw.o
                0x00018ca4                raw_netif_ip_addr_changed
 .text          0x00018cd0        0x0 .pio/build/lptm4c1294ncpdt/src/NeonRTOS/lwip/core/stats.o
 .text          0x00018cd0        0x0 .pio/build/lptm4c1294ncpdt/src/NeonRTOS/lwip/core/sys.o
 .text.sys_msleep
                0x00018cd0       0x22 .pio/build/lptm4c1294ncpdt/src/NeonRTOS/lwip/core/sys.o
                0x00018cd0                sys_msleep
 .text          0x00018cf2        0x0 .pio/build/lptm4c1294ncpdt/src/NeonRTOS/lwip/core/tcp.o
 *fill*         0x00018cf2        0x2 
 .text.tcp_new_port
                0x00018cf4       0x50 .pio/build/lptm4c1294ncpdt/src/NeonRTOS/lwip/core/tcp.o
 .text.tcp_close_shutdown_fin
                0x00018d44       0x42 .pio/build/lptm4c1294ncpdt/src/NeonRTOS/lwip/core/tcp.o
 *fill*         0x00018d86        0x2 
 .text.tcp_init
                0x00018d88       0x18 .pio/build/lptm4c1294ncpdt/src/NeonRTOS/lwip/core/tcp.o
                0x00018d88                tcp_init
 .text.tcp_free
                0x00018da0        0x8 .pio/build/lptm4c1294ncpdt/src/NeonRTOS/lwip/core/tcp.o
                0x00018da0                tcp_free
 .text.tcp_bind
                0x00018da8       0x7c .pio/build/lptm4c1294ncpdt/src/NeonRTOS/lwip/core/tcp.o
                0x00018da8                tcp_bind
 .text.tcp_bind_netif
                0x00018e24       0x10 .pio/build/lptm4c1294ncpdt/src/NeonRTOS/lwip/core/tcp.o
                0x00018e24                tcp_bind_netif
 .text.tcp_listen_with_backlog_and_err
                0x00018e34       0xa4 .pio/build/lptm4c1294ncpdt/src/NeonRTOS/lwip/core/tcp.o
                0x00018e34                tcp_listen_with_backlog_and_err
 .text.tcp_listen_with_backlog
                0x00018ed8        0x6 .pio/build/lptm4c1294ncpdt/src/NeonRTOS/lwip/core/tcp.o
                0x00018ed8                tcp_listen_with_backlog
 .text.tcp_update_rcv_ann_wnd
                0x00018ede       0x34 .pio/build/lptm4c1294ncpdt/src/NeonRTOS/lwip/core/tcp.o
                0x00018ede                tcp_update_rcv_ann_wnd
 .text.tcp_recved
                0x00018f12       0x40 .pio/build/lptm4c1294ncpdt/src/NeonRTOS/lwip/core/tcp.o
                0x00018f12                tcp_recved
 *fill*         0x00018f52        0x2 
 .text.tcp_txnow
                0x00018f54       0x20 .pio/build/lptm4c1294ncpdt/src/NeonRTOS/lwip/core/tcp.o
                0x00018f54                tcp_txnow
 .text.tcp_seg_free
                0x00018f74       0x1c .pio/build/lptm4c1294ncpdt/src/NeonRTOS/lwip/core/tcp.o
                0x00018f74                tcp_seg_free
 .text.tcp_segs_free
                0x00018f90       0x10 .pio/build/lptm4c1294ncpdt/src/NeonRTOS/lwip/core/tcp.o
                0x00018f90                tcp_segs_free
 .text.tcp_setprio
                0x00018fa0        0x6 .pio/build/lptm4c1294ncpdt/src/NeonRTOS/lwip/core/tcp.o
                0x00018fa0                tcp_setprio
 .text.tcp_seg_copy
                0x00018fa6       0x2c .pio/build/lptm4c1294ncpdt/src/NeonRTOS/lwip/core/tcp.o
                0x00018fa6                tcp_seg_copy
 .text.tcp_arg  0x00018fd2        0x6 .pio/build/lptm4c1294ncpdt/src/NeonRTOS/lwip/core/tcp.o
                0x00018fd2                tcp_arg
 .text.tcp_recv
                0x00018fd8        0x8 .pio/build/lptm4c1294ncpdt/src/NeonRTOS/lwip/core/tcp.o
                0x00018fd8                tcp_recv
 .text.tcp_sent
                0x00018fe0        0x8 .pio/build/lptm4c1294ncpdt/src/NeonRTOS/lwip/core/tcp.o
                0x00018fe0                tcp_sent
 .text.tcp_err  0x00018fe8        0x8 .pio/build/lptm4c1294ncpdt/src/NeonRTOS/lwip/core/tcp.o
                0x00018fe8                tcp_err
 .text.tcp_accept
                0x00018ff0        0xc .pio/build/lptm4c1294ncpdt/src/NeonRTOS/lwip/core/tcp.o
                0x00018ff0                tcp_accept
 .text.tcp_poll
                0x00018ffc        0xa .pio/build/lptm4c1294ncpdt/src/NeonRTOS/lwip/core/tcp.o
                0x00018ffc                tcp_poll
 *fill*         0x00019006        0x2 
 .text.tcp_next_iss
                0x00019008       0x18 .pio/build/lptm4c1294ncpdt/src/NeonRTOS/lwip/core/tcp.o
                0x00019008                tcp_next_iss
 .text.tcp_eff_send_mss_netif
                0x00019020       0x18 .pio/build/lptm4c1294ncpdt/src/NeonRTOS/lwip/core/tcp.o
                0x00019020                tcp_eff_send_mss_netif
 .text.tcp_connect
                0x00019038       0xf4 .pio/build/lptm4c1294ncpdt/src/NeonRTOS/lwip/core/tcp.o
                0x00019038                tcp_connect
 .text.tcp_debug_state_str
                0x0001912c        0xc .pio/build/lptm4c1294ncpdt/src/NeonRTOS/lwip/core/tcp.o
                0x0001912c                tcp_debug_state_str
 .text.tcp_tcp_get_tcp_addrinfo
                0x00019138       0x26 .pio/build/lptm4c1294ncpdt/src/NeonRTOS/lwip/core/tcp.o
                0x00019138                tcp_tcp_get_tcp_addrinfo
 .text.tcp_free_ooseq
                0x0001915e       0x24 .pio/build/lptm4c1294ncpdt/src/NeonRTOS/lwip/core/tcp.o
                0x0001915e                tcp_free_ooseq
 .text.tcp_pcb_purge
                0x00019182       0x54 .pio/build/lptm4c1294ncpdt/src/NeonRTOS/lwip/core/tcp.o
                0x00019182                tcp_pcb_purge
 .text.tcp_pcb_remove
                0x000191d6       0x50 .pio/build/lptm4c1294ncpdt/src/NeonRTOS/lwip/core/tcp.o
                0x000191d6                tcp_pcb_remove
 *fill*         0x00019226        0x2 
 .text.tcp_abandon
                0x00019228       0xd0 .pio/build/lptm4c1294ncpdt/src/NeonRTOS/lwip/core/tcp.o
                0x00019228                tcp_abandon
 .text.tcp_abort
                0x000192f8        0x6 .pio/build/lptm4c1294ncpdt/src/NeonRTOS/lwip/core/tcp.o
                0x000192f8                tcp_abort
 .text.tcp_accept_null
                0x000192fe        0xe .pio/build/lptm4c1294ncpdt/src/NeonRTOS/lwip/core/tcp.o
 .text.tcp_netif_ip_addr_changed_pcblist
                0x0001930c       0x1c .pio/build/lptm4c1294ncpdt/src/NeonRTOS/lwip/core/tcp.o
 .text.tcp_netif_ip_addr_changed
                0x00019328       0x48 .pio/build/lptm4c1294ncpdt/src/NeonRTOS/lwip/core/tcp.o
                0x00019328                tcp_netif_ip_addr_changed
 .text.tcp_kill_state
                0x00019370       0x3c .pio/build/lptm4c1294ncpdt/src/NeonRTOS/lwip/core/tcp.o
 .text.tcp_alloc
                0x000193ac      0x14c .pio/build/lptm4c1294ncpdt/src/NeonRTOS/lwip/core/tcp.o
                0x000193ac                tcp_alloc
 .text.tcp_new  0x000194f8        0x6 .pio/build/lptm4c1294ncpdt/src/NeonRTOS/lwip/core/tcp.o
                0x000194f8                tcp_new
 .text.tcp_new_ip_type
                0x000194fe        0x6 .pio/build/lptm4c1294ncpdt/src/NeonRTOS/lwip/core/tcp.o
                0x000194fe                tcp_new_ip_type
 .text.tcp_close_shutdown
                0x00019504      0x128 .pio/build/lptm4c1294ncpdt/src/NeonRTOS/lwip/core/tcp.o
 .text.tcp_close
                0x0001962c       0x1c .pio/build/lptm4c1294ncpdt/src/NeonRTOS/lwip/core/tcp.o
                0x0001962c                tcp_close
 .text.tcp_recv_null
                0x00019648       0x2c .pio/build/lptm4c1294ncpdt/src/NeonRTOS/lwip/core/tcp.o
                0x00019648                tcp_recv_null
 .text.tcp_process_refused_data
                0x00019674       0x74 .pio/build/lptm4c1294ncpdt/src/NeonRTOS/lwip/core/tcp.o
                0x00019674                tcp_process_refused_data
 .text.tcp_fasttmr
                0x000196e8       0x78 .pio/build/lptm4c1294ncpdt/src/NeonRTOS/lwip/core/tcp.o
                0x000196e8                tcp_fasttmr
 .text.tcp_shutdown
                0x00019760       0x5a .pio/build/lptm4c1294ncpdt/src/NeonRTOS/lwip/core/tcp.o
                0x00019760                tcp_shutdown
 *fill*         0x000197ba        0x2 
 .text.tcp_slowtmr
                0x000197bc      0x334 .pio/build/lptm4c1294ncpdt/src/NeonRTOS/lwip/core/tcp.o
                0x000197bc                tcp_slowtmr
 .text.tcp_tmr  0x00019af0       0x24 .pio/build/lptm4c1294ncpdt/src/NeonRTOS/lwip/core/tcp.o
                0x00019af0                tcp_tmr
 .text          0x00019b14        0x0 .pio/build/lptm4c1294ncpdt/src/NeonRTOS/lwip/core/tcp_in.o
 .text.tcp_get_next_optbyte
                0x00019b14       0x38 .pio/build/lptm4c1294ncpdt/src/NeonRTOS/lwip/core/tcp_in.o
 .text.tcp_oos_insert_segment
                0x00019b4c       0x74 .pio/build/lptm4c1294ncpdt/src/NeonRTOS/lwip/core/tcp_in.o
 .text.tcp_parseopt.part.0
                0x00019bc0       0xb0 .pio/build/lptm4c1294ncpdt/src/NeonRTOS/lwip/core/tcp_in.o
 .text.tcp_input_delayed_close
                0x00019c70       0x40 .pio/build/lptm4c1294ncpdt/src/NeonRTOS/lwip/core/tcp_in.o
 .text.tcp_free_acked_segments.isra.2
                0x00019cb0       0x68 .pio/build/lptm4c1294ncpdt/src/NeonRTOS/lwip/core/tcp_in.o
 .text.tcp_receive
                0x00019d18      0x878 .pio/build/lptm4c1294ncpdt/src/NeonRTOS/lwip/core/tcp_in.o
 .text.tcp_input
                0x0001a590      0x9c4 .pio/build/lptm4c1294ncpdt/src/NeonRTOS/lwip/core/tcp_in.o
                0x0001a590                tcp_input
 .text.tcp_trigger_input_pcb_close
                0x0001af54       0x10 .pio/build/lptm4c1294ncpdt/src/NeonRTOS/lwip/core/tcp_in.o
                0x0001af54                tcp_trigger_input_pcb_close
 .text          0x0001af64        0x0 .pio/build/lptm4c1294ncpdt/src/NeonRTOS/lwip/core/tcp_out.o
 .text.tcp_pbuf_prealloc
                0x0001af64       0x56 .pio/build/lptm4c1294ncpdt/src/NeonRTOS/lwip/core/tcp_out.o
 .text.tcp_create_segment
                0x0001afba       0xae .pio/build/lptm4c1294ncpdt/src/NeonRTOS/lwip/core/tcp_out.o
 .text.tcp_output_alloc_header_common
                0x0001b068       0x6e .pio/build/lptm4c1294ncpdt/src/NeonRTOS/lwip/core/tcp_out.o
 .text.tcp_output_alloc_header
                0x0001b0d6       0x28 .pio/build/lptm4c1294ncpdt/src/NeonRTOS/lwip/core/tcp_out.o
 *fill*         0x0001b0fe        0x2 
 .text.tcp_build_sack_option
                0x0001b100       0x50 .pio/build/lptm4c1294ncpdt/src/NeonRTOS/lwip/core/tcp_out.o
 .text.tcp_output_control_segment
                0x0001b150       0x5c .pio/build/lptm4c1294ncpdt/src/NeonRTOS/lwip/core/tcp_out.o
 .text.tcp_write
                0x0001b1ac      0x394 .pio/build/lptm4c1294ncpdt/src/NeonRTOS/lwip/core/tcp_out.o
                0x0001b1ac                tcp_write
 .text.tcp_split_unsent_seg
                0x0001b540      0x14a .pio/build/lptm4c1294ncpdt/src/NeonRTOS/lwip/core/tcp_out.o
                0x0001b540                tcp_split_unsent_seg
 .text.tcp_enqueue_flags
                0x0001b68a       0xa6 .pio/build/lptm4c1294ncpdt/src/NeonRTOS/lwip/core/tcp_out.o
                0x0001b68a                tcp_enqueue_flags
 .text.tcp_send_fin
                0x0001b730       0x46 .pio/build/lptm4c1294ncpdt/src/NeonRTOS/lwip/core/tcp_out.o
                0x0001b730                tcp_send_fin
 .text.tcp_rexmit_rto_prepare
                0x0001b776       0x68 .pio/build/lptm4c1294ncpdt/src/NeonRTOS/lwip/core/tcp_out.o
                0x0001b776                tcp_rexmit_rto_prepare
 .text.tcp_rexmit
                0x0001b7de       0x6a .pio/build/lptm4c1294ncpdt/src/NeonRTOS/lwip/core/tcp_out.o
                0x0001b7de                tcp_rexmit
 .text.tcp_rexmit_fast
                0x0001b848       0x54 .pio/build/lptm4c1294ncpdt/src/NeonRTOS/lwip/core/tcp_out.o
                0x0001b848                tcp_rexmit_fast
 .text.tcp_rst  0x0001b89c       0x54 .pio/build/lptm4c1294ncpdt/src/NeonRTOS/lwip/core/tcp_out.o
                0x0001b89c                tcp_rst
 .text.tcp_rst_netif
                0x0001b8f0       0x66 .pio/build/lptm4c1294ncpdt/src/NeonRTOS/lwip/core/tcp_out.o
                0x0001b8f0                tcp_rst_netif
 .text.tcp_send_empty_ack
                0x0001b956       0x8a .pio/build/lptm4c1294ncpdt/src/NeonRTOS/lwip/core/tcp_out.o
                0x0001b956                tcp_send_empty_ack
 .text.tcp_output
                0x0001b9e0      0x2d4 .pio/build/lptm4c1294ncpdt/src/NeonRTOS/lwip/core/tcp_out.o
                0x0001b9e0                tcp_output
 .text.tcp_rexmit_rto_commit
                0x0001bcb4       0x12 .pio/build/lptm4c1294ncpdt/src/NeonRTOS/lwip/core/tcp_out.o
                0x0001bcb4                tcp_rexmit_rto_commit
 .text.tcp_rexmit_rto
                0x0001bcc6       0x16 .pio/build/lptm4c1294ncpdt/src/NeonRTOS/lwip/core/tcp_out.o
                0x0001bcc6                tcp_rexmit_rto
 .text.tcp_keepalive
                0x0001bcdc       0x30 .pio/build/lptm4c1294ncpdt/src/NeonRTOS/lwip/core/tcp_out.o
                0x0001bcdc                tcp_keepalive
 .text.tcp_zero_window_probe
                0x0001bd0c       0xba .pio/build/lptm4c1294ncpdt/src/NeonRTOS/lwip/core/tcp_out.o
                0x0001bd0c                tcp_zero_window_probe
 .text          0x0001bdc6        0x0 .pio/build/lptm4c1294ncpdt/src/NeonRTOS/lwip/core/timeouts.o
 *fill*         0x0001bdc6        0x2 
 .text.sys_timeout_abs
                0x0001bdc8       0x48 .pio/build/lptm4c1294ncpdt/src/NeonRTOS/lwip/core/timeouts.o
 .text.lwip_cyclic_timer
                0x0001be10       0x34 .pio/build/lptm4c1294ncpdt/src/NeonRTOS/lwip/core/timeouts.o
 .text.sys_timeout
                0x0001be44       0x1a .pio/build/lptm4c1294ncpdt/src/NeonRTOS/lwip/core/timeouts.o
                0x0001be44                sys_timeout
 *fill*         0x0001be5e        0x2 
 .text.tcp_timer_needed
                0x0001be60       0x34 .pio/build/lptm4c1294ncpdt/src/NeonRTOS/lwip/core/timeouts.o
                0x0001be60                tcp_timer_needed
 .text.tcpip_tcp_timer
                0x0001be94       0x38 .pio/build/lptm4c1294ncpdt/src/NeonRTOS/lwip/core/timeouts.o
 .text.sys_timeouts_init
                0x0001becc       0x3c .pio/build/lptm4c1294ncpdt/src/NeonRTOS/lwip/core/timeouts.o
                0x0001becc                sys_timeouts_init
 .text.sys_untimeout
                0x0001bf08       0x40 .pio/build/lptm4c1294ncpdt/src/NeonRTOS/lwip/core/timeouts.o
                0x0001bf08                sys_untimeout
 .text.sys_check_timeouts
                0x0001bf48       0x3c .pio/build/lptm4c1294ncpdt/src/NeonRTOS/lwip/core/timeouts.o
                0x0001bf48                sys_check_timeouts
 .text.sys_restart_timeouts
                0x0001bf84       0x24 .pio/build/lptm4c1294ncpdt/src/NeonRTOS/lwip/core/timeouts.o
                0x0001bf84                sys_restart_timeouts
 .text.sys_timeouts_sleeptime
                0x0001bfa8       0x24 .pio/build/lptm4c1294ncpdt/src/NeonRTOS/lwip/core/timeouts.o
                0x0001bfa8                sys_timeouts_sleeptime
 .text          0x0001bfcc        0x0 .pio/build/lptm4c1294ncpdt/src/NeonRTOS/lwip/core/udp.o
 .text.udp_init
                0x0001bfcc       0x18 .pio/build/lptm4c1294ncpdt/src/NeonRTOS/lwip/core/udp.o
                0x0001bfcc                udp_init
 .text.udp_input
                0x0001bfe4      0x160 .pio/build/lptm4c1294ncpdt/src/NeonRTOS/lwip/core/udp.o
                0x0001bfe4                udp_input
 .text.udp_bind
                0x0001c144       0xb8 .pio/build/lptm4c1294ncpdt/src/NeonRTOS/lwip/core/udp.o
                0x0001c144                udp_bind
 .text.udp_sendto_if_src
                0x0001c1fc       0xcc .pio/build/lptm4c1294ncpdt/src/NeonRTOS/lwip/core/udp.o
                0x0001c1fc                udp_sendto_if_src
 .text.udp_sendto_if
                0x0001c2c8       0x3a .pio/build/lptm4c1294ncpdt/src/NeonRTOS/lwip/core/udp.o
                0x0001c2c8                udp_sendto_if
 .text.udp_sendto
                0x0001c302       0x3e .pio/build/lptm4c1294ncpdt/src/NeonRTOS/lwip/core/udp.o
                0x0001c302                udp_sendto
 .text.udp_send
                0x0001c340       0x12 .pio/build/lptm4c1294ncpdt/src/NeonRTOS/lwip/core/udp.o
                0x0001c340                udp_send
 .text.udp_bind_netif
                0x0001c352       0x10 .pio/build/lptm4c1294ncpdt/src/NeonRTOS/lwip/core/udp.o
                0x0001c352                udp_bind_netif
 *fill*         0x0001c362        0x2 
 .text.udp_connect
                0x0001c364       0x50 .pio/build/lptm4c1294ncpdt/src/NeonRTOS/lwip/core/udp.o
                0x0001c364                udp_connect
 .text.udp_disconnect
                0x0001c3b4       0x14 .pio/build/lptm4c1294ncpdt/src/NeonRTOS/lwip/core/udp.o
                0x0001c3b4                udp_disconnect
 .text.udp_recv
                0x0001c3c8        0x8 .pio/build/lptm4c1294ncpdt/src/NeonRTOS/lwip/core/udp.o
                0x0001c3c8                udp_recv
 .text.udp_remove
                0x0001c3d0       0x34 .pio/build/lptm4c1294ncpdt/src/NeonRTOS/lwip/core/udp.o
                0x0001c3d0                udp_remove
 .text.udp_new  0x0001c404       0x1c .pio/build/lptm4c1294ncpdt/src/NeonRTOS/lwip/core/udp.o
                0x0001c404                udp_new
 .text.udp_new_ip_type
                0x0001c420        0x4 .pio/build/lptm4c1294ncpdt/src/NeonRTOS/lwip/core/udp.o
                0x0001c420                udp_new_ip_type
 .text.udp_netif_ip_addr_changed
                0x0001c424       0x2c .pio/build/lptm4c1294ncpdt/src/NeonRTOS/lwip/core/udp.o
                0x0001c424                udp_netif_ip_addr_changed
 .text          0x0001c450        0x0 .pio/build/lptm4c1294ncpdt/src/NeonRTOS/lwip/netif/bridgeif.o
 .text          0x0001c450        0x0 .pio/build/lptm4c1294ncpdt/src/NeonRTOS/lwip/netif/bridgeif_fdb.o
 .text.bridgeif_age_tmr
                0x0001c450       0x38 .pio/build/lptm4c1294ncpdt/src/NeonRTOS/lwip/netif/bridgeif_fdb.o
 .text.bridgeif_fdb_update_src
                0x0001c488       0x7a .pio/build/lptm4c1294ncpdt/src/NeonRTOS/lwip/netif/bridgeif_fdb.o
                0x0001c488                bridgeif_fdb_update_src
 .text.bridgeif_fdb_get_dst_ports
                0x0001c502       0x42 .pio/build/lptm4c1294ncpdt/src/NeonRTOS/lwip/netif/bridgeif_fdb.o
                0x0001c502                bridgeif_fdb_get_dst_ports
 .text.bridgeif_fdb_init
                0x0001c544       0x30 .pio/build/lptm4c1294ncpdt/src/NeonRTOS/lwip/netif/bridgeif_fdb.o
                0x0001c544                bridgeif_fdb_init
 .text          0x0001c574        0x0 .pio/build/lptm4c1294ncpdt/src/NeonRTOS/lwip/netif/ethernet.o
 .text.ethernet_input
                0x0001c574       0x9c .pio/build/lptm4c1294ncpdt/src/NeonRTOS/lwip/netif/ethernet.o
                0x0001c574                ethernet_input
 .text.ethernet_output
                0x0001c610       0x4e .pio/build/lptm4c1294ncpdt/src/NeonRTOS/lwip/netif/ethernet.o
                0x0001c610                ethernet_output
 .text          0x0001c65e        0x0 .pio/build/lptm4c1294ncpdt/src/NeonRTOS/lwip/netif/lowpan6.o
 .text          0x0001c65e        0x0 .pio/build/lptm4c1294ncpdt/src/NeonRTOS/lwip/netif/lowpan6_ble.o
 .text          0x0001c65e        0x0 .pio/build/lptm4c1294ncpdt/src/NeonRTOS/lwip/netif/lowpan6_common.o
 .text          0x0001c65e        0x0 .pio/build/lptm4c1294ncpdt/src/NeonRTOS/lwip/netif/ppp/auth.o
 .text          0x0001c65e        0x0 .pio/build/lptm4c1294ncpdt/src/NeonRTOS/lwip/netif/ppp/ccp.o
 .text          0x0001c65e        0x0 .pio/build/lptm4c1294ncpdt/src/NeonRTOS/lwip/netif/ppp/chap-md5.o
 .text          0x0001c65e        0x0 .pio/build/lptm4c1294ncpdt/src/NeonRTOS/lwip/netif/ppp/chap-new.o
 .text          0x0001c65e        0x0 .pio/build/lptm4c1294ncpdt/src/NeonRTOS/lwip/netif/ppp/chap_ms.o
 .text          0x0001c65e        0x0 .pio/build/lptm4c1294ncpdt/src/NeonRTOS/lwip/netif/ppp/demand.o
 .text          0x0001c65e        0x0 .pio/build/lptm4c1294ncpdt/src/NeonRTOS/lwip/netif/ppp/eap.o
 .text          0x0001c65e        0x0 .pio/build/lptm4c1294ncpdt/src/NeonRTOS/lwip/netif/ppp/ecp.o
 .text          0x0001c65e        0x0 .pio/build/lptm4c1294ncpdt/src/NeonRTOS/lwip/netif/ppp/eui64.o
 .text          0x0001c65e        0x0 .pio/build/lptm4c1294ncpdt/src/NeonRTOS/lwip/netif/ppp/fsm.o
 .text          0x0001c65e        0x0 .pio/build/lptm4c1294ncpdt/src/NeonRTOS/lwip/netif/ppp/ipcp.o
 .text          0x0001c65e        0x0 .pio/build/lptm4c1294ncpdt/src/NeonRTOS/lwip/netif/ppp/ipv6cp.o
 .text          0x0001c65e        0x0 .pio/build/lptm4c1294ncpdt/src/NeonRTOS/lwip/netif/ppp/lcp.o
 .text          0x0001c65e        0x0 .pio/build/lptm4c1294ncpdt/src/NeonRTOS/lwip/netif/ppp/magic.o
 .text          0x0001c65e        0x0 .pio/build/lptm4c1294ncpdt/src/NeonRTOS/lwip/netif/ppp/mppe.o
 .text          0x0001c65e        0x0 .pio/build/lptm4c1294ncpdt/src/NeonRTOS/lwip/netif/ppp/multilink.o
 .text          0x0001c65e        0x0 .pio/build/lptm4c1294ncpdt/src/NeonRTOS/lwip/netif/ppp/polarssl/arc4.o
 .text          0x0001c65e        0x0 .pio/build/lptm4c1294ncpdt/src/NeonRTOS/lwip/netif/ppp/polarssl/des.o
 .text          0x0001c65e        0x0 .pio/build/lptm4c1294ncpdt/src/NeonRTOS/lwip/netif/ppp/polarssl/md4.o
 .text          0x0001c65e        0x0 .pio/build/lptm4c1294ncpdt/src/NeonRTOS/lwip/netif/ppp/polarssl/md5.o
 .text          0x0001c65e        0x0 .pio/build/lptm4c1294ncpdt/src/NeonRTOS/lwip/netif/ppp/polarssl/sha1.o
 .text          0x0001c65e        0x0 .pio/build/lptm4c1294ncpdt/src/NeonRTOS/lwip/netif/ppp/ppp.o
 .text          0x0001c65e        0x0 .pio/build/lptm4c1294ncpdt/src/NeonRTOS/lwip/netif/ppp/pppapi.o
 .text          0x0001c65e        0x0 .pio/build/lptm4c1294ncpdt/src/NeonRTOS/lwip/netif/ppp/pppcrypt.o
 .text          0x0001c65e        0x0 .pio/build/lptm4c1294ncpdt/src/NeonRTOS/lwip/netif/ppp/pppoe.o
 .text          0x0001c65e        0x0 .pio/build/lptm4c1294ncpdt/src/NeonRTOS/lwip/netif/ppp/pppol2tp.o
 .text          0x0001c65e        0x0 .pio/build/lptm4c1294ncpdt/src/NeonRTOS/lwip/netif/ppp/pppos.o
 .text          0x0001c65e        0x0 .pio/build/lptm4c1294ncpdt/src/NeonRTOS/lwip/netif/ppp/upap.o
 .text          0x0001c65e        0x0 .pio/build/lptm4c1294ncpdt/src/NeonRTOS/lwip/netif/ppp/utils.o
 .text          0x0001c65e        0x0 .pio/build/lptm4c1294ncpdt/src/NeonRTOS/lwip/netif/ppp/vj.o
 .text          0x0001c65e        0x0 .pio/build/lptm4c1294ncpdt/src/NeonRTOS/lwip/netif/zepif.o
 .text          0x0001c65e        0x0 .pio/build/lptm4c1294ncpdt/src/main.o
 *fill*         0x0001c65e        0x2 
 .text.vApplicationStackOverflowHook
                0x0001c660       0x10 .pio/build/lptm4c1294ncpdt/src/main.o
                0x0001c660                vApplicationStackOverflowHook
 .text.vApplicationIdleHook
                0x0001c670        0x4 .pio/build/lptm4c1294ncpdt/src/main.o
                0x0001c670                vApplicationIdleHook
 .text.vApplicationTickHook
                0x0001c674        0x2 .pio/build/lptm4c1294ncpdt/src/main.o
                0x0001c674                vApplicationTickHook
 *fill*         0x0001c676        0x2 
 .text.startup.main
                0x0001c678       0x1c .pio/build/lptm4c1294ncpdt/src/main.o
                0x0001c678                main
 .text          0x0001c694        0x0 .pio/build/lptm4c1294ncpdt/src/stub_sbrk.o
 .text._sbrk    0x0001c694       0x10 .pio/build/lptm4c1294ncpdt/src/stub_sbrk.o
                0x0001c694                _sbrk
 .text          0x0001c6a4        0x0 .pio/build/lptm4c1294ncpdt/src/wrap_malloc.o
 .text.hdr_alloc
                0x0001c6a4       0x12 .pio/build/lptm4c1294ncpdt/src/wrap_malloc.o
 .text.hdr_free
                0x0001c6b6        0xa .pio/build/lptm4c1294ncpdt/src/wrap_malloc.o
 .text.__wrap_malloc
                0x0001c6c0        0x4 .pio/build/lptm4c1294ncpdt/src/wrap_malloc.o
                0x0001c6c0                __wrap_malloc
 .text.__wrap_free
                0x0001c6c4        0x4 .pio/build/lptm4c1294ncpdt/src/wrap_malloc.o
                0x0001c6c4                __wrap_free
 .text.__wrap_calloc
                0x0001c6c8       0x36 .pio/build/lptm4c1294ncpdt/src/wrap_malloc.o
                0x0001c6c8                __wrap_calloc
 .text.__wrap_realloc
                0x0001c6fe       0x3c .pio/build/lptm4c1294ncpdt/src/wrap_malloc.o
                0x0001c6fe                __wrap_realloc
 .text.__wrap__malloc_r
                0x0001c73a        0x6 .pio/build/lptm4c1294ncpdt/src/wrap_malloc.o
                0x0001c73a                __wrap__malloc_r
 .text.__wrap__free_r
                0x0001c740        0x6 .pio/build/lptm4c1294ncpdt/src/wrap_malloc.o
                0x0001c740                __wrap__free_r
 .text.__wrap__calloc_r
                0x0001c746        0x8 .pio/build/lptm4c1294ncpdt/src/wrap_malloc.o
                0x0001c746                __wrap__calloc_r
 .text.__wrap__realloc_r
                0x0001c74e        0x8 .pio/build/lptm4c1294ncpdt/src/wrap_malloc.o
                0x0001c74e                __wrap__realloc_r
 .text          0x0001c756        0x0 c:/users/user/.platformio/packages/toolchain-gccarmnoneeabi@1.40804.0/bin/../lib/gcc/arm-none-eabi/4.8.4/../../../../arm-none-eabi/lib/armv7e-m\libc.a(lib_a-atoi.o)
 *fill*         0x0001c756        0x2 
 .text.atoi     0x0001c758        0x8 c:/users/user/.platformio/packages/toolchain-gccarmnoneeabi@1.40804.0/bin/../lib/gcc/arm-none-eabi/4.8.4/../../../../arm-none-eabi/lib/armv7e-m\libc.a(lib_a-atoi.o)
                0x0001c758                atoi
 .text._atoi_r  0x0001c760        0x8 c:/users/user/.platformio/packages/toolchain-gccarmnoneeabi@1.40804.0/bin/../lib/gcc/arm-none-eabi/4.8.4/../../../../arm-none-eabi/lib/armv7e-m\libc.a(lib_a-atoi.o)
                0x0001c760                _atoi_r
 .text          0x0001c768        0x0 c:/users/user/.platformio/packages/toolchain-gccarmnoneeabi@1.40804.0/bin/../lib/gcc/arm-none-eabi/4.8.4/../../../../arm-none-eabi/lib/armv7e-m\libc.a(lib_a-ctype_.o)
 .text          0x0001c768        0x0 c:/users/user/.platformio/packages/toolchain-gccarmnoneeabi@1.40804.0/bin/../lib/gcc/arm-none-eabi/4.8.4/../../../../arm-none-eabi/lib/armv7e-m\libc.a(lib_a-isspace.o)
 .text.isspace  0x0001c768       0x14 c:/users/user/.platformio/packages/toolchain-gccarmnoneeabi@1.40804.0/bin/../lib/gcc/arm-none-eabi/4.8.4/../../../../arm-none-eabi/lib/armv7e-m\libc.a(lib_a-isspace.o)
                0x0001c768                isspace
 .text          0x0001c77c        0x0 c:/users/user/.platformio/packages/toolchain-gccarmnoneeabi@1.40804.0/bin/../lib/gcc/arm-none-eabi/4.8.4/../../../../arm-none-eabi/lib/armv7e-m\libc.a(lib_a-memcmp.o)
 .text.memcmp   0x0001c77c       0x68 c:/users/user/.platformio/packages/toolchain-gccarmnoneeabi@1.40804.0/bin/../lib/gcc/arm-none-eabi/4.8.4/../../../../arm-none-eabi/lib/armv7e-m\libc.a(lib_a-memcmp.o)
                0x0001c77c                memcmp
 .text          0x0001c7e4      0x134 c:/users/user/.platformio/packages/toolchain-gccarmnoneeabi@1.40804.0/bin/../lib/gcc/arm-none-eabi/4.8.4/../../../../arm-none-eabi/lib/armv7e-m\libc.a(lib_a-memcpy.o)
                0x0001c7e4                memcpy
 .text          0x0001c918        0x0 c:/users/user/.platformio/packages/toolchain-gccarmnoneeabi@1.40804.0/bin/../lib/gcc/arm-none-eabi/4.8.4/../../../../arm-none-eabi/lib/armv7e-m\libc.a(lib_a-memmove.o)
 .text.memmove  0x0001c918       0xc0 c:/users/user/.platformio/packages/toolchain-gccarmnoneeabi@1.40804.0/bin/../lib/gcc/arm-none-eabi/4.8.4/../../../../arm-none-eabi/lib/armv7e-m\libc.a(lib_a-memmove.o)
                0x0001c918                memmove
 .text          0x0001c9d8        0x0 c:/users/user/.platformio/packages/toolchain-gccarmnoneeabi@1.40804.0/bin/../lib/gcc/arm-none-eabi/4.8.4/../../../../arm-none-eabi/lib/armv7e-m\libc.a(lib_a-memset.o)
 .text.memset   0x0001c9d8       0x94 c:/users/user/.platformio/packages/toolchain-gccarmnoneeabi@1.40804.0/bin/../lib/gcc/arm-none-eabi/4.8.4/../../../../arm-none-eabi/lib/armv7e-m\libc.a(lib_a-memset.o)
                0x0001c9d8                memset
 .text          0x0001ca6c        0x0 c:/users/user/.platformio/packages/toolchain-gccarmnoneeabi@1.40804.0/bin/../lib/gcc/arm-none-eabi/4.8.4/../../../../arm-none-eabi/lib/armv7e-m\libc.a(lib_a-rand.o)
 .text.srand    0x0001ca6c       0x10 c:/users/user/.platformio/packages/toolchain-gccarmnoneeabi@1.40804.0/bin/../lib/gcc/arm-none-eabi/4.8.4/../../../../arm-none-eabi/lib/armv7e-m\libc.a(lib_a-rand.o)
                0x0001ca6c                srand
 .text.rand     0x0001ca7c       0x40 c:/users/user/.platformio/packages/toolchain-gccarmnoneeabi@1.40804.0/bin/../lib/gcc/arm-none-eabi/4.8.4/../../../../arm-none-eabi/lib/armv7e-m\libc.a(lib_a-rand.o)
                0x0001ca7c                rand
 .text          0x0001cabc        0x0 c:/users/user/.platformio/packages/toolchain-gccarmnoneeabi@1.40804.0/bin/../lib/gcc/arm-none-eabi/4.8.4/../../../../arm-none-eabi/lib/armv7e-m\libc.a(lib_a-reent.o)
 .text.cleanup_glue
                0x0001cabc       0x1c c:/users/user/.platformio/packages/toolchain-gccarmnoneeabi@1.40804.0/bin/../lib/gcc/arm-none-eabi/4.8.4/../../../../arm-none-eabi/lib/armv7e-m\libc.a(lib_a-reent.o)
                0x0001cabc                cleanup_glue
 .text._reclaim_reent
                0x0001cad8       0x90 c:/users/user/.platformio/packages/toolchain-gccarmnoneeabi@1.40804.0/bin/../lib/gcc/arm-none-eabi/4.8.4/../../../../arm-none-eabi/lib/armv7e-m\libc.a(lib_a-reent.o)
                0x0001cad8                _reclaim_reent
 .text          0x0001cb68        0x0 c:/users/user/.platformio/packages/toolchain-gccarmnoneeabi@1.40804.0/bin/../lib/gcc/arm-none-eabi/4.8.4/../../../../arm-none-eabi/lib/armv7e-m\libc.a(lib_a-s_fpclassify.o)
 .text.__fpclassifyd
                0x0001cb68       0x50 c:/users/user/.platformio/packages/toolchain-gccarmnoneeabi@1.40804.0/bin/../lib/gcc/arm-none-eabi/4.8.4/../../../../arm-none-eabi/lib/armv7e-m\libc.a(lib_a-s_fpclassify.o)
                0x0001cb68                __fpclassifyd
 .text          0x0001cbb8        0x0 c:/users/user/.platformio/packages/toolchain-gccarmnoneeabi@1.40804.0/bin/../lib/gcc/arm-none-eabi/4.8.4/../../../../arm-none-eabi/lib/armv7e-m\libc.a(lib_a-snprintf.o)
 .text._snprintf_r
                0x0001cbb8       0x60 c:/users/user/.platformio/packages/toolchain-gccarmnoneeabi@1.40804.0/bin/../lib/gcc/arm-none-eabi/4.8.4/../../../../arm-none-eabi/lib/armv7e-m\libc.a(lib_a-snprintf.o)
                0x0001cbb8                _snprintf_r
 .text.snprintf
                0x0001cc18       0x68 c:/users/user/.platformio/packages/toolchain-gccarmnoneeabi@1.40804.0/bin/../lib/gcc/arm-none-eabi/4.8.4/../../../../arm-none-eabi/lib/armv7e-m\libc.a(lib_a-snprintf.o)
                0x0001cc18                snprintf
 .text          0x0001cc80        0x0 c:/users/user/.platformio/packages/toolchain-gccarmnoneeabi@1.40804.0/bin/../lib/gcc/arm-none-eabi/4.8.4/../../../../arm-none-eabi/lib/armv7e-m\libc.a(lib_a-sprintf.o)
 .text._sprintf_r
                0x0001cc80       0x44 c:/users/user/.platformio/packages/toolchain-gccarmnoneeabi@1.40804.0/bin/../lib/gcc/arm-none-eabi/4.8.4/../../../../arm-none-eabi/lib/armv7e-m\libc.a(lib_a-sprintf.o)
                0x0001cc80                _sprintf_r
 .text.sprintf  0x0001ccc4       0x4c c:/users/user/.platformio/packages/toolchain-gccarmnoneeabi@1.40804.0/bin/../lib/gcc/arm-none-eabi/4.8.4/../../../../arm-none-eabi/lib/armv7e-m\libc.a(lib_a-sprintf.o)
                0x0001ccc4                sprintf
 .text          0x0001cd10        0x0 c:/users/user/.platformio/packages/toolchain-gccarmnoneeabi@1.40804.0/bin/../lib/gcc/arm-none-eabi/4.8.4/../../../../arm-none-eabi/lib/armv7e-m\libc.a(lib_a-strcat.o)
 .text.strcat   0x0001cd10       0x4c c:/users/user/.platformio/packages/toolchain-gccarmnoneeabi@1.40804.0/bin/../lib/gcc/arm-none-eabi/4.8.4/../../../../arm-none-eabi/lib/armv7e-m\libc.a(lib_a-strcat.o)
                0x0001cd10                strcat
 .text          0x0001cd5c        0x0 c:/users/user/.platformio/packages/toolchain-gccarmnoneeabi@1.40804.0/bin/../lib/gcc/arm-none-eabi/4.8.4/../../../../arm-none-eabi/lib/armv7e-m\libc.a(lib_a-strchr.o)
 .text.strchr   0x0001cd5c       0xf4 c:/users/user/.platformio/packages/toolchain-gccarmnoneeabi@1.40804.0/bin/../lib/gcc/arm-none-eabi/4.8.4/../../../../arm-none-eabi/lib/armv7e-m\libc.a(lib_a-strchr.o)
                0x0001cd5c                strchr
 .text          0x0001ce50      0x21c c:/users/user/.platformio/packages/toolchain-gccarmnoneeabi@1.40804.0/bin/../lib/gcc/arm-none-eabi/4.8.4/../../../../arm-none-eabi/lib/armv7e-m\libc.a(lib_a-strcmp.o)
                0x0001ce50                strcmp
 .text          0x0001d06c        0x0 c:/users/user/.platformio/packages/toolchain-gccarmnoneeabi@1.40804.0/bin/../lib/gcc/arm-none-eabi/4.8.4/../../../../arm-none-eabi/lib/armv7e-m\libc.a(lib_a-strcpy.o)
 .text.strcpy   0x0001d06c       0xbc c:/users/user/.platformio/packages/toolchain-gccarmnoneeabi@1.40804.0/bin/../lib/gcc/arm-none-eabi/4.8.4/../../../../arm-none-eabi/lib/armv7e-m\libc.a(lib_a-strcpy.o)
                0x0001d06c                strcpy
 .text          0x0001d128        0x0 c:/users/user/.platformio/packages/toolchain-gccarmnoneeabi@1.40804.0/bin/../lib/gcc/arm-none-eabi/4.8.4/../../../../arm-none-eabi/lib/armv7e-m\libc.a(lib_a-strlen.o)
 .text.strlen   0x0001d128       0x60 c:/users/user/.platformio/packages/toolchain-gccarmnoneeabi@1.40804.0/bin/../lib/gcc/arm-none-eabi/4.8.4/../../../../arm-none-eabi/lib/armv7e-m\libc.a(lib_a-strlen.o)
                0x0001d128                strlen
 .text          0x0001d188        0x0 c:/users/user/.platformio/packages/toolchain-gccarmnoneeabi@1.40804.0/bin/../lib/gcc/arm-none-eabi/4.8.4/../../../../arm-none-eabi/lib/armv7e-m\libc.a(lib_a-strncmp.o)
 .text.strncmp  0x0001d188       0xb4 c:/users/user/.platformio/packages/toolchain-gccarmnoneeabi@1.40804.0/bin/../lib/gcc/arm-none-eabi/4.8.4/../../../../arm-none-eabi/lib/armv7e-m\libc.a(lib_a-strncmp.o)
                0x0001d188                strncmp
 .text          0x0001d23c        0x0 c:/users/user/.platformio/packages/toolchain-gccarmnoneeabi@1.40804.0/bin/../lib/gcc/arm-none-eabi/4.8.4/../../../../arm-none-eabi/lib/armv7e-m\libc.a(lib_a-strncpy.o)
 .text.strncpy  0x0001d23c       0x64 c:/users/user/.platformio/packages/toolchain-gccarmnoneeabi@1.40804.0/bin/../lib/gcc/arm-none-eabi/4.8.4/../../../../arm-none-eabi/lib/armv7e-m\libc.a(lib_a-strncpy.o)
                0x0001d23c                strncpy
 .text          0x0001d2a0        0x0 c:/users/user/.platformio/packages/toolchain-gccarmnoneeabi@1.40804.0/bin/../lib/gcc/arm-none-eabi/4.8.4/../../../../arm-none-eabi/lib/armv7e-m\libc.a(lib_a-strstr.o)
 .text.critical_factorization
                0x0001d2a0       0xbc c:/users/user/.platformio/packages/toolchain-gccarmnoneeabi@1.40804.0/bin/../lib/gcc/arm-none-eabi/4.8.4/../../../../arm-none-eabi/lib/armv7e-m\libc.a(lib_a-strstr.o)
 .text.two_way_long_needle
                0x0001d35c      0x1ec c:/users/user/.platformio/packages/toolchain-gccarmnoneeabi@1.40804.0/bin/../lib/gcc/arm-none-eabi/4.8.4/../../../../arm-none-eabi/lib/armv7e-m\libc.a(lib_a-strstr.o)
 .text.strstr   0x0001d548      0x200 c:/users/user/.platformio/packages/toolchain-gccarmnoneeabi@1.40804.0/bin/../lib/gcc/arm-none-eabi/4.8.4/../../../../arm-none-eabi/lib/armv7e-m\libc.a(lib_a-strstr.o)
                0x0001d548                strstr
 .text          0x0001d748        0x0 c:/users/user/.platformio/packages/toolchain-gccarmnoneeabi@1.40804.0/bin/../lib/gcc/arm-none-eabi/4.8.4/../../../../arm-none-eabi/lib/armv7e-m\libc.a(lib_a-strtol.o)
 .text._strtol_r
                0x0001d748      0x114 c:/users/user/.platformio/packages/toolchain-gccarmnoneeabi@1.40804.0/bin/../lib/gcc/arm-none-eabi/4.8.4/../../../../arm-none-eabi/lib/armv7e-m\libc.a(lib_a-strtol.o)
                0x0001d748                _strtol_r
 .text.strtol   0x0001d85c       0x18 c:/users/user/.platformio/packages/toolchain-gccarmnoneeabi@1.40804.0/bin/../lib/gcc/arm-none-eabi/4.8.4/../../../../arm-none-eabi/lib/armv7e-m\libc.a(lib_a-strtol.o)
                0x0001d85c                strtol
 .text          0x0001d874        0x0 c:/users/user/.platformio/packages/toolchain-gccarmnoneeabi@1.40804.0/bin/../lib/gcc/arm-none-eabi/4.8.4/../../../../arm-none-eabi/lib/armv7e-m\libc.a(lib_a-svfprintf.o)
 .text._svfprintf_r
                0x0001d874     0x14f8 c:/users/user/.platformio/packages/toolchain-gccarmnoneeabi@1.40804.0/bin/../lib/gcc/arm-none-eabi/4.8.4/../../../../arm-none-eabi/lib/armv7e-m\libc.a(lib_a-svfprintf.o)
                0x0001d874                _svfprintf_r
 .text          0x0001ed6c        0x0 c:/users/user/.platformio/packages/toolchain-gccarmnoneeabi@1.40804.0/bin/../lib/gcc/arm-none-eabi/4.8.4/../../../../arm-none-eabi/lib/armv7e-m\libc.a(lib_a-vsnprintf.o)
 .text._vsnprintf_r
                0x0001ed6c       0x54 c:/users/user/.platformio/packages/toolchain-gccarmnoneeabi@1.40804.0/bin/../lib/gcc/arm-none-eabi/4.8.4/../../../../arm-none-eabi/lib/armv7e-m\libc.a(lib_a-vsnprintf.o)
                0x0001ed6c                _vsnprintf_r
 .text.vsnprintf
                0x0001edc0       0x20 c:/users/user/.platformio/packages/toolchain-gccarmnoneeabi@1.40804.0/bin/../lib/gcc/arm-none-eabi/4.8.4/../../../../arm-none-eabi/lib/armv7e-m\libc.a(lib_a-vsnprintf.o)
                0x0001edc0                vsnprintf
 .text          0x0001ede0        0x0 c:/users/user/.platformio/packages/toolchain-gccarmnoneeabi@1.40804.0/bin/../lib/gcc/arm-none-eabi/4.8.4/../../../../arm-none-eabi/lib/armv7e-m\libc.a(lib_a-dtoa.o)
 .text.quorem   0x0001ede0      0x130 c:/users/user/.platformio/packages/toolchain-gccarmnoneeabi@1.40804.0/bin/../lib/gcc/arm-none-eabi/4.8.4/../../../../arm-none-eabi/lib/armv7e-m\libc.a(lib_a-dtoa.o)
 .text._dtoa_r  0x0001ef10      0xe38 c:/users/user/.platformio/packages/toolchain-gccarmnoneeabi@1.40804.0/bin/../lib/gcc/arm-none-eabi/4.8.4/../../../../arm-none-eabi/lib/armv7e-m\libc.a(lib_a-dtoa.o)
                0x0001ef10                _dtoa_r
 .text          0x0001fd48        0x0 c:/users/user/.platformio/packages/toolchain-gccarmnoneeabi@1.40804.0/bin/../lib/gcc/arm-none-eabi/4.8.4/../../../../arm-none-eabi/lib/armv7e-m\libc.a(lib_a-impure.o)
 .text          0x0001fd48        0x0 c:/users/user/.platformio/packages/toolchain-gccarmnoneeabi@1.40804.0/bin/../lib/gcc/arm-none-eabi/4.8.4/../../../../arm-none-eabi/lib/armv7e-m\libc.a(lib_a-locale.o)
 .text._setlocale_r
                0x0001fd48       0x40 c:/users/user/.platformio/packages/toolchain-gccarmnoneeabi@1.40804.0/bin/../lib/gcc/arm-none-eabi/4.8.4/../../../../arm-none-eabi/lib/armv7e-m\libc.a(lib_a-locale.o)
                0x0001fd48                _setlocale_r
 .text.__locale_charset
                0x0001fd88        0x8 c:/users/user/.platformio/packages/toolchain-gccarmnoneeabi@1.40804.0/bin/../lib/gcc/arm-none-eabi/4.8.4/../../../../arm-none-eabi/lib/armv7e-m\libc.a(lib_a-locale.o)
                0x0001fd88                __locale_charset
 .text.__locale_mb_cur_max
                0x0001fd90        0xc c:/users/user/.platformio/packages/toolchain-gccarmnoneeabi@1.40804.0/bin/../lib/gcc/arm-none-eabi/4.8.4/../../../../arm-none-eabi/lib/armv7e-m\libc.a(lib_a-locale.o)
                0x0001fd90                __locale_mb_cur_max
 .text.__locale_msgcharset
                0x0001fd9c        0x8 c:/users/user/.platformio/packages/toolchain-gccarmnoneeabi@1.40804.0/bin/../lib/gcc/arm-none-eabi/4.8.4/../../../../arm-none-eabi/lib/armv7e-m\libc.a(lib_a-locale.o)
                0x0001fd9c                __locale_msgcharset
 .text.__locale_cjk_lang
                0x0001fda4        0x4 c:/users/user/.platformio/packages/toolchain-gccarmnoneeabi@1.40804.0/bin/../lib/gcc/arm-none-eabi/4.8.4/../../../../arm-none-eabi/lib/armv7e-m\libc.a(lib_a-locale.o)
                0x0001fda4                __locale_cjk_lang
 .text._localeconv_r
                0x0001fda8        0x8 c:/users/user/.platformio/packages/toolchain-gccarmnoneeabi@1.40804.0/bin/../lib/gcc/arm-none-eabi/4.8.4/../../../../arm-none-eabi/lib/armv7e-m\libc.a(lib_a-locale.o)
                0x0001fda8                _localeconv_r
 .text.setlocale
                0x0001fdb0       0x10 c:/users/user/.platformio/packages/toolchain-gccarmnoneeabi@1.40804.0/bin/../lib/gcc/arm-none-eabi/4.8.4/../../../../arm-none-eabi/lib/armv7e-m\libc.a(lib_a-locale.o)
                0x0001fdb0                setlocale
 .text.localeconv
                0x0001fdc0        0x8 c:/users/user/.platformio/packages/toolchain-gccarmnoneeabi@1.40804.0/bin/../lib/gcc/arm-none-eabi/4.8.4/../../../../arm-none-eabi/lib/armv7e-m\libc.a(lib_a-locale.o)
                0x0001fdc0                localeconv
 .text          0x0001fdc8        0x0 c:/users/user/.platformio/packages/toolchain-gccarmnoneeabi@1.40804.0/bin/../lib/gcc/arm-none-eabi/4.8.4/../../../../arm-none-eabi/lib/armv7e-m\libc.a(lib_a-memchr-stub.o)
 .text.memchr   0x0001fdc8       0x90 c:/users/user/.platformio/packages/toolchain-gccarmnoneeabi@1.40804.0/bin/../lib/gcc/arm-none-eabi/4.8.4/../../../../arm-none-eabi/lib/armv7e-m\libc.a(lib_a-memchr-stub.o)
                0x0001fdc8                memchr
 .text          0x0001fe58        0x0 c:/users/user/.platformio/packages/toolchain-gccarmnoneeabi@1.40804.0/bin/../lib/gcc/arm-none-eabi/4.8.4/../../../../arm-none-eabi/lib/armv7e-m\libc.a(lib_a-mprec.o)
 .text._Balloc  0x0001fe58       0x4c c:/users/user/.platformio/packages/toolchain-gccarmnoneeabi@1.40804.0/bin/../lib/gcc/arm-none-eabi/4.8.4/../../../../arm-none-eabi/lib/armv7e-m\libc.a(lib_a-mprec.o)
                0x0001fe58                _Balloc
 .text._Bfree   0x0001fea4       0x14 c:/users/user/.platformio/packages/toolchain-gccarmnoneeabi@1.40804.0/bin/../lib/gcc/arm-none-eabi/4.8.4/../../../../arm-none-eabi/lib/armv7e-m\libc.a(lib_a-mprec.o)
                0x0001fea4                _Bfree
 .text.__multadd
                0x0001feb8       0x98 c:/users/user/.platformio/packages/toolchain-gccarmnoneeabi@1.40804.0/bin/../lib/gcc/arm-none-eabi/4.8.4/../../../../arm-none-eabi/lib/armv7e-m\libc.a(lib_a-mprec.o)
                0x0001feb8                __multadd
 .text.__s2b    0x0001ff50       0x98 c:/users/user/.platformio/packages/toolchain-gccarmnoneeabi@1.40804.0/bin/../lib/gcc/arm-none-eabi/4.8.4/../../../../arm-none-eabi/lib/armv7e-m\libc.a(lib_a-mprec.o)
                0x0001ff50                __s2b
 .text.__hi0bits
                0x0001ffe8       0x40 c:/users/user/.platformio/packages/toolchain-gccarmnoneeabi@1.40804.0/bin/../lib/gcc/arm-none-eabi/4.8.4/../../../../arm-none-eabi/lib/armv7e-m\libc.a(lib_a-mprec.o)
                0x0001ffe8                __hi0bits
 .text.__lo0bits
                0x00020028       0x5c c:/users/user/.platformio/packages/toolchain-gccarmnoneeabi@1.40804.0/bin/../lib/gcc/arm-none-eabi/4.8.4/../../../../arm-none-eabi/lib/armv7e-m\libc.a(lib_a-mprec.o)
                0x00020028                __lo0bits
 .text.__i2b    0x00020084       0x14 c:/users/user/.platformio/packages/toolchain-gccarmnoneeabi@1.40804.0/bin/../lib/gcc/arm-none-eabi/4.8.4/../../../../arm-none-eabi/lib/armv7e-m\libc.a(lib_a-mprec.o)
                0x00020084                __i2b
 .text.__multiply
                0x00020098      0x13c c:/users/user/.platformio/packages/toolchain-gccarmnoneeabi@1.40804.0/bin/../lib/gcc/arm-none-eabi/4.8.4/../../../../arm-none-eabi/lib/armv7e-m\libc.a(lib_a-mprec.o)
                0x00020098                __multiply
 .text.__pow5mult
                0x000201d4       0x9c c:/users/user/.platformio/packages/toolchain-gccarmnoneeabi@1.40804.0/bin/../lib/gcc/arm-none-eabi/4.8.4/../../../../arm-none-eabi/lib/armv7e-m\libc.a(lib_a-mprec.o)
                0x000201d4                __pow5mult
 .text.__lshift
                0x00020270       0xbc c:/users/user/.platformio/packages/toolchain-gccarmnoneeabi@1.40804.0/bin/../lib/gcc/arm-none-eabi/4.8.4/../../../../arm-none-eabi/lib/armv7e-m\libc.a(lib_a-mprec.o)
                0x00020270                __lshift
 .text.__mcmp   0x0002032c       0x48 c:/users/user/.platformio/packages/toolchain-gccarmnoneeabi@1.40804.0/bin/../lib/gcc/arm-none-eabi/4.8.4/../../../../arm-none-eabi/lib/armv7e-m\libc.a(lib_a-mprec.o)
                0x0002032c                __mcmp
 .text.__mdiff  0x00020374       0xd4 c:/users/user/.platformio/packages/toolchain-gccarmnoneeabi@1.40804.0/bin/../lib/gcc/arm-none-eabi/4.8.4/../../../../arm-none-eabi/lib/armv7e-m\libc.a(lib_a-mprec.o)
                0x00020374                __mdiff
 .text.__ulp    0x00020448       0x40 c:/users/user/.platformio/packages/toolchain-gccarmnoneeabi@1.40804.0/bin/../lib/gcc/arm-none-eabi/4.8.4/../../../../arm-none-eabi/lib/armv7e-m\libc.a(lib_a-mprec.o)
                0x00020448                __ulp
 .text.__b2d    0x00020488       0xb4 c:/users/user/.platformio/packages/toolchain-gccarmnoneeabi@1.40804.0/bin/../lib/gcc/arm-none-eabi/4.8.4/../../../../arm-none-eabi/lib/armv7e-m\libc.a(lib_a-mprec.o)
                0x00020488                __b2d
 .text.__d2b    0x0002053c       0xbc c:/users/user/.platformio/packages/toolchain-gccarmnoneeabi@1.40804.0/bin/../lib/gcc/arm-none-eabi/4.8.4/../../../../arm-none-eabi/lib/armv7e-m\libc.a(lib_a-mprec.o)
                0x0002053c                __d2b
 .text.__ratio  0x000205f8       0x50 c:/users/user/.platformio/packages/toolchain-gccarmnoneeabi@1.40804.0/bin/../lib/gcc/arm-none-eabi/4.8.4/../../../../arm-none-eabi/lib/armv7e-m\libc.a(lib_a-mprec.o)
                0x000205f8                __ratio
 .text._mprec_log10
                0x00020648       0x34 c:/users/user/.platformio/packages/toolchain-gccarmnoneeabi@1.40804.0/bin/../lib/gcc/arm-none-eabi/4.8.4/../../../../arm-none-eabi/lib/armv7e-m\libc.a(lib_a-mprec.o)
                0x00020648                _mprec_log10
 .text.__copybits
                0x0002067c       0x48 c:/users/user/.platformio/packages/toolchain-gccarmnoneeabi@1.40804.0/bin/../lib/gcc/arm-none-eabi/4.8.4/../../../../arm-none-eabi/lib/armv7e-m\libc.a(lib_a-mprec.o)
                0x0002067c                __copybits
 .text.__any_on
                0x000206c4       0x60 c:/users/user/.platformio/packages/toolchain-gccarmnoneeabi@1.40804.0/bin/../lib/gcc/arm-none-eabi/4.8.4/../../../../arm-none-eabi/lib/armv7e-m\libc.a(lib_a-mprec.o)
                0x000206c4                __any_on
 .text          0x00020724        0x0 c:/users/user/.platformio/packages/toolchain-gccarmnoneeabi@1.40804.0/bin/../lib/gcc/arm-none-eabi/4.8.4/../../../../arm-none-eabi/lib/armv7e-m\libc.a(lib_a-svfiprintf.o)
 .text.__ssprint_r
                0x00020724      0x100 c:/users/user/.platformio/packages/toolchain-gccarmnoneeabi@1.40804.0/bin/../lib/gcc/arm-none-eabi/4.8.4/../../../../arm-none-eabi/lib/armv7e-m\libc.a(lib_a-svfiprintf.o)
                0x00020724                __ssprint_r
 .text._svfiprintf_r
                0x00020824      0xb3c c:/users/user/.platformio/packages/toolchain-gccarmnoneeabi@1.40804.0/bin/../lib/gcc/arm-none-eabi/4.8.4/../../../../arm-none-eabi/lib/armv7e-m\libc.a(lib_a-svfiprintf.o)
                0x00020824                _svfiprintf_r
 .text          0x00021360      0x370 c:/users/user/.platformio/packages/toolchain-gccarmnoneeabi@1.40804.0/bin/../lib/gcc/arm-none-eabi/4.8.4/armv7e-m\libgcc.a(_arm_addsubdf3.o)
                0x00021360                __aeabi_drsub
                0x00021368                __aeabi_dsub
                0x00021368                __subdf3
                0x0002136c                __aeabi_dadd
                0x0002136c                __adddf3
                0x000215e4                __floatunsidf
                0x000215e4                __aeabi_ui2d
                0x00021604                __floatsidf
                0x00021604                __aeabi_i2d
                0x00021628                __aeabi_f2d
                0x00021628                __extendsfdf2
                0x00021664                __floatundidf
                0x00021664                __aeabi_ul2d
                0x00021674                __floatdidf
                0x00021674                __aeabi_l2d
 .text          0x000216d0      0x424 c:/users/user/.platformio/packages/toolchain-gccarmnoneeabi@1.40804.0/bin/../lib/gcc/arm-none-eabi/4.8.4/armv7e-m\libgcc.a(_arm_muldivdf3.o)
                0x000216d0                __aeabi_dmul
                0x000216d0                __muldf3
                0x00021924                __divdf3
                0x00021924                __aeabi_ddiv
 .text          0x00021af4      0x110 c:/users/user/.platformio/packages/toolchain-gccarmnoneeabi@1.40804.0/bin/../lib/gcc/arm-none-eabi/4.8.4/armv7e-m\libgcc.a(_arm_cmpdf2.o)
                0x00021af4                __gtdf2
                0x00021af4                __gedf2
                0x00021afc                __ltdf2
                0x00021afc                __ledf2
                0x00021b04                __nedf2
                0x00021b04                __eqdf2
                0x00021b04                __cmpdf2
                0x00021b80                __aeabi_cdrcmple
                0x00021b90                __aeabi_cdcmpeq
                0x00021b90                __aeabi_cdcmple
                0x00021ba0                __aeabi_dcmpeq
                0x00021bb4                __aeabi_dcmplt
                0x00021bc8                __aeabi_dcmple
                0x00021bdc                __aeabi_dcmpge
                0x00021bf0                __aeabi_dcmpgt
 .text          0x00021c04       0x50 c:/users/user/.platformio/packages/toolchain-gccarmnoneeabi@1.40804.0/bin/../lib/gcc/arm-none-eabi/4.8.4/armv7e-m\libgcc.a(_arm_fixdfsi.o)
                0x00021c04                __aeabi_d2iz
                0x00021c04                __fixdfsi
 .text          0x00021c54       0x2c c:/users/user/.platformio/packages/toolchain-gccarmnoneeabi@1.40804.0/bin/../lib/gcc/arm-none-eabi/4.8.4/armv7e-m\libgcc.a(_aeabi_uldivmod.o)
                0x00021c54                __aeabi_uldivmod
 .text          0x00021c80       0x60 c:/users/user/.platformio/packages/toolchain-gccarmnoneeabi@1.40804.0/bin/../lib/gcc/arm-none-eabi/4.8.4/armv7e-m\libgcc.a(bpabi.o)
                0x00021c80                __gnu_ldivmod_helper
                0x00021cb0                __gnu_uldivmod_helper
 .text          0x00021ce0        0x4 c:/users/user/.platformio/packages/toolchain-gccarmnoneeabi@1.40804.0/bin/../lib/gcc/arm-none-eabi/4.8.4/armv7e-m\libgcc.a(_dvmd_tls.o)
                0x00021ce0                __aeabi_idiv0
                0x00021ce0                __aeabi_ldiv0
 .text          0x00021ce4      0x298 c:/users/user/.platformio/packages/toolchain-gccarmnoneeabi@1.40804.0/bin/../lib/gcc/arm-none-eabi/4.8.4/armv7e-m\libgcc.a(_divdi3.o)
                0x00021ce4                __divdi3
 .text          0x00021f7c      0x284 c:/users/user/.platformio/packages/toolchain-gccarmnoneeabi@1.40804.0/bin/../lib/gcc/arm-none-eabi/4.8.4/armv7e-m\libgcc.a(_udivdi3.o)
                0x00021f7c                __udivdi3
 .text          0x00022200        0x0 c:/users/user/.platformio/packages/toolchain-gccarmnoneeabi@1.40804.0/bin/../lib/gcc/arm-none-eabi/4.8.4/../../../../arm-none-eabi/lib/armv7e-m\libm.a(lib_a-w_pow.o)
 .text.pow      0x00022200      0x2f8 c:/users/user/.platformio/packages/toolchain-gccarmnoneeabi@1.40804.0/bin/../lib/gcc/arm-none-eabi/4.8.4/../../../../arm-none-eabi/lib/armv7e-m\libm.a(lib_a-w_pow.o)
                0x00022200                pow
 .text          0x000224f8        0x0 c:/users/user/.platformio/packages/toolchain-gccarmnoneeabi@1.40804.0/bin/../lib/gcc/arm-none-eabi/4.8.4/../../../../arm-none-eabi/lib/armv7e-m\libm.a(lib_a-e_pow.o)
 .text.__ieee754_pow
                0x000224f8      0xa78 c:/users/user/.platformio/packages/toolchain-gccarmnoneeabi@1.40804.0/bin/../lib/gcc/arm-none-eabi/4.8.4/../../../../arm-none-eabi/lib/armv7e-m\libm.a(lib_a-e_pow.o)
                0x000224f8                __ieee754_pow
 .text          0x00022f70        0x0 c:/users/user/.platformio/packages/toolchain-gccarmnoneeabi@1.40804.0/bin/../lib/gcc/arm-none-eabi/4.8.4/../../../../arm-none-eabi/lib/armv7e-m\libm.a(lib_a-e_sqrt.o)
 .text.__ieee754_sqrt
                0x00022f70      0x180 c:/users/user/.platformio/packages/toolchain-gccarmnoneeabi@1.40804.0/bin/../lib/gcc/arm-none-eabi/4.8.4/../../../../arm-none-eabi/lib/armv7e-m\libm.a(lib_a-e_sqrt.o)
                0x00022f70                __ieee754_sqrt
 .text          0x000230f0        0x0 c:/users/user/.platformio/packages/toolchain-gccarmnoneeabi@1.40804.0/bin/../lib/gcc/arm-none-eabi/4.8.4/../../../../arm-none-eabi/lib/armv7e-m\libm.a(lib_a-s_fabs.o)
 .text.fabs     0x000230f0        0x8 c:/users/user/.platformio/packages/toolchain-gccarmnoneeabi@1.40804.0/bin/../lib/gcc/arm-none-eabi/4.8.4/../../../../arm-none-eabi/lib/armv7e-m\libm.a(lib_a-s_fabs.o)
                0x000230f0                fabs
 .text          0x000230f8        0x0 c:/users/user/.platformio/packages/toolchain-gccarmnoneeabi@1.40804.0/bin/../lib/gcc/arm-none-eabi/4.8.4/../../../../arm-none-eabi/lib/armv7e-m\libm.a(lib_a-s_finite.o)
 .text.finite   0x000230f8        0xc c:/users/user/.platformio/packages/toolchain-gccarmnoneeabi@1.40804.0/bin/../lib/gcc/arm-none-eabi/4.8.4/../../../../arm-none-eabi/lib/armv7e-m\libm.a(lib_a-s_finite.o)
                0x000230f8                finite
 .text          0x00023104        0x0 c:/users/user/.platformio/packages/toolchain-gccarmnoneeabi@1.40804.0/bin/../lib/gcc/arm-none-eabi/4.8.4/../../../../arm-none-eabi/lib/armv7e-m\libm.a(lib_a-s_lib_ver.o)
 .text          0x00023104        0x0 c:/users/user/.platformio/packages/toolchain-gccarmnoneeabi@1.40804.0/bin/../lib/gcc/arm-none-eabi/4.8.4/../../../../arm-none-eabi/lib/armv7e-m\libm.a(lib_a-s_matherr.o)
 .text.matherr  0x00023104        0x4 c:/users/user/.platformio/packages/toolchain-gccarmnoneeabi@1.40804.0/bin/../lib/gcc/arm-none-eabi/4.8.4/../../../../arm-none-eabi/lib/armv7e-m\libm.a(lib_a-s_matherr.o)
                0x00023104                matherr
 .text          0x00023108        0x0 c:/users/user/.platformio/packages/toolchain-gccarmnoneeabi@1.40804.0/bin/../lib/gcc/arm-none-eabi/4.8.4/../../../../arm-none-eabi/lib/armv7e-m\libm.a(lib_a-s_nan.o)
 .text.nan      0x00023108        0xc c:/users/user/.platformio/packages/toolchain-gccarmnoneeabi@1.40804.0/bin/../lib/gcc/arm-none-eabi/4.8.4/../../../../arm-none-eabi/lib/armv7e-m\libm.a(lib_a-s_nan.o)
                0x00023108                nan
 .text          0x00023114        0x0 c:/users/user/.platformio/packages/toolchain-gccarmnoneeabi@1.40804.0/bin/../lib/gcc/arm-none-eabi/4.8.4/../../../../arm-none-eabi/lib/armv7e-m\libm.a(lib_a-s_rint.o)
 .text.rint     0x00023114      0x118 c:/users/user/.platformio/packages/toolchain-gccarmnoneeabi@1.40804.0/bin/../lib/gcc/arm-none-eabi/4.8.4/../../../../arm-none-eabi/lib/armv7e-m\libm.a(lib_a-s_rint.o)
                0x00023114                rint
 .text          0x0002322c        0x0 c:/users/user/.platformio/packages/toolchain-gccarmnoneeabi@1.40804.0/bin/../lib/gcc/arm-none-eabi/4.8.4/../../../../arm-none-eabi/lib/armv7e-m\libm.a(lib_a-s_scalbn.o)
 *fill*         0x0002322c        0x4 
 .text.scalbn   0x00023230      0x118 c:/users/user/.platformio/packages/toolchain-gccarmnoneeabi@1.40804.0/bin/../lib/gcc/arm-none-eabi/4.8.4/../../../../arm-none-eabi/lib/armv7e-m\libm.a(lib_a-s_scalbn.o)
                0x00023230                scalbn
 .text          0x00023348        0x0 c:/users/user/.platformio/packages/toolchain-gccarmnoneeabi@1.40804.0/bin/../lib/gcc/arm-none-eabi/4.8.4/../../../../arm-none-eabi/lib/armv7e-m\libm.a(lib_a-s_copysign.o)
 .text.copysign
                0x00023348       0x14 c:/users/user/.platformio/packages/toolchain-gccarmnoneeabi@1.40804.0/bin/../lib/gcc/arm-none-eabi/4.8.4/../../../../arm-none-eabi/lib/armv7e-m\libm.a(lib_a-s_copysign.o)
                0x00023348                copysign
 .text          0x0002335c        0x0 c:/users/user/.platformio/packages/toolchain-gccarmnoneeabi@1.40804.0/bin/../lib/gcc/arm-none-eabi/4.8.4/../../../../arm-none-eabi/lib/armv7e-m\libc.a(lib_a-errno.o)
 .text.__errno  0x0002335c        0xc c:/users/user/.platformio/packages/toolchain-gccarmnoneeabi@1.40804.0/bin/../lib/gcc/arm-none-eabi/4.8.4/../../../../arm-none-eabi/lib/armv7e-m\libc.a(lib_a-errno.o)
                0x0002335c                __errno
 *(.gnu.linkonce.t.*)
 *(.rodata .rodata.* .gnu.linkonce.r.*)
 .rodata.PWM_Channels
                0x00023368        0x8 .pio/build/lptm4c1294ncpdt/src/APP/LED_PWM_API.o
                0x00023368                PWM_Channels
 .rodata.str1.1
                0x00023370      0x173 .pio/build/lptm4c1294ncpdt/src/APP/LED_PWM_APP.o
                                0x17b (size before relaxing)
 *fill*         0x000234e3        0x1 
 .rodata.CSWTCH.5
                0x000234e4      0x168 .pio/build/lptm4c1294ncpdt/src/Drivers/W-Link/Driver/GPIO/Pin/GPIO_Pin_TM4C1294.o
 .rodata.CSWTCH.7
                0x0002364c       0xc4 .pio/build/lptm4c1294ncpdt/src/Drivers/W-Link/Driver/GPIO/Pin/GPIO_Pin_TM4C1294.o
 .rodata.CSWTCH.9
                0x00023710       0x5a .pio/build/lptm4c1294ncpdt/src/Drivers/W-Link/Driver/GPIO/Pin/GPIO_Pin_TM4C1294.o
 .rodata.CSWTCH.11
                0x0002376a       0x5a .pio/build/lptm4c1294ncpdt/src/Drivers/W-Link/Driver/GPIO/Pin/GPIO_Pin_TM4C1294.o
 .rodata.CSWTCH.1
                0x000237c4      0x168 .pio/build/lptm4c1294ncpdt/src/Drivers/W-Link/Driver/GPIO/Pin/GPIO_Pin_TM4C1294.o
 .rodata.CSWTCH.3
                0x0002392c       0xc4 .pio/build/lptm4c1294ncpdt/src/Drivers/W-Link/Driver/GPIO/Pin/GPIO_Pin_TM4C1294.o
 .rodata.Map_Soc_PWM_Gen_Mask
                0x000239f0       0x20 .pio/build/lptm4c1294ncpdt/src/Drivers/W-Link/Driver/PWM/PWM_TM4C1294.o
                0x000239f0                Map_Soc_PWM_Gen_Mask
 .rodata.Map_Soc_PWM_Out_Mask
                0x00023a10       0x20 .pio/build/lptm4c1294ncpdt/src/Drivers/W-Link/Driver/PWM/PWM_TM4C1294.o
                0x00023a10                Map_Soc_PWM_Out_Mask
 .rodata.Map_Soc_PWM_Out
                0x00023a30       0x20 .pio/build/lptm4c1294ncpdt/src/Drivers/W-Link/Driver/PWM/PWM_TM4C1294.o
                0x00023a30                Map_Soc_PWM_Out
 .rodata.Map_Soc_PWM_Gen
                0x00023a50       0x20 .pio/build/lptm4c1294ncpdt/src/Drivers/W-Link/Driver/PWM/PWM_TM4C1294.o
                0x00023a50                Map_Soc_PWM_Gen
 .rodata.PWM_Pins
                0x00023a70        0x8 .pio/build/lptm4c1294ncpdt/src/Drivers/W-Link/Driver/PWM/PWM_TM4C1294.o
                0x00023a70                PWM_Pins
 .rodata.Map_Soc_PWM_Pin_Cfg
                0x00023a78       0x20 .pio/build/lptm4c1294ncpdt/src/Drivers/W-Link/Driver/PWM/PWM_TM4C1294.o
                0x00023a78                Map_Soc_PWM_Pin_Cfg
 .rodata.Map_Soc_UART_TxPin_Cfg
                0x00023a98       0x20 .pio/build/lptm4c1294ncpdt/src/Drivers/W-Link/Driver/UART/UART_TM4C1294.o
                0x00023a98                Map_Soc_UART_TxPin_Cfg
 .rodata.UART_TX_Pins
                0x00023ab8        0x8 .pio/build/lptm4c1294ncpdt/src/Drivers/W-Link/Driver/UART/UART_TM4C1294.o
                0x00023ab8                UART_TX_Pins
 .rodata.Map_Soc_UART_SysCtrl_Periph
                0x00023ac0       0x20 .pio/build/lptm4c1294ncpdt/src/Drivers/W-Link/Driver/UART/UART_TM4C1294.o
                0x00023ac0                Map_Soc_UART_SysCtrl_Periph
 .rodata.Map_Soc_UART_RxPin_Cfg
                0x00023ae0       0x20 .pio/build/lptm4c1294ncpdt/src/Drivers/W-Link/Driver/UART/UART_TM4C1294.o
                0x00023ae0                Map_Soc_UART_RxPin_Cfg
 .rodata.UART_RX_Pins
                0x00023b00        0x8 .pio/build/lptm4c1294ncpdt/src/Drivers/W-Link/Driver/UART/UART_TM4C1294.o
                0x00023b00                UART_RX_Pins
 .rodata.Map_Soc_UART_Base
                0x00023b08       0x20 .pio/build/lptm4c1294ncpdt/src/Drivers/W-Link/Driver/UART/UART_TM4C1294.o
                0x00023b08                Map_Soc_UART_Base
 .rodata.base64dec_tab
                0x00023b28      0x400 .pio/build/lptm4c1294ncpdt/src/Drivers/W-Link/Misc/Base64.o
 .rodata.base64enc_tab
                0x00023f28       0x40 .pio/build/lptm4c1294ncpdt/src/Drivers/W-Link/Misc/Base64.o
 .rodata.str1.1
                0x00023f68        0x3 .pio/build/lptm4c1294ncpdt/src/Drivers/W-Link/Misc/ftoa.o
 .rodata.str1.1
                0x00000000        0x3 .pio/build/lptm4c1294ncpdt/src/Drivers/W-Link/Misc/itoa.o
 .rodata.firstByteMark
                0x00023f6b        0x7 .pio/build/lptm4c1294ncpdt/src/Drivers/W-Link/cJSON/cJSON.o
 .rodata.str1.1
                0x00023f72       0x27 .pio/build/lptm4c1294ncpdt/src/Drivers/W-Link/cJSON/cJSON.o
                                 0x2b (size before relaxing)
 .rodata.str1.1
                0x00023f99        0x7 .pio/build/lptm4c1294ncpdt/src/Drivers/ethernetif/ethernetif_tm4c1294.o
 .rodata.g_ui16CANBitValues
                0x00023fa0       0x20 .pio/build/lptm4c1294ncpdt/src/Drivers/soc/driverlib/can.o
 .rodata.g_pi16MIIClockDiv
                0x00023fc0       0x18 .pio/build/lptm4c1294ncpdt/src/Drivers/soc/driverlib/emac.o
 .rodata.g_pui32FMPPERegs
                0x00023fd8       0x40 .pio/build/lptm4c1294ncpdt/src/Drivers/soc/driverlib/flash.o
 .rodata.g_pui32FMPRERegs
                0x00024018       0x40 .pio/build/lptm4c1294ncpdt/src/Drivers/soc/driverlib/flash.o
 .rodata.g_ppui32GPIOIntMapSnowflake
                0x00024058       0xd8 .pio/build/lptm4c1294ncpdt/src/Drivers/soc/driverlib/gpio.o
 .rodata.g_pui32GPIOBaseAddrs
                0x00024130       0x90 .pio/build/lptm4c1294ncpdt/src/Drivers/soc/driverlib/gpio.o
 .rodata.g_ppui32GPIOIntMapBlizzard
                0x000241c0       0xc0 .pio/build/lptm4c1294ncpdt/src/Drivers/soc/driverlib/gpio.o
 .rodata.g_ppui32I2CIntMap
                0x00024280       0x30 .pio/build/lptm4c1294ncpdt/src/Drivers/soc/driverlib/i2c.o
 .rodata.g_ppui32I2CIntMapSnowflake
                0x000242b0       0x50 .pio/build/lptm4c1294ncpdt/src/Drivers/soc/driverlib/i2c.o
 .rodata.g_pui32Priority
                0x00024300       0x20 .pio/build/lptm4c1294ncpdt/src/Drivers/soc/driverlib/interrupt.o
 .rodata.g_pui32Dii16Regs
                0x00024320       0x14 .pio/build/lptm4c1294ncpdt/src/Drivers/soc/driverlib/interrupt.o
 .rodata.g_pui32PendRegs
                0x00024334       0x14 .pio/build/lptm4c1294ncpdt/src/Drivers/soc/driverlib/interrupt.o
 .rodata.g_pui32Regs
                0x00024348       0x9c .pio/build/lptm4c1294ncpdt/src/Drivers/soc/driverlib/interrupt.o
 .rodata.g_pui32EnRegs
                0x000243e4       0x14 .pio/build/lptm4c1294ncpdt/src/Drivers/soc/driverlib/interrupt.o
 .rodata.g_pui32UnpendRegs
                0x000243f8       0x14 .pio/build/lptm4c1294ncpdt/src/Drivers/soc/driverlib/interrupt.o
 .rodata.g_ppui32SSIIntMap
                0x0002440c       0x20 .pio/build/lptm4c1294ncpdt/src/Drivers/soc/driverlib/ssi.o
 .rodata.g_ppui32SSIIntMapSnowflake
                0x0002442c       0x20 .pio/build/lptm4c1294ncpdt/src/Drivers/soc/driverlib/ssi.o
 .rodata.g_pui32Crc32
                0x0002444c      0x400 .pio/build/lptm4c1294ncpdt/src/Drivers/soc/driverlib/sw_crc.o
 .rodata.g_pui16Crc16
                0x0002484c      0x200 .pio/build/lptm4c1294ncpdt/src/Drivers/soc/driverlib/sw_crc.o
 .rodata.g_pui8Crc8CCITT
                0x00024a4c      0x100 .pio/build/lptm4c1294ncpdt/src/Drivers/soc/driverlib/sw_crc.o
 .rodata.g_pppui32XTALtoVCO
                0x00024b4c      0x1b0 .pio/build/lptm4c1294ncpdt/src/Drivers/soc/driverlib/sysctl.o
 .rodata.g_pui32VCOFrequencies
                0x00024cfc        0x8 .pio/build/lptm4c1294ncpdt/src/Drivers/soc/driverlib/sysctl.o
 .rodata.g_sXTALtoMEMTIM
                0x00024d04       0x30 .pio/build/lptm4c1294ncpdt/src/Drivers/soc/driverlib/sysctl.o
 .rodata.g_pui32Xtals
                0x00024d34       0x6c .pio/build/lptm4c1294ncpdt/src/Drivers/soc/driverlib/sysctl.o
 .rodata.g_ppui32TimerIntMapSnowflake
                0x00024da0       0x40 .pio/build/lptm4c1294ncpdt/src/Drivers/soc/driverlib/timer.o
 .rodata.g_ppui32TimerIntMap
                0x00024de0       0x60 .pio/build/lptm4c1294ncpdt/src/Drivers/soc/driverlib/timer.o
 .rodata.g_ppui32UARTIntMap
                0x00024e40       0x40 .pio/build/lptm4c1294ncpdt/src/Drivers/soc/driverlib/uart.o
 .rodata.g_ppui32UARTIntMapSnowflake
                0x00024e80       0x40 .pio/build/lptm4c1294ncpdt/src/Drivers/soc/driverlib/uart.o
 .rodata.str1.1
                0x00024ec0      0x665 .pio/build/lptm4c1294ncpdt/src/NeonRTOS/HTTPd/HTTPd.o
                                0x672 (size before relaxing)
 .rodata.HTTP_API_Debug_Tool_Page_HTML
                0x00025525      0xadc .pio/build/lptm4c1294ncpdt/src/NeonRTOS/HTTPd/HTTPd.o
                0x00025525                HTTP_API_Debug_Tool_Page_HTML
 *fill*         0x00026001        0x3 
 .rodata.builtInUrls
                0x00026004       0x18 .pio/build/lptm4c1294ncpdt/src/NeonRTOS/HTTPd/HTTPd.o
                0x00026004                builtInUrls
 .rodata.CSWTCH.5
                0x0002601c      0x66c .pio/build/lptm4c1294ncpdt/src/NeonRTOS/HTTPd/HTTPd_Utils.o
 .rodata.str1.1
                0x00026688        0xd .pio/build/lptm4c1294ncpdt/src/NeonRTOS/HTTPd/HTTPd_Utils.o
                                 0x15 (size before relaxing)
 .rodata.CSWTCH.4
                0x00026695      0x19b .pio/build/lptm4c1294ncpdt/src/NeonRTOS/HTTPd/HTTPd_Utils.o
 .rodata.HTTP_Status_410
                0x00026830        0x5 .pio/build/lptm4c1294ncpdt/src/NeonRTOS/HTTPd/HTTPd_def.o
                0x00026830                HTTP_Status_410
 .rodata.HTTP_Status_411
                0x00026835       0x10 .pio/build/lptm4c1294ncpdt/src/NeonRTOS/HTTPd/HTTPd_def.o
                0x00026835                HTTP_Status_411
 .rodata.HTTP_Upgrade_LowerCase
                0x00026845        0x8 .pio/build/lptm4c1294ncpdt/src/NeonRTOS/HTTPd/HTTPd_def.o
                0x00026845                HTTP_Upgrade_LowerCase
 .rodata.HTTP_Status_413
                0x0002684d       0x19 .pio/build/lptm4c1294ncpdt/src/NeonRTOS/HTTPd/HTTPd_def.o
                0x0002684d                HTTP_Status_413
 .rodata.HTTP_Status_414
                0x00026866       0x17 .pio/build/lptm4c1294ncpdt/src/NeonRTOS/HTTPd/HTTPd_def.o
                0x00026866                HTTP_Status_414
 .rodata.HTTP_Keep_Alive
                0x0002687d        0xb .pio/build/lptm4c1294ncpdt/src/NeonRTOS/HTTPd/HTTPd_def.o
                0x0002687d                HTTP_Keep_Alive
 .rodata.HTTP_Status_416
                0x00026888       0x20 .pio/build/lptm4c1294ncpdt/src/NeonRTOS/HTTPd/HTTPd_def.o
                0x00026888                HTTP_Status_416
 .rodata.HTTP_Status_417
                0x000268a8       0x13 .pio/build/lptm4c1294ncpdt/src/NeonRTOS/HTTPd/HTTPd_def.o
                0x000268a8                HTTP_Status_417
 .rodata.HTTP_Version_1P0
                0x000268bb        0x9 .pio/build/lptm4c1294ncpdt/src/NeonRTOS/HTTPd/HTTPd_def.o
                0x000268bb                HTTP_Version_1P0
 .rodata.HTTP_Version_1P1
                0x000268c4        0x9 .pio/build/lptm4c1294ncpdt/src/NeonRTOS/HTTPd/HTTPd_def.o
                0x000268c4                HTTP_Version_1P1
 .rodata.HTTP_Status_100
                0x000268cd        0x9 .pio/build/lptm4c1294ncpdt/src/NeonRTOS/HTTPd/HTTPd_def.o
                0x000268cd                HTTP_Status_100
 .rodata.HTTP_Status_404
                0x000268d6        0xa .pio/build/lptm4c1294ncpdt/src/NeonRTOS/HTTPd/HTTPd_def.o
                0x000268d6                HTTP_Status_404
 .rodata.HTTP_Method_POST
                0x000268e0        0x5 .pio/build/lptm4c1294ncpdt/src/NeonRTOS/HTTPd/HTTPd_def.o
                0x000268e0                HTTP_Method_POST
 .rodata.HTTP_Status_451
                0x000268e5       0x1e .pio/build/lptm4c1294ncpdt/src/NeonRTOS/HTTPd/HTTPd_def.o
                0x000268e5                HTTP_Status_451
 .rodata.HTTP_Status_300
                0x00026903       0x11 .pio/build/lptm4c1294ncpdt/src/NeonRTOS/HTTPd/HTTPd_def.o
                0x00026903                HTTP_Status_300
 .rodata.HTTP_Connection
                0x00026914        0xb .pio/build/lptm4c1294ncpdt/src/NeonRTOS/HTTPd/HTTPd_def.o
                0x00026914                HTTP_Connection
 .rodata.HTTP_Status_412
                0x0002691f       0x14 .pio/build/lptm4c1294ncpdt/src/NeonRTOS/HTTPd/HTTPd_def.o
                0x0002691f                HTTP_Status_412
 .rodata.HTTP_Status_407
                0x00026933       0x1e .pio/build/lptm4c1294ncpdt/src/NeonRTOS/HTTPd/HTTPd_def.o
                0x00026933                HTTP_Status_407
 .rodata.HTTP_Status_304
                0x00026951        0xd .pio/build/lptm4c1294ncpdt/src/NeonRTOS/HTTPd/HTTPd_def.o
                0x00026951                HTTP_Status_304
 .rodata.HTTP_Status_408
                0x0002695e       0x10 .pio/build/lptm4c1294ncpdt/src/NeonRTOS/HTTPd/HTTPd_def.o
                0x0002695e                HTTP_Status_408
 .rodata.HTTP_Status_306
                0x0002696e        0xd .pio/build/lptm4c1294ncpdt/src/NeonRTOS/HTTPd/HTTPd_def.o
                0x0002696e                HTTP_Status_306
 .rodata.HTTP_Status_409
                0x0002697b        0x9 .pio/build/lptm4c1294ncpdt/src/NeonRTOS/HTTPd/HTTPd_def.o
                0x0002697b                HTTP_Status_409
 .rodata.HTTP_Status_415
                0x00026984       0x17 .pio/build/lptm4c1294ncpdt/src/NeonRTOS/HTTPd/HTTPd_def.o
                0x00026984                HTTP_Status_415
 .rodata.HTTP_Close_LowerCase
                0x0002699b        0x6 .pio/build/lptm4c1294ncpdt/src/NeonRTOS/HTTPd/HTTPd_def.o
                0x0002699b                HTTP_Close_LowerCase
 .rodata.HTTP_Status_401
                0x000269a1        0xd .pio/build/lptm4c1294ncpdt/src/NeonRTOS/HTTPd/HTTPd_def.o
                0x000269a1                HTTP_Status_401
 .rodata.HTTP_Status_449
                0x000269ae        0xb .pio/build/lptm4c1294ncpdt/src/NeonRTOS/HTTPd/HTTPd_def.o
                0x000269ae                HTTP_Status_449
 .rodata.HTTP_Keep_Alive_LowerCase
                0x000269b9        0xb .pio/build/lptm4c1294ncpdt/src/NeonRTOS/HTTPd/HTTPd_def.o
                0x000269b9                HTTP_Keep_Alive_LowerCase
 .rodata.HTTP_Status_418
                0x000269c4        0xd .pio/build/lptm4c1294ncpdt/src/NeonRTOS/HTTPd/HTTPd_def.o
                0x000269c4                HTTP_Status_418
 .rodata.HTTP_Status_425
                0x000269d1       0x15 .pio/build/lptm4c1294ncpdt/src/NeonRTOS/HTTPd/HTTPd_def.o
                0x000269d1                HTTP_Status_425
 .rodata.HTTP_Status_426
                0x000269e6       0x11 .pio/build/lptm4c1294ncpdt/src/NeonRTOS/HTTPd/HTTPd_def.o
                0x000269e6                HTTP_Status_426
 .rodata.HTTP_Status_303
                0x000269f7        0xa .pio/build/lptm4c1294ncpdt/src/NeonRTOS/HTTPd/HTTPd_def.o
                0x000269f7                HTTP_Status_303
 .rodata.HTTP_Status_101
                0x00026a01       0x14 .pio/build/lptm4c1294ncpdt/src/NeonRTOS/HTTPd/HTTPd_def.o
                0x00026a01                HTTP_Status_101
 .rodata.WebSocket_Version
                0x00026a15        0x3 .pio/build/lptm4c1294ncpdt/src/NeonRTOS/HTTPd/HTTPd_def.o
                0x00026a15                WebSocket_Version
 .rodata.HTTP_Status_202
                0x00026a18        0x9 .pio/build/lptm4c1294ncpdt/src/NeonRTOS/HTTPd/HTTPd_def.o
                0x00026a18                HTTP_Status_202
 .rodata.HTTP_Method_GET
                0x00026a21        0x4 .pio/build/lptm4c1294ncpdt/src/NeonRTOS/HTTPd/HTTPd_def.o
                0x00026a21                HTTP_Method_GET
 .rodata.HTTP_Authorization
                0x00026a25        0xe .pio/build/lptm4c1294ncpdt/src/NeonRTOS/HTTPd/HTTPd_def.o
                0x00026a25                HTTP_Authorization
 .rodata.HTTP_Status_510
                0x00026a33        0xd .pio/build/lptm4c1294ncpdt/src/NeonRTOS/HTTPd/HTTPd_def.o
                0x00026a33                HTTP_Status_510
 .rodata.mimeTypes
                0x00026a40       0x70 .pio/build/lptm4c1294ncpdt/src/NeonRTOS/HTTPd/HTTPd_def.o
                0x00026a40                mimeTypes
 .rodata.WebSocket_Version_Identifier
                0x00026ab0       0x16 .pio/build/lptm4c1294ncpdt/src/NeonRTOS/HTTPd/HTTPd_def.o
                0x00026ab0                WebSocket_Version_Identifier
 .rodata.HTTP_Status_206
                0x00026ac6       0x10 .pio/build/lptm4c1294ncpdt/src/NeonRTOS/HTTPd/HTTPd_def.o
                0x00026ac6                HTTP_Status_206
 .rodata.HTTP_Status_207
                0x00026ad6        0xf .pio/build/lptm4c1294ncpdt/src/NeonRTOS/HTTPd/HTTPd_def.o
                0x00026ad6                HTTP_Status_207
 .rodata.HTTP_Close
                0x00026ae5        0x6 .pio/build/lptm4c1294ncpdt/src/NeonRTOS/HTTPd/HTTPd_def.o
                0x00026ae5                HTTP_Close
 .rodata.HTTP_Server
                0x00026aeb        0x7 .pio/build/lptm4c1294ncpdt/src/NeonRTOS/HTTPd/HTTPd_def.o
                0x00026aeb                HTTP_Server
 .rodata.HTTP_Status_102
                0x00026af2        0xb .pio/build/lptm4c1294ncpdt/src/NeonRTOS/HTTPd/HTTPd_def.o
                0x00026af2                HTTP_Status_102
 .rodata.HTTP_Status_400
                0x00026afd        0xc .pio/build/lptm4c1294ncpdt/src/NeonRTOS/HTTPd/HTTPd_def.o
                0x00026afd                HTTP_Status_400
 .rodata.HTTP_Method_PUT
                0x00026b09        0x4 .pio/build/lptm4c1294ncpdt/src/NeonRTOS/HTTPd/HTTPd_def.o
                0x00026b09                HTTP_Method_PUT
 .rodata.HTTP_Status_402
                0x00026b0d       0x11 .pio/build/lptm4c1294ncpdt/src/NeonRTOS/HTTPd/HTTPd_def.o
                0x00026b0d                HTTP_Status_402
 .rodata.HTTP_Status_403
                0x00026b1e        0xa .pio/build/lptm4c1294ncpdt/src/NeonRTOS/HTTPd/HTTPd_def.o
                0x00026b1e                HTTP_Status_403
 .rodata.WebSocket_UUID
                0x00026b28       0x25 .pio/build/lptm4c1294ncpdt/src/NeonRTOS/HTTPd/HTTPd_def.o
                0x00026b28                WebSocket_UUID
 .rodata.HTTP_Accept_Encoding
                0x00026b4d       0x10 .pio/build/lptm4c1294ncpdt/src/NeonRTOS/HTTPd/HTTPd_def.o
                0x00026b4d                HTTP_Accept_Encoding
 .rodata.HTTP_Status_406
                0x00026b5d        0xf .pio/build/lptm4c1294ncpdt/src/NeonRTOS/HTTPd/HTTPd_def.o
                0x00026b5d                HTTP_Status_406
 .rodata.HTTP_Location
                0x00026b6c        0x9 .pio/build/lptm4c1294ncpdt/src/NeonRTOS/HTTPd/HTTPd_def.o
                0x00026b6c                HTTP_Location
 .rodata.HTTP_Status_421
                0x00026b75       0x3a .pio/build/lptm4c1294ncpdt/src/NeonRTOS/HTTPd/HTTPd_def.o
                0x00026b75                HTTP_Status_421
 .rodata.HTTP_Status_422
                0x00026baf       0x15 .pio/build/lptm4c1294ncpdt/src/NeonRTOS/HTTPd/HTTPd_def.o
                0x00026baf                HTTP_Status_422
 .rodata.HTTP_Status_423
                0x00026bc4        0x7 .pio/build/lptm4c1294ncpdt/src/NeonRTOS/HTTPd/HTTPd_def.o
                0x00026bc4                HTTP_Status_423
 .rodata.HTTP_Status_424
                0x00026bcb       0x12 .pio/build/lptm4c1294ncpdt/src/NeonRTOS/HTTPd/HTTPd_def.o
                0x00026bcb                HTTP_Status_424
 .rodata.WebSocket_Accept_Identifier
                0x00026bdd       0x15 .pio/build/lptm4c1294ncpdt/src/NeonRTOS/HTTPd/HTTPd_def.o
                0x00026bdd                WebSocket_Accept_Identifier
 .rodata.HTTP_Content_Encoding
                0x00026bf2       0x11 .pio/build/lptm4c1294ncpdt/src/NeonRTOS/HTTPd/HTTPd_def.o
                0x00026bf2                HTTP_Content_Encoding
 .rodata.HTTP_Access_Control_Allow_Origin
                0x00026c03       0x1c .pio/build/lptm4c1294ncpdt/src/NeonRTOS/HTTPd/HTTPd_def.o
                0x00026c03                HTTP_Access_Control_Allow_Origin
 .rodata.HTTP_Status_307
                0x00026c1f       0x13 .pio/build/lptm4c1294ncpdt/src/NeonRTOS/HTTPd/HTTPd_def.o
                0x00026c1f                HTTP_Status_307
 .rodata.HTTP_Host
                0x00026c32        0x5 .pio/build/lptm4c1294ncpdt/src/NeonRTOS/HTTPd/HTTPd_def.o
                0x00026c32                HTTP_Host
 .rodata.WebSocket_Identifier_Lower
                0x00026c37        0xa .pio/build/lptm4c1294ncpdt/src/NeonRTOS/HTTPd/HTTPd_def.o
                0x00026c37                WebSocket_Identifier_Lower
 .rodata.HTTP_Upgrade
                0x00026c41        0x8 .pio/build/lptm4c1294ncpdt/src/NeonRTOS/HTTPd/HTTPd_def.o
                0x00026c41                HTTP_Upgrade
 .rodata.HTTP_Content_Type
                0x00026c49        0xd .pio/build/lptm4c1294ncpdt/src/NeonRTOS/HTTPd/HTTPd_def.o
                0x00026c49                HTTP_Content_Type
 .rodata.WebSocket_Key_Identifier
                0x00026c56       0x12 .pio/build/lptm4c1294ncpdt/src/NeonRTOS/HTTPd/HTTPd_def.o
                0x00026c56                WebSocket_Key_Identifier
 .rodata.WebSocket_Identifier_Upper
                0x00026c68        0xa .pio/build/lptm4c1294ncpdt/src/NeonRTOS/HTTPd/HTTPd_def.o
                0x00026c68                WebSocket_Identifier_Upper
 .rodata.HTTP_Status_205
                0x00026c72        0xe .pio/build/lptm4c1294ncpdt/src/NeonRTOS/HTTPd/HTTPd_def.o
                0x00026c72                HTTP_Status_205
 .rodata.HTTP_Status_405
                0x00026c80       0x13 .pio/build/lptm4c1294ncpdt/src/NeonRTOS/HTTPd/HTTPd_def.o
                0x00026c80                HTTP_Status_405
 .rodata.HTTP_Content_Disposition
                0x00026c93       0x14 .pio/build/lptm4c1294ncpdt/src/NeonRTOS/HTTPd/HTTPd_def.o
                0x00026c93                HTTP_Content_Disposition
 .rodata.HTTP_Host_Name
                0x00026ca7       0x12 .pio/build/lptm4c1294ncpdt/src/NeonRTOS/HTTPd/HTTPd_def.o
                0x00026ca7                HTTP_Host_Name
 .rodata.HTTP_Status_200
                0x00026cb9        0x3 .pio/build/lptm4c1294ncpdt/src/NeonRTOS/HTTPd/HTTPd_def.o
                0x00026cb9                HTTP_Status_200
 .rodata.HTTP_Status_201
                0x00026cbc        0x8 .pio/build/lptm4c1294ncpdt/src/NeonRTOS/HTTPd/HTTPd_def.o
                0x00026cbc                HTTP_Status_201
 .rodata.HTTP_Status_301
                0x00026cc4       0x12 .pio/build/lptm4c1294ncpdt/src/NeonRTOS/HTTPd/HTTPd_def.o
                0x00026cc4                HTTP_Status_301
 .rodata.HTTP_Status_203
                0x00026cd6       0x20 .pio/build/lptm4c1294ncpdt/src/NeonRTOS/HTTPd/HTTPd_def.o
                0x00026cd6                HTTP_Status_203
 .rodata.HTTP_Status_302
                0x00026cf6        0x6 .pio/build/lptm4c1294ncpdt/src/NeonRTOS/HTTPd/HTTPd_def.o
                0x00026cf6                HTTP_Status_302
 .rodata.HTTP_Status_500
                0x00026cfc       0x16 .pio/build/lptm4c1294ncpdt/src/NeonRTOS/HTTPd/HTTPd_def.o
                0x00026cfc                HTTP_Status_500
 .rodata.HTTP_Status_501
                0x00026d12       0x10 .pio/build/lptm4c1294ncpdt/src/NeonRTOS/HTTPd/HTTPd_def.o
                0x00026d12                HTTP_Status_501
 .rodata.HTTP_Status_502
                0x00026d22        0xc .pio/build/lptm4c1294ncpdt/src/NeonRTOS/HTTPd/HTTPd_def.o
                0x00026d22                HTTP_Status_502
 .rodata.HTTP_Status_503
                0x00026d2e       0x14 .pio/build/lptm4c1294ncpdt/src/NeonRTOS/HTTPd/HTTPd_def.o
                0x00026d2e                HTTP_Status_503
 .rodata.HTTP_Status_504
                0x00026d42       0x10 .pio/build/lptm4c1294ncpdt/src/NeonRTOS/HTTPd/HTTPd_def.o
                0x00026d42                HTTP_Status_504
 .rodata.HTTP_Status_505
                0x00026d52       0x1b .pio/build/lptm4c1294ncpdt/src/NeonRTOS/HTTPd/HTTPd_def.o
                0x00026d52                HTTP_Status_505
 .rodata.HTTP_Status_506
                0x00026d6d       0x18 .pio/build/lptm4c1294ncpdt/src/NeonRTOS/HTTPd/HTTPd_def.o
                0x00026d6d                HTTP_Status_506
 .rodata.HTTP_Status_507
                0x00026d85       0x15 .pio/build/lptm4c1294ncpdt/src/NeonRTOS/HTTPd/HTTPd_def.o
                0x00026d85                HTTP_Status_507
 .rodata.HTTP_Status_509
                0x00026d9a       0x19 .pio/build/lptm4c1294ncpdt/src/NeonRTOS/HTTPd/HTTPd_def.o
                0x00026d9a                HTTP_Status_509
 .rodata.HTTP_Status_204
                0x00026db3        0xb .pio/build/lptm4c1294ncpdt/src/NeonRTOS/HTTPd/HTTPd_def.o
                0x00026db3                HTTP_Status_204
 .rodata.HTTP_Gzip
                0x00026dbe        0x5 .pio/build/lptm4c1294ncpdt/src/NeonRTOS/HTTPd/HTTPd_def.o
                0x00026dbe                HTTP_Gzip
 .rodata.str1.1
                0x00026dc3       0x84 .pio/build/lptm4c1294ncpdt/src/NeonRTOS/HTTPd/HTTPd_def.o
                                 0xc0 (size before relaxing)
 .rodata.HTTP_Content_Length
                0x00026e47        0xf .pio/build/lptm4c1294ncpdt/src/NeonRTOS/HTTPd/HTTPd_def.o
                0x00026e47                HTTP_Content_Length
 .rodata.HTTP_Status_305
                0x00026e56        0xa .pio/build/lptm4c1294ncpdt/src/NeonRTOS/HTTPd/HTTPd_def.o
                0x00026e56                HTTP_Status_305
 .rodata.HTTP_Upgrade_Increase_Request
                0x00026e60       0x1a .pio/build/lptm4c1294ncpdt/src/NeonRTOS/HTTPd/HTTPd_def.o
                0x00026e60                HTTP_Upgrade_Increase_Request
 .rodata.HTTP_Method_DELETE
                0x00026e7a        0x7 .pio/build/lptm4c1294ncpdt/src/NeonRTOS/HTTPd/HTTPd_def.o
                0x00026e7a                HTTP_Method_DELETE
 *fill*         0x00026e81        0x3 
 .rodata.neonrtfs_img_len
                0x00026e84        0x4 .pio/build/lptm4c1294ncpdt/src/NeonRTOS/HTTPd/neonrtfs_img.o
                0x00026e84                neonrtfs_img_len
 .rodata.neonrtfs_img
                0x00026e88    0x67308 .pio/build/lptm4c1294ncpdt/src/NeonRTOS/HTTPd/neonrtfs_img.o
                0x00026e88                neonrtfs_img
 .rodata.str1.1
                0x0008e190       0x8f .pio/build/lptm4c1294ncpdt/src/NeonRTOS/NeonAppInterface.o
                                 0xac (size before relaxing)
 .rodata.str1.1
                0x0008e21f        0x8 .pio/build/lptm4c1294ncpdt/src/NeonRTOS/NeonRTOS.o
 .rodata.str1.1
                0x0008e227       0x12 .pio/build/lptm4c1294ncpdt/src/NeonRTOS/NeonTCPIP.o
 .rodata.str1.1
                0x0008e239        0x5 .pio/build/lptm4c1294ncpdt/src/NeonRTOS/kernel/tasks.o
 .rodata.str1.1
                0x0008e23e        0xd .pio/build/lptm4c1294ncpdt/src/NeonRTOS/kernel/timers.o
 .rodata.netconn_reset
                0x0008e24b        0x1 .pio/build/lptm4c1294ncpdt/src/NeonRTOS/lwip/api/api_msg.o
 .rodata.netconn_aborted
                0x0008e24c        0x1 .pio/build/lptm4c1294ncpdt/src/NeonRTOS/lwip/api/api_msg.o
 *fill*         0x0008e24d        0x3 
 .rodata.CSWTCH.11
                0x0008e250        0xc .pio/build/lptm4c1294ncpdt/src/NeonRTOS/lwip/api/api_msg.o
 .rodata.netconn_closed
                0x0008e25c        0x1 .pio/build/lptm4c1294ncpdt/src/NeonRTOS/lwip/api/api_msg.o
 *fill*         0x0008e25d        0x3 
 .rodata.err_to_errno_table
                0x0008e260       0x44 .pio/build/lptm4c1294ncpdt/src/NeonRTOS/lwip/api/err.o
 .rodata.str1.1
                0x0008e2a4        0xd .pio/build/lptm4c1294ncpdt/src/NeonRTOS/lwip/api/tcpip.o
 *fill*         0x0008e2b1        0x3 
 .rodata.dns_mquery_v4group
                0x0008e2b4        0x4 .pio/build/lptm4c1294ncpdt/src/NeonRTOS/lwip/core/dns.o
                0x0008e2b4                dns_mquery_v4group
 .rodata.ip_addr_broadcast
                0x0008e2b8        0x4 .pio/build/lptm4c1294ncpdt/src/NeonRTOS/lwip/core/ipv4/ip4_addr.o
                0x0008e2b8                ip_addr_broadcast
 .rodata.ip_addr_any
                0x0008e2bc        0x4 .pio/build/lptm4c1294ncpdt/src/NeonRTOS/lwip/core/ipv4/ip4_addr.o
                0x0008e2bc                ip_addr_any
 .rodata.memp_REASSDATA
                0x0008e2c0        0xc .pio/build/lptm4c1294ncpdt/src/NeonRTOS/lwip/core/memp.o
                0x0008e2c0                memp_REASSDATA
 .rodata.memp_PBUF
                0x0008e2cc        0xc .pio/build/lptm4c1294ncpdt/src/NeonRTOS/lwip/core/memp.o
                0x0008e2cc                memp_PBUF
 .rodata.memp_TCP_PCB_LISTEN
                0x0008e2d8        0xc .pio/build/lptm4c1294ncpdt/src/NeonRTOS/lwip/core/memp.o
                0x0008e2d8                memp_TCP_PCB_LISTEN
 .rodata.memp_TCP_PCB
                0x0008e2e4        0xc .pio/build/lptm4c1294ncpdt/src/NeonRTOS/lwip/core/memp.o
                0x0008e2e4                memp_TCP_PCB
 .rodata.memp_NETDB
                0x0008e2f0        0xc .pio/build/lptm4c1294ncpdt/src/NeonRTOS/lwip/core/memp.o
                0x0008e2f0                memp_NETDB
 .rodata.memp_NETBUF
                0x0008e2fc        0xc .pio/build/lptm4c1294ncpdt/src/NeonRTOS/lwip/core/memp.o
                0x0008e2fc                memp_NETBUF
 .rodata.memp_UDP_PCB
                0x0008e308        0xc .pio/build/lptm4c1294ncpdt/src/NeonRTOS/lwip/core/memp.o
                0x0008e308                memp_UDP_PCB
 .rodata.memp_PBUF_POOL
                0x0008e314        0xc .pio/build/lptm4c1294ncpdt/src/NeonRTOS/lwip/core/memp.o
                0x0008e314                memp_PBUF_POOL
 .rodata.memp_pools
                0x0008e320       0x3c .pio/build/lptm4c1294ncpdt/src/NeonRTOS/lwip/core/memp.o
                0x0008e320                memp_pools
 .rodata.memp_TCP_SEG
                0x0008e35c        0xc .pio/build/lptm4c1294ncpdt/src/NeonRTOS/lwip/core/memp.o
                0x0008e35c                memp_TCP_SEG
 .rodata.memp_TCPIP_MSG_API
                0x0008e368        0xc .pio/build/lptm4c1294ncpdt/src/NeonRTOS/lwip/core/memp.o
                0x0008e368                memp_TCPIP_MSG_API
 .rodata.memp_NETCONN
                0x0008e374        0xc .pio/build/lptm4c1294ncpdt/src/NeonRTOS/lwip/core/memp.o
                0x0008e374                memp_NETCONN
 .rodata.memp_SYS_TIMEOUT
                0x0008e380        0xc .pio/build/lptm4c1294ncpdt/src/NeonRTOS/lwip/core/memp.o
                0x0008e380                memp_SYS_TIMEOUT
 .rodata.memp_FRAG_PBUF
                0x0008e38c        0xc .pio/build/lptm4c1294ncpdt/src/NeonRTOS/lwip/core/memp.o
                0x0008e38c                memp_FRAG_PBUF
 .rodata.memp_RAW_PCB
                0x0008e398        0xc .pio/build/lptm4c1294ncpdt/src/NeonRTOS/lwip/core/memp.o
                0x0008e398                memp_RAW_PCB
 .rodata.memp_TCPIP_MSG_INPKT
                0x0008e3a4        0xc .pio/build/lptm4c1294ncpdt/src/NeonRTOS/lwip/core/memp.o
                0x0008e3a4                memp_TCPIP_MSG_INPKT
 .rodata.tcp_state_str
                0x0008e3b0       0x2c .pio/build/lptm4c1294ncpdt/src/NeonRTOS/lwip/core/tcp.o
 .rodata.tcp_pcb_lists
                0x0008e3dc       0x10 .pio/build/lptm4c1294ncpdt/src/NeonRTOS/lwip/core/tcp.o
                0x0008e3dc                tcp_pcb_lists
 .rodata.tcp_backoff
                0x0008e3ec        0xd .pio/build/lptm4c1294ncpdt/src/NeonRTOS/lwip/core/tcp.o
 .rodata.str1.1
                0x0008e3f9       0x68 .pio/build/lptm4c1294ncpdt/src/NeonRTOS/lwip/core/tcp.o
 .rodata.tcp_persist_backoff
                0x0008e461        0x7 .pio/build/lptm4c1294ncpdt/src/NeonRTOS/lwip/core/tcp.o
 .rodata.lwip_cyclic_timers
                0x0008e468       0x20 .pio/build/lptm4c1294ncpdt/src/NeonRTOS/lwip/core/timeouts.o
                0x0008e468                lwip_cyclic_timers
 .rodata.lwip_num_cyclic_timers
                0x0008e488        0x4 .pio/build/lptm4c1294ncpdt/src/NeonRTOS/lwip/core/timeouts.o
                0x0008e488                lwip_num_cyclic_timers
 .rodata.ethbroadcast
                0x0008e48c        0x6 .pio/build/lptm4c1294ncpdt/src/NeonRTOS/lwip/netif/ethernet.o
                0x0008e48c                ethbroadcast
 .rodata.ethzero
                0x0008e492        0x6 .pio/build/lptm4c1294ncpdt/src/NeonRTOS/lwip/netif/ethernet.o
                0x0008e492                ethzero
 .rodata.str1.1
                0x0008e498       0x1a .pio/build/lptm4c1294ncpdt/src/main.o
 *fill*         0x0008e4b2        0x2 
 .rodata._ctype_
                0x0008e4b4      0x104 c:/users/user/.platformio/packages/toolchain-gccarmnoneeabi@1.40804.0/bin/../lib/gcc/arm-none-eabi/4.8.4/../../../../arm-none-eabi/lib/armv7e-m\libc.a(lib_a-ctype_.o)
                0x0008e4b4                _ctype_
 .rodata.zeroes.6763
                0x0008e5b8       0x10 c:/users/user/.platformio/packages/toolchain-gccarmnoneeabi@1.40804.0/bin/../lib/gcc/arm-none-eabi/4.8.4/../../../../arm-none-eabi/lib/armv7e-m\libc.a(lib_a-svfprintf.o)
 .rodata.str1.4
                0x0008e5c8       0x42 c:/users/user/.platformio/packages/toolchain-gccarmnoneeabi@1.40804.0/bin/../lib/gcc/arm-none-eabi/4.8.4/../../../../arm-none-eabi/lib/armv7e-m\libc.a(lib_a-svfprintf.o)
                                 0x44 (size before relaxing)
 *fill*         0x0008e60a        0x2 
 .rodata.blanks.6762
                0x0008e60c       0x10 c:/users/user/.platformio/packages/toolchain-gccarmnoneeabi@1.40804.0/bin/../lib/gcc/arm-none-eabi/4.8.4/../../../../arm-none-eabi/lib/armv7e-m\libc.a(lib_a-svfprintf.o)
 .rodata.str1.4
                0x0008e61c       0x10 c:/users/user/.platformio/packages/toolchain-gccarmnoneeabi@1.40804.0/bin/../lib/gcc/arm-none-eabi/4.8.4/../../../../arm-none-eabi/lib/armv7e-m\libc.a(lib_a-dtoa.o)
                                 0x14 (size before relaxing)
 .rodata.str1.4
                0x0008e62c        0x2 c:/users/user/.platformio/packages/toolchain-gccarmnoneeabi@1.40804.0/bin/../lib/gcc/arm-none-eabi/4.8.4/../../../../arm-none-eabi/lib/armv7e-m\libc.a(lib_a-impure.o)
                                  0x4 (size before relaxing)
 *fill*         0x0008e62e        0x2 
 .rodata._global_impure_ptr
                0x0008e630        0x4 c:/users/user/.platformio/packages/toolchain-gccarmnoneeabi@1.40804.0/bin/../lib/gcc/arm-none-eabi/4.8.4/../../../../arm-none-eabi/lib/armv7e-m\libc.a(lib_a-impure.o)
                0x0008e630                _global_impure_ptr
 .rodata.str1.4
                0x0008e634        0xa c:/users/user/.platformio/packages/toolchain-gccarmnoneeabi@1.40804.0/bin/../lib/gcc/arm-none-eabi/4.8.4/../../../../arm-none-eabi/lib/armv7e-m\libc.a(lib_a-locale.o)
                                 0x14 (size before relaxing)
 *fill*         0x0008e63e        0x2 
 .rodata.__mprec_tens
                0x0008e640       0xc8 c:/users/user/.platformio/packages/toolchain-gccarmnoneeabi@1.40804.0/bin/../lib/gcc/arm-none-eabi/4.8.4/../../../../arm-none-eabi/lib/armv7e-m\libc.a(lib_a-mprec.o)
                0x0008e640                __mprec_tens
 .rodata.__mprec_bigtens
                0x0008e708       0x28 c:/users/user/.platformio/packages/toolchain-gccarmnoneeabi@1.40804.0/bin/../lib/gcc/arm-none-eabi/4.8.4/../../../../arm-none-eabi/lib/armv7e-m\libc.a(lib_a-mprec.o)
                0x0008e708                __mprec_bigtens
 .rodata.__mprec_tinytens
                0x0008e730       0x28 c:/users/user/.platformio/packages/toolchain-gccarmnoneeabi@1.40804.0/bin/../lib/gcc/arm-none-eabi/4.8.4/../../../../arm-none-eabi/lib/armv7e-m\libc.a(lib_a-mprec.o)
                0x0008e730                __mprec_tinytens
 .rodata.p05.5269
                0x0008e758        0xc c:/users/user/.platformio/packages/toolchain-gccarmnoneeabi@1.40804.0/bin/../lib/gcc/arm-none-eabi/4.8.4/../../../../arm-none-eabi/lib/armv7e-m\libc.a(lib_a-mprec.o)
 .rodata.zeroes.6707
                0x0008e764       0x10 c:/users/user/.platformio/packages/toolchain-gccarmnoneeabi@1.40804.0/bin/../lib/gcc/arm-none-eabi/4.8.4/../../../../arm-none-eabi/lib/armv7e-m\libc.a(lib_a-svfiprintf.o)
 .rodata.str1.4
                0x00000000       0x30 c:/users/user/.platformio/packages/toolchain-gccarmnoneeabi@1.40804.0/bin/../lib/gcc/arm-none-eabi/4.8.4/../../../../arm-none-eabi/lib/armv7e-m\libc.a(lib_a-svfiprintf.o)
 .rodata.blanks.6706
                0x0008e774       0x10 c:/users/user/.platformio/packages/toolchain-gccarmnoneeabi@1.40804.0/bin/../lib/gcc/arm-none-eabi/4.8.4/../../../../arm-none-eabi/lib/armv7e-m\libc.a(lib_a-svfiprintf.o)
 .rodata.str1.4
                0x0008e784        0x4 c:/users/user/.platformio/packages/toolchain-gccarmnoneeabi@1.40804.0/bin/../lib/gcc/arm-none-eabi/4.8.4/../../../../arm-none-eabi/lib/armv7e-m\libm.a(lib_a-w_pow.o)
 .rodata.dp_h   0x0008e788       0x10 c:/users/user/.platformio/packages/toolchain-gccarmnoneeabi@1.40804.0/bin/../lib/gcc/arm-none-eabi/4.8.4/../../../../arm-none-eabi/lib/armv7e-m\libm.a(lib_a-e_pow.o)
 .rodata.dp_l   0x0008e798       0x10 c:/users/user/.platformio/packages/toolchain-gccarmnoneeabi@1.40804.0/bin/../lib/gcc/arm-none-eabi/4.8.4/../../../../arm-none-eabi/lib/armv7e-m\libm.a(lib_a-e_pow.o)
 .rodata.bp     0x0008e7a8       0x10 c:/users/user/.platformio/packages/toolchain-gccarmnoneeabi@1.40804.0/bin/../lib/gcc/arm-none-eabi/4.8.4/../../../../arm-none-eabi/lib/armv7e-m\libm.a(lib_a-e_pow.o)
 .rodata.str1.4
                0x00000000        0x4 c:/users/user/.platformio/packages/toolchain-gccarmnoneeabi@1.40804.0/bin/../lib/gcc/arm-none-eabi/4.8.4/../../../../arm-none-eabi/lib/armv7e-m\libm.a(lib_a-e_pow.o)
 .rodata.TWO52  0x0008e7b8       0x10 c:/users/user/.platformio/packages/toolchain-gccarmnoneeabi@1.40804.0/bin/../lib/gcc/arm-none-eabi/4.8.4/../../../../arm-none-eabi/lib/armv7e-m\libm.a(lib_a-s_rint.o)
 *(.init)
 *(.fini)
                0x0008e7c8                . = ALIGN (0x4)
 *(.ctors)
 *(.init_array*)
 *(.dtors)
 *(.fini_array*)
 *(.eh_frame*)

.glue_7         0x0008e7c8        0x0
 .glue_7        0x00000000        0x0 linker stubs

.glue_7t        0x0008e7c8        0x0
 .glue_7t       0x00000000        0x0 linker stubs

.vfp11_veneer   0x0008e7c8        0x0
 .vfp11_veneer  0x00000000        0x0 linker stubs

.v4_bx          0x0008e7c8        0x0
 .v4_bx         0x00000000        0x0 linker stubs

.iplt           0x0008e7c8        0x0
 .iplt          0x00000000        0x0 .pio/build/lptm4c1294ncpdt/src/APP/LED_PWM_API.o

.ARM.exidx      0x0008e7c8        0x8
                0x0008e7c8                __exidx_start = .
 *(.ARM.exidx* .gnu.linkonce.armexidx.*)
 .ARM.exidx     0x0008e7c8        0x8 c:/users/user/.platformio/packages/toolchain-gccarmnoneeabi@1.40804.0/bin/../lib/gcc/arm-none-eabi/4.8.4/armv7e-m\libgcc.a(_divdi3.o)
 .ARM.exidx     0x0008e7d0        0x0 c:/users/user/.platformio/packages/toolchain-gccarmnoneeabi@1.40804.0/bin/../lib/gcc/arm-none-eabi/4.8.4/armv7e-m\libgcc.a(_udivdi3.o)
                                  0x8 (size before relaxing)
                0x0008e7d0                __exidx_end = .
                0x0008e7d0                _etext = .

.rel.dyn        0x0008e7d0        0x0
 .rel.iplt      0x00000000        0x0 .pio/build/lptm4c1294ncpdt/src/APP/LED_PWM_API.o

.data           0x20000000      0x961 load address 0x0008e7d0
                0x20000000                _data = .
                0x0008e7d0                _ldata = LOADADDR (.data)
 *(vtable)
 vtable         0x20000000      0x400 .pio/build/lptm4c1294ncpdt/src/Drivers/soc/driverlib/interrupt.o
 *(.data .data.* .gnu.linkonce.d.*)
 .data          0x20000400        0x0 .pio/build/lptm4c1294ncpdt/src/APP/LED_PWM_API.o
 .data          0x20000400        0x0 .pio/build/lptm4c1294ncpdt/src/APP/LED_PWM_APP.o
 .data          0x20000400        0x0 .pio/build/lptm4c1294ncpdt/src/Drivers/W-Link/Driver/GPIO/GPIO_TM4C1294.o
 .data.gpio_current_irq_mode
                0x20000400       0x5a .pio/build/lptm4c1294ncpdt/src/Drivers/W-Link/Driver/GPIO/GPIO_TM4C1294.o
 .data          0x2000045a        0x0 .pio/build/lptm4c1294ncpdt/src/Drivers/W-Link/Driver/GPIO/Pin/GPIO_Pin_TM4C1294.o
 .data          0x2000045a        0x0 .pio/build/lptm4c1294ncpdt/src/Drivers/W-Link/Driver/PWM/PWM_TM4C1294.o
 .data          0x2000045a        0x0 .pio/build/lptm4c1294ncpdt/src/Drivers/W-Link/Driver/SysCtrl/SysCtrl_TM4C1294.o
 .data          0x2000045a        0x0 .pio/build/lptm4c1294ncpdt/src/Drivers/W-Link/Driver/UART/UART_TM4C1294.o
 .data          0x2000045a        0x0 .pio/build/lptm4c1294ncpdt/src/Drivers/W-Link/Misc/Base64.o
 .data          0x2000045a        0x0 .pio/build/lptm4c1294ncpdt/src/Drivers/W-Link/Misc/atoh.o
 .data          0x2000045a        0x0 .pio/build/lptm4c1294ncpdt/src/Drivers/W-Link/Misc/ftoa.o
 .data          0x2000045a        0x0 .pio/build/lptm4c1294ncpdt/src/Drivers/W-Link/Misc/htoa.o
 .data          0x2000045a        0x0 .pio/build/lptm4c1294ncpdt/src/Drivers/W-Link/Misc/itoa.o
 .data          0x2000045a        0x0 .pio/build/lptm4c1294ncpdt/src/Drivers/W-Link/Misc/sha1.o
 .data          0x2000045a        0x0 .pio/build/lptm4c1294ncpdt/src/Drivers/W-Link/cJSON/cJSON.o
 *fill*         0x2000045a        0x2 
 .data.cJSON_free
                0x2000045c        0x4 .pio/build/lptm4c1294ncpdt/src/Drivers/W-Link/cJSON/cJSON.o
 .data.cJSON_malloc
                0x20000460        0x4 .pio/build/lptm4c1294ncpdt/src/Drivers/W-Link/cJSON/cJSON.o
 .data          0x20000464        0x0 .pio/build/lptm4c1294ncpdt/src/Drivers/ethernetif/ethernetif_tm4c1294.o
 .data.g_RxDescList
                0x20000464       0x10 .pio/build/lptm4c1294ncpdt/src/Drivers/ethernetif/ethernetif_tm4c1294.o
                0x20000464                g_RxDescList
 .data.g_StellarisIFData
                0x20000474        0xc .pio/build/lptm4c1294ncpdt/src/Drivers/ethernetif/ethernetif_tm4c1294.o
 .data.g_TxDescList
                0x20000480       0x10 .pio/build/lptm4c1294ncpdt/src/Drivers/ethernetif/ethernetif_tm4c1294.o
                0x20000480                g_TxDescList
 .data.macaddress
                0x20000490        0x6 .pio/build/lptm4c1294ncpdt/src/Drivers/ethernetif/ethernetif_tm4c1294.o
 .data          0x20000496        0x0 .pio/build/lptm4c1294ncpdt/src/Drivers/soc/driverlib/adc.o
 .data          0x20000496        0x0 .pio/build/lptm4c1294ncpdt/src/Drivers/soc/driverlib/aes.o
 .data          0x20000496        0x0 .pio/build/lptm4c1294ncpdt/src/Drivers/soc/driverlib/can.o
 .data          0x20000496        0x0 .pio/build/lptm4c1294ncpdt/src/Drivers/soc/driverlib/comp.o
 .data          0x20000496        0x0 .pio/build/lptm4c1294ncpdt/src/Drivers/soc/driverlib/cpu.o
 .data          0x20000496        0x0 .pio/build/lptm4c1294ncpdt/src/Drivers/soc/driverlib/crc.o
 .data          0x20000496        0x0 .pio/build/lptm4c1294ncpdt/src/Drivers/soc/driverlib/des.o
 .data          0x20000496        0x0 .pio/build/lptm4c1294ncpdt/src/Drivers/soc/driverlib/eeprom.o
 .data          0x20000496        0x0 .pio/build/lptm4c1294ncpdt/src/Drivers/soc/driverlib/emac.o
 .data          0x20000496        0x0 .pio/build/lptm4c1294ncpdt/src/Drivers/soc/driverlib/epi.o
 .data          0x20000496        0x0 .pio/build/lptm4c1294ncpdt/src/Drivers/soc/driverlib/flash.o
 .data          0x20000496        0x0 .pio/build/lptm4c1294ncpdt/src/Drivers/soc/driverlib/fpu.o
 .data          0x20000496        0x0 .pio/build/lptm4c1294ncpdt/src/Drivers/soc/driverlib/gpio.o
 .data          0x20000496        0x0 .pio/build/lptm4c1294ncpdt/src/Drivers/soc/driverlib/hibernate.o
 .data          0x20000496        0x0 .pio/build/lptm4c1294ncpdt/src/Drivers/soc/driverlib/i2c.o
 .data          0x20000496        0x0 .pio/build/lptm4c1294ncpdt/src/Drivers/soc/driverlib/interrupt.o
 .data          0x20000496        0x0 .pio/build/lptm4c1294ncpdt/src/Drivers/soc/driverlib/lcd.o
 .data          0x20000496        0x0 .pio/build/lptm4c1294ncpdt/src/Drivers/soc/driverlib/mpu.o
 .data          0x20000496        0x0 .pio/build/lptm4c1294ncpdt/src/Drivers/soc/driverlib/onewire.o
 .data          0x20000496        0x0 .pio/build/lptm4c1294ncpdt/src/Drivers/soc/driverlib/pwm.o
 .data          0x20000496        0x0 .pio/build/lptm4c1294ncpdt/src/Drivers/soc/driverlib/qei.o
 .data          0x20000496        0x0 .pio/build/lptm4c1294ncpdt/src/Drivers/soc/driverlib/shamd5.o
 .data          0x20000496        0x0 .pio/build/lptm4c1294ncpdt/src/Drivers/soc/driverlib/ssi.o
 .data          0x20000496        0x0 .pio/build/lptm4c1294ncpdt/src/Drivers/soc/driverlib/sw_crc.o
 .data          0x20000496        0x0 .pio/build/lptm4c1294ncpdt/src/Drivers/soc/driverlib/sysctl.o
 .data          0x20000496        0x0 .pio/build/lptm4c1294ncpdt/src/Drivers/soc/driverlib/sysexc.o
 .data          0x20000496        0x0 .pio/build/lptm4c1294ncpdt/src/Drivers/soc/driverlib/systick.o
 .data          0x20000496        0x0 .pio/build/lptm4c1294ncpdt/src/Drivers/soc/driverlib/timer.o
 .data          0x20000496        0x0 .pio/build/lptm4c1294ncpdt/src/Drivers/soc/driverlib/uart.o
 .data          0x20000496        0x0 .pio/build/lptm4c1294ncpdt/src/Drivers/soc/driverlib/udma.o
 .data          0x20000496        0x0 .pio/build/lptm4c1294ncpdt/src/Drivers/soc/driverlib/usb.o
 .data          0x20000496        0x0 .pio/build/lptm4c1294ncpdt/src/Drivers/soc/driverlib/watchdog.o
 .data          0x20000496        0x0 .pio/build/lptm4c1294ncpdt/src/Drivers/soc/startup_gcc.o
 .data          0x20000496        0x0 .pio/build/lptm4c1294ncpdt/src/NeonRTOS/HTTPd/HTTPd.o
 *fill*         0x20000496        0x2 
 .data.HTTP_WebSocket_Server_Socket
                0x20000498        0x4 .pio/build/lptm4c1294ncpdt/src/NeonRTOS/HTTPd/HTTPd.o
                0x20000498                HTTP_WebSocket_Server_Socket
 .data          0x2000049c        0x0 .pio/build/lptm4c1294ncpdt/src/NeonRTOS/HTTPd/HTTPd_Utils.o
 .data          0x2000049c        0x0 .pio/build/lptm4c1294ncpdt/src/NeonRTOS/HTTPd/HTTPd_def.o
 .data          0x2000049c        0x0 .pio/build/lptm4c1294ncpdt/src/NeonRTOS/HTTPd/NeonRtFs.o
 .data          0x2000049c        0x0 .pio/build/lptm4c1294ncpdt/src/NeonRTOS/HTTPd/heatshrink_decoder.o
 .data          0x2000049c        0x0 .pio/build/lptm4c1294ncpdt/src/NeonRTOS/HTTPd/neonrtfs_img.o
 .data          0x2000049c        0x0 .pio/build/lptm4c1294ncpdt/src/NeonRTOS/NeonAppInterface.o
 .data          0x2000049c        0x0 .pio/build/lptm4c1294ncpdt/src/NeonRTOS/NeonRTOS.o
 .data          0x2000049c        0x0 .pio/build/lptm4c1294ncpdt/src/NeonRTOS/NeonTCPIP.o
 .data          0x2000049c        0x0 .pio/build/lptm4c1294ncpdt/src/NeonRTOS/kernel/croutine.o
 .data          0x2000049c        0x0 .pio/build/lptm4c1294ncpdt/src/NeonRTOS/kernel/event_groups.o
 .data          0x2000049c        0x0 .pio/build/lptm4c1294ncpdt/src/NeonRTOS/kernel/list.o
 .data          0x2000049c        0x0 .pio/build/lptm4c1294ncpdt/src/NeonRTOS/kernel/portable/GCC/ARM_CM4F/port.o
 .data.uxCriticalNesting
                0x2000049c        0x4 .pio/build/lptm4c1294ncpdt/src/NeonRTOS/kernel/portable/GCC/ARM_CM4F/port.o
 .data          0x200004a0        0x0 .pio/build/lptm4c1294ncpdt/src/NeonRTOS/kernel/portable/MemMang/heap_4.o
 .data          0x200004a0        0x0 .pio/build/lptm4c1294ncpdt/src/NeonRTOS/kernel/queue.o
 .data          0x200004a0        0x0 .pio/build/lptm4c1294ncpdt/src/NeonRTOS/kernel/stream_buffer.o
 .data          0x200004a0        0x0 .pio/build/lptm4c1294ncpdt/src/NeonRTOS/kernel/tasks.o
 .data.uxTopUsedPriority
                0x200004a0        0x4 .pio/build/lptm4c1294ncpdt/src/NeonRTOS/kernel/tasks.o
 .data          0x200004a4        0x0 .pio/build/lptm4c1294ncpdt/src/NeonRTOS/kernel/timers.o
 .data          0x200004a4        0x0 .pio/build/lptm4c1294ncpdt/src/NeonRTOS/lwip/api/api_lib.o
 .data          0x200004a4        0x0 .pio/build/lptm4c1294ncpdt/src/NeonRTOS/lwip/api/api_msg.o
 .data          0x200004a4        0x0 .pio/build/lptm4c1294ncpdt/src/NeonRTOS/lwip/api/err.o
 .data          0x200004a4        0x0 .pio/build/lptm4c1294ncpdt/src/NeonRTOS/lwip/api/if_api.o
 .data          0x200004a4        0x0 .pio/build/lptm4c1294ncpdt/src/NeonRTOS/lwip/api/netbuf.o
 .data          0x200004a4        0x0 .pio/build/lptm4c1294ncpdt/src/NeonRTOS/lwip/api/netdb.o
 .data          0x200004a4        0x0 .pio/build/lptm4c1294ncpdt/src/NeonRTOS/lwip/api/netifapi.o
 .data          0x200004a4        0x0 .pio/build/lptm4c1294ncpdt/src/NeonRTOS/lwip/api/sockets.o
 .data          0x200004a4        0x0 .pio/build/lptm4c1294ncpdt/src/NeonRTOS/lwip/api/tcpip.o
 .data          0x200004a4        0x0 .pio/build/lptm4c1294ncpdt/src/NeonRTOS/lwip/arch/sys_arch.o
 .data          0x200004a4        0x0 .pio/build/lptm4c1294ncpdt/src/NeonRTOS/lwip/core/altcp.o
 .data          0x200004a4        0x0 .pio/build/lptm4c1294ncpdt/src/NeonRTOS/lwip/core/altcp_alloc.o
 .data          0x200004a4        0x0 .pio/build/lptm4c1294ncpdt/src/NeonRTOS/lwip/core/altcp_tcp.o
 .data          0x200004a4        0x0 .pio/build/lptm4c1294ncpdt/src/NeonRTOS/lwip/core/def.o
 .data          0x200004a4        0x0 .pio/build/lptm4c1294ncpdt/src/NeonRTOS/lwip/core/dns.o
 .data          0x200004a4        0x0 .pio/build/lptm4c1294ncpdt/src/NeonRTOS/lwip/core/inet_chksum.o
 .data          0x200004a4        0x0 .pio/build/lptm4c1294ncpdt/src/NeonRTOS/lwip/core/init.o
 .data          0x200004a4        0x0 .pio/build/lptm4c1294ncpdt/src/NeonRTOS/lwip/core/ip.o
 .data          0x200004a4        0x0 .pio/build/lptm4c1294ncpdt/src/NeonRTOS/lwip/core/ipv4/acd.o
 .data          0x200004a4        0x0 .pio/build/lptm4c1294ncpdt/src/NeonRTOS/lwip/core/ipv4/autoip.o
 .data          0x200004a4        0x0 .pio/build/lptm4c1294ncpdt/src/NeonRTOS/lwip/core/ipv4/dhcp.o
 .data          0x200004a4        0x0 .pio/build/lptm4c1294ncpdt/src/NeonRTOS/lwip/core/ipv4/etharp.o
 .data          0x200004a4        0x0 .pio/build/lptm4c1294ncpdt/src/NeonRTOS/lwip/core/ipv4/icmp.o
 .data          0x200004a4        0x0 .pio/build/lptm4c1294ncpdt/src/NeonRTOS/lwip/core/ipv4/igmp.o
 .data          0x200004a4        0x0 .pio/build/lptm4c1294ncpdt/src/NeonRTOS/lwip/core/ipv4/ip4.o
 .data          0x200004a4        0x0 .pio/build/lptm4c1294ncpdt/src/NeonRTOS/lwip/core/ipv4/ip4_addr.o
 .data          0x200004a4        0x0 .pio/build/lptm4c1294ncpdt/src/NeonRTOS/lwip/core/ipv4/ip4_frag.o
 .data          0x200004a4        0x0 .pio/build/lptm4c1294ncpdt/src/NeonRTOS/lwip/core/ipv6/dhcp6.o
 .data          0x200004a4        0x0 .pio/build/lptm4c1294ncpdt/src/NeonRTOS/lwip/core/ipv6/ethip6.o
 .data          0x200004a4        0x0 .pio/build/lptm4c1294ncpdt/src/NeonRTOS/lwip/core/ipv6/icmp6.o
 .data          0x200004a4        0x0 .pio/build/lptm4c1294ncpdt/src/NeonRTOS/lwip/core/ipv6/inet6.o
 .data          0x200004a4        0x0 .pio/build/lptm4c1294ncpdt/src/NeonRTOS/lwip/core/ipv6/ip6.o
 .data          0x200004a4        0x0 .pio/build/lptm4c1294ncpdt/src/NeonRTOS/lwip/core/ipv6/ip6_addr.o
 .data          0x200004a4        0x0 .pio/build/lptm4c1294ncpdt/src/NeonRTOS/lwip/core/ipv6/ip6_frag.o
 .data          0x200004a4        0x0 .pio/build/lptm4c1294ncpdt/src/NeonRTOS/lwip/core/ipv6/mld6.o
 .data          0x200004a4        0x0 .pio/build/lptm4c1294ncpdt/src/NeonRTOS/lwip/core/ipv6/nd6.o
 .data          0x200004a4        0x0 .pio/build/lptm4c1294ncpdt/src/NeonRTOS/lwip/core/mem.o
 .data          0x200004a4        0x0 .pio/build/lptm4c1294ncpdt/src/NeonRTOS/lwip/core/memp.o
 .data          0x200004a4        0x0 .pio/build/lptm4c1294ncpdt/src/NeonRTOS/lwip/core/netif.o
 .data          0x200004a4        0x0 .pio/build/lptm4c1294ncpdt/src/NeonRTOS/lwip/core/pbuf.o
 .data          0x200004a4        0x0 .pio/build/lptm4c1294ncpdt/src/NeonRTOS/lwip/core/raw.o
 .data          0x200004a4        0x0 .pio/build/lptm4c1294ncpdt/src/NeonRTOS/lwip/core/stats.o
 .data          0x200004a4        0x0 .pio/build/lptm4c1294ncpdt/src/NeonRTOS/lwip/core/sys.o
 .data          0x200004a4        0x0 .pio/build/lptm4c1294ncpdt/src/NeonRTOS/lwip/core/tcp.o
 .data.tcp_port
                0x200004a4        0x2 .pio/build/lptm4c1294ncpdt/src/NeonRTOS/lwip/core/tcp.o
 *fill*         0x200004a6        0x2 
 .data.iss.6805
                0x200004a8        0x4 .pio/build/lptm4c1294ncpdt/src/NeonRTOS/lwip/core/tcp.o
 .data          0x200004ac        0x0 .pio/build/lptm4c1294ncpdt/src/NeonRTOS/lwip/core/tcp_in.o
 .data          0x200004ac        0x0 .pio/build/lptm4c1294ncpdt/src/NeonRTOS/lwip/core/tcp_out.o
 .data          0x200004ac        0x0 .pio/build/lptm4c1294ncpdt/src/NeonRTOS/lwip/core/timeouts.o
 .data          0x200004ac        0x0 .pio/build/lptm4c1294ncpdt/src/NeonRTOS/lwip/core/udp.o
 .data.udp_port
                0x200004ac        0x2 .pio/build/lptm4c1294ncpdt/src/NeonRTOS/lwip/core/udp.o
 .data          0x200004ae        0x0 .pio/build/lptm4c1294ncpdt/src/NeonRTOS/lwip/netif/bridgeif.o
 .data          0x200004ae        0x0 .pio/build/lptm4c1294ncpdt/src/NeonRTOS/lwip/netif/bridgeif_fdb.o
 .data          0x200004ae        0x0 .pio/build/lptm4c1294ncpdt/src/NeonRTOS/lwip/netif/ethernet.o
 .data          0x200004ae        0x0 .pio/build/lptm4c1294ncpdt/src/NeonRTOS/lwip/netif/lowpan6.o
 .data          0x200004ae        0x0 .pio/build/lptm4c1294ncpdt/src/NeonRTOS/lwip/netif/lowpan6_ble.o
 .data          0x200004ae        0x0 .pio/build/lptm4c1294ncpdt/src/NeonRTOS/lwip/netif/lowpan6_common.o
 .data          0x200004ae        0x0 .pio/build/lptm4c1294ncpdt/src/NeonRTOS/lwip/netif/ppp/auth.o
 .data          0x200004ae        0x0 .pio/build/lptm4c1294ncpdt/src/NeonRTOS/lwip/netif/ppp/ccp.o
 .data          0x200004ae        0x0 .pio/build/lptm4c1294ncpdt/src/NeonRTOS/lwip/netif/ppp/chap-md5.o
 .data          0x200004ae        0x0 .pio/build/lptm4c1294ncpdt/src/NeonRTOS/lwip/netif/ppp/chap-new.o
 .data          0x200004ae        0x0 .pio/build/lptm4c1294ncpdt/src/NeonRTOS/lwip/netif/ppp/chap_ms.o
 .data          0x200004ae        0x0 .pio/build/lptm4c1294ncpdt/src/NeonRTOS/lwip/netif/ppp/demand.o
 .data          0x200004ae        0x0 .pio/build/lptm4c1294ncpdt/src/NeonRTOS/lwip/netif/ppp/eap.o
 .data          0x200004ae        0x0 .pio/build/lptm4c1294ncpdt/src/NeonRTOS/lwip/netif/ppp/ecp.o
 .data          0x200004ae        0x0 .pio/build/lptm4c1294ncpdt/src/NeonRTOS/lwip/netif/ppp/eui64.o
 .data          0x200004ae        0x0 .pio/build/lptm4c1294ncpdt/src/NeonRTOS/lwip/netif/ppp/fsm.o
 .data          0x200004ae        0x0 .pio/build/lptm4c1294ncpdt/src/NeonRTOS/lwip/netif/ppp/ipcp.o
 .data          0x200004ae        0x0 .pio/build/lptm4c1294ncpdt/src/NeonRTOS/lwip/netif/ppp/ipv6cp.o
 .data          0x200004ae        0x0 .pio/build/lptm4c1294ncpdt/src/NeonRTOS/lwip/netif/ppp/lcp.o
 .data          0x200004ae        0x0 .pio/build/lptm4c1294ncpdt/src/NeonRTOS/lwip/netif/ppp/magic.o
 .data          0x200004ae        0x0 .pio/build/lptm4c1294ncpdt/src/NeonRTOS/lwip/netif/ppp/mppe.o
 .data          0x200004ae        0x0 .pio/build/lptm4c1294ncpdt/src/NeonRTOS/lwip/netif/ppp/multilink.o
 .data          0x200004ae        0x0 .pio/build/lptm4c1294ncpdt/src/NeonRTOS/lwip/netif/ppp/polarssl/arc4.o
 .data          0x200004ae        0x0 .pio/build/lptm4c1294ncpdt/src/NeonRTOS/lwip/netif/ppp/polarssl/des.o
 .data          0x200004ae        0x0 .pio/build/lptm4c1294ncpdt/src/NeonRTOS/lwip/netif/ppp/polarssl/md4.o
 .data          0x200004ae        0x0 .pio/build/lptm4c1294ncpdt/src/NeonRTOS/lwip/netif/ppp/polarssl/md5.o
 .data          0x200004ae        0x0 .pio/build/lptm4c1294ncpdt/src/NeonRTOS/lwip/netif/ppp/polarssl/sha1.o
 .data          0x200004ae        0x0 .pio/build/lptm4c1294ncpdt/src/NeonRTOS/lwip/netif/ppp/ppp.o
 .data          0x200004ae        0x0 .pio/build/lptm4c1294ncpdt/src/NeonRTOS/lwip/netif/ppp/pppapi.o
 .data          0x200004ae        0x0 .pio/build/lptm4c1294ncpdt/src/NeonRTOS/lwip/netif/ppp/pppcrypt.o
 .data          0x200004ae        0x0 .pio/build/lptm4c1294ncpdt/src/NeonRTOS/lwip/netif/ppp/pppoe.o
 .data          0x200004ae        0x0 .pio/build/lptm4c1294ncpdt/src/NeonRTOS/lwip/netif/ppp/pppol2tp.o
 .data          0x200004ae        0x0 .pio/build/lptm4c1294ncpdt/src/NeonRTOS/lwip/netif/ppp/pppos.o
 .data          0x200004ae        0x0 .pio/build/lptm4c1294ncpdt/src/NeonRTOS/lwip/netif/ppp/upap.o
 .data          0x200004ae        0x0 .pio/build/lptm4c1294ncpdt/src/NeonRTOS/lwip/netif/ppp/utils.o
 .data          0x200004ae        0x0 .pio/build/lptm4c1294ncpdt/src/NeonRTOS/lwip/netif/ppp/vj.o
 .data          0x200004ae        0x0 .pio/build/lptm4c1294ncpdt/src/NeonRTOS/lwip/netif/zepif.o
 .data          0x200004ae        0x0 .pio/build/lptm4c1294ncpdt/src/main.o
 .data          0x200004ae        0x0 .pio/build/lptm4c1294ncpdt/src/stub_sbrk.o
 .data          0x200004ae        0x0 .pio/build/lptm4c1294ncpdt/src/wrap_malloc.o
 .data          0x200004ae        0x0 c:/users/user/.platformio/packages/toolchain-gccarmnoneeabi@1.40804.0/bin/../lib/gcc/arm-none-eabi/4.8.4/../../../../arm-none-eabi/lib/armv7e-m\libc.a(lib_a-atoi.o)
 .data          0x200004ae        0x0 c:/users/user/.platformio/packages/toolchain-gccarmnoneeabi@1.40804.0/bin/../lib/gcc/arm-none-eabi/4.8.4/../../../../arm-none-eabi/lib/armv7e-m\libc.a(lib_a-ctype_.o)
 *fill*         0x200004ae        0x2 
 .data.__ctype_ptr__
                0x200004b0        0x4 c:/users/user/.platformio/packages/toolchain-gccarmnoneeabi@1.40804.0/bin/../lib/gcc/arm-none-eabi/4.8.4/../../../../arm-none-eabi/lib/armv7e-m\libc.a(lib_a-ctype_.o)
                0x200004b0                __ctype_ptr__
 .data          0x200004b4        0x0 c:/users/user/.platformio/packages/toolchain-gccarmnoneeabi@1.40804.0/bin/../lib/gcc/arm-none-eabi/4.8.4/../../../../arm-none-eabi/lib/armv7e-m\libc.a(lib_a-isspace.o)
 .data          0x200004b4        0x0 c:/users/user/.platformio/packages/toolchain-gccarmnoneeabi@1.40804.0/bin/../lib/gcc/arm-none-eabi/4.8.4/../../../../arm-none-eabi/lib/armv7e-m\libc.a(lib_a-memcmp.o)
 .data          0x200004b4        0x0 c:/users/user/.platformio/packages/toolchain-gccarmnoneeabi@1.40804.0/bin/../lib/gcc/arm-none-eabi/4.8.4/../../../../arm-none-eabi/lib/armv7e-m\libc.a(lib_a-memcpy.o)
 .data          0x200004b4        0x0 c:/users/user/.platformio/packages/toolchain-gccarmnoneeabi@1.40804.0/bin/../lib/gcc/arm-none-eabi/4.8.4/../../../../arm-none-eabi/lib/armv7e-m\libc.a(lib_a-memmove.o)
 .data          0x200004b4        0x0 c:/users/user/.platformio/packages/toolchain-gccarmnoneeabi@1.40804.0/bin/../lib/gcc/arm-none-eabi/4.8.4/../../../../arm-none-eabi/lib/armv7e-m\libc.a(lib_a-memset.o)
 .data          0x200004b4        0x0 c:/users/user/.platformio/packages/toolchain-gccarmnoneeabi@1.40804.0/bin/../lib/gcc/arm-none-eabi/4.8.4/../../../../arm-none-eabi/lib/armv7e-m\libc.a(lib_a-rand.o)
 .data          0x200004b4        0x0 c:/users/user/.platformio/packages/toolchain-gccarmnoneeabi@1.40804.0/bin/../lib/gcc/arm-none-eabi/4.8.4/../../../../arm-none-eabi/lib/armv7e-m\libc.a(lib_a-reent.o)
 .data          0x200004b4        0x0 c:/users/user/.platformio/packages/toolchain-gccarmnoneeabi@1.40804.0/bin/../lib/gcc/arm-none-eabi/4.8.4/../../../../arm-none-eabi/lib/armv7e-m\libc.a(lib_a-s_fpclassify.o)
 .data          0x200004b4        0x0 c:/users/user/.platformio/packages/toolchain-gccarmnoneeabi@1.40804.0/bin/../lib/gcc/arm-none-eabi/4.8.4/../../../../arm-none-eabi/lib/armv7e-m\libc.a(lib_a-snprintf.o)
 .data          0x200004b4        0x0 c:/users/user/.platformio/packages/toolchain-gccarmnoneeabi@1.40804.0/bin/../lib/gcc/arm-none-eabi/4.8.4/../../../../arm-none-eabi/lib/armv7e-m\libc.a(lib_a-sprintf.o)
 .data          0x200004b4        0x0 c:/users/user/.platformio/packages/toolchain-gccarmnoneeabi@1.40804.0/bin/../lib/gcc/arm-none-eabi/4.8.4/../../../../arm-none-eabi/lib/armv7e-m\libc.a(lib_a-strcat.o)
 .data          0x200004b4        0x0 c:/users/user/.platformio/packages/toolchain-gccarmnoneeabi@1.40804.0/bin/../lib/gcc/arm-none-eabi/4.8.4/../../../../arm-none-eabi/lib/armv7e-m\libc.a(lib_a-strchr.o)
 .data          0x200004b4        0x0 c:/users/user/.platformio/packages/toolchain-gccarmnoneeabi@1.40804.0/bin/../lib/gcc/arm-none-eabi/4.8.4/../../../../arm-none-eabi/lib/armv7e-m\libc.a(lib_a-strcmp.o)
 .data          0x200004b4        0x0 c:/users/user/.platformio/packages/toolchain-gccarmnoneeabi@1.40804.0/bin/../lib/gcc/arm-none-eabi/4.8.4/../../../../arm-none-eabi/lib/armv7e-m\libc.a(lib_a-strcpy.o)
 .data          0x200004b4        0x0 c:/users/user/.platformio/packages/toolchain-gccarmnoneeabi@1.40804.0/bin/../lib/gcc/arm-none-eabi/4.8.4/../../../../arm-none-eabi/lib/armv7e-m\libc.a(lib_a-strlen.o)
 .data          0x200004b4        0x0 c:/users/user/.platformio/packages/toolchain-gccarmnoneeabi@1.40804.0/bin/../lib/gcc/arm-none-eabi/4.8.4/../../../../arm-none-eabi/lib/armv7e-m\libc.a(lib_a-strncmp.o)
 .data          0x200004b4        0x0 c:/users/user/.platformio/packages/toolchain-gccarmnoneeabi@1.40804.0/bin/../lib/gcc/arm-none-eabi/4.8.4/../../../../arm-none-eabi/lib/armv7e-m\libc.a(lib_a-strncpy.o)
 .data          0x200004b4        0x0 c:/users/user/.platformio/packages/toolchain-gccarmnoneeabi@1.40804.0/bin/../lib/gcc/arm-none-eabi/4.8.4/../../../../arm-none-eabi/lib/armv7e-m\libc.a(lib_a-strstr.o)
 .data          0x200004b4        0x0 c:/users/user/.platformio/packages/toolchain-gccarmnoneeabi@1.40804.0/bin/../lib/gcc/arm-none-eabi/4.8.4/../../../../arm-none-eabi/lib/armv7e-m\libc.a(lib_a-strtol.o)
 .data          0x200004b4        0x0 c:/users/user/.platformio/packages/toolchain-gccarmnoneeabi@1.40804.0/bin/../lib/gcc/arm-none-eabi/4.8.4/../../../../arm-none-eabi/lib/armv7e-m\libc.a(lib_a-svfprintf.o)
 .data          0x200004b4        0x0 c:/users/user/.platformio/packages/toolchain-gccarmnoneeabi@1.40804.0/bin/../lib/gcc/arm-none-eabi/4.8.4/../../../../arm-none-eabi/lib/armv7e-m\libc.a(lib_a-vsnprintf.o)
 .data          0x200004b4        0x0 c:/users/user/.platformio/packages/toolchain-gccarmnoneeabi@1.40804.0/bin/../lib/gcc/arm-none-eabi/4.8.4/../../../../arm-none-eabi/lib/armv7e-m\libc.a(lib_a-dtoa.o)
 .data          0x200004b4        0x0 c:/users/user/.platformio/packages/toolchain-gccarmnoneeabi@1.40804.0/bin/../lib/gcc/arm-none-eabi/4.8.4/../../../../arm-none-eabi/lib/armv7e-m\libc.a(lib_a-impure.o)
 *fill*         0x200004b4        0x4 
 .data.impure_data
                0x200004b8      0x428 c:/users/user/.platformio/packages/toolchain-gccarmnoneeabi@1.40804.0/bin/../lib/gcc/arm-none-eabi/4.8.4/../../../../arm-none-eabi/lib/armv7e-m\libc.a(lib_a-impure.o)
 .data._impure_ptr
                0x200008e0        0x4 c:/users/user/.platformio/packages/toolchain-gccarmnoneeabi@1.40804.0/bin/../lib/gcc/arm-none-eabi/4.8.4/../../../../arm-none-eabi/lib/armv7e-m\libc.a(lib_a-impure.o)
                0x200008e0                _impure_ptr
 .data          0x200008e4        0x0 c:/users/user/.platformio/packages/toolchain-gccarmnoneeabi@1.40804.0/bin/../lib/gcc/arm-none-eabi/4.8.4/../../../../arm-none-eabi/lib/armv7e-m\libc.a(lib_a-locale.o)
 .data.lc_message_charset
                0x200008e4       0x20 c:/users/user/.platformio/packages/toolchain-gccarmnoneeabi@1.40804.0/bin/../lib/gcc/arm-none-eabi/4.8.4/../../../../arm-none-eabi/lib/armv7e-m\libc.a(lib_a-locale.o)
 .data.lconv    0x20000904       0x38 c:/users/user/.platformio/packages/toolchain-gccarmnoneeabi@1.40804.0/bin/../lib/gcc/arm-none-eabi/4.8.4/../../../../arm-none-eabi/lib/armv7e-m\libc.a(lib_a-locale.o)
 .data.lc_ctype_charset
                0x2000093c       0x20 c:/users/user/.platformio/packages/toolchain-gccarmnoneeabi@1.40804.0/bin/../lib/gcc/arm-none-eabi/4.8.4/../../../../arm-none-eabi/lib/armv7e-m\libc.a(lib_a-locale.o)
 .data.__mb_cur_max
                0x2000095c        0x4 c:/users/user/.platformio/packages/toolchain-gccarmnoneeabi@1.40804.0/bin/../lib/gcc/arm-none-eabi/4.8.4/../../../../arm-none-eabi/lib/armv7e-m\libc.a(lib_a-locale.o)
                0x2000095c                __mb_cur_max
 .data          0x20000960        0x0 c:/users/user/.platformio/packages/toolchain-gccarmnoneeabi@1.40804.0/bin/../lib/gcc/arm-none-eabi/4.8.4/../../../../arm-none-eabi/lib/armv7e-m\libc.a(lib_a-memchr-stub.o)
 .data          0x20000960        0x0 c:/users/user/.platformio/packages/toolchain-gccarmnoneeabi@1.40804.0/bin/../lib/gcc/arm-none-eabi/4.8.4/../../../../arm-none-eabi/lib/armv7e-m\libc.a(lib_a-mprec.o)
 .data          0x20000960        0x0 c:/users/user/.platformio/packages/toolchain-gccarmnoneeabi@1.40804.0/bin/../lib/gcc/arm-none-eabi/4.8.4/../../../../arm-none-eabi/lib/armv7e-m\libc.a(lib_a-svfiprintf.o)
 .data          0x20000960        0x0 c:/users/user/.platformio/packages/toolchain-gccarmnoneeabi@1.40804.0/bin/../lib/gcc/arm-none-eabi/4.8.4/armv7e-m\libgcc.a(_arm_addsubdf3.o)
 .data          0x20000960        0x0 c:/users/user/.platformio/packages/toolchain-gccarmnoneeabi@1.40804.0/bin/../lib/gcc/arm-none-eabi/4.8.4/armv7e-m\libgcc.a(_arm_muldivdf3.o)
 .data          0x20000960        0x0 c:/users/user/.platformio/packages/toolchain-gccarmnoneeabi@1.40804.0/bin/../lib/gcc/arm-none-eabi/4.8.4/armv7e-m\libgcc.a(_arm_cmpdf2.o)
 .data          0x20000960        0x0 c:/users/user/.platformio/packages/toolchain-gccarmnoneeabi@1.40804.0/bin/../lib/gcc/arm-none-eabi/4.8.4/armv7e-m\libgcc.a(_arm_fixdfsi.o)
 .data          0x20000960        0x0 c:/users/user/.platformio/packages/toolchain-gccarmnoneeabi@1.40804.0/bin/../lib/gcc/arm-none-eabi/4.8.4/armv7e-m\libgcc.a(_aeabi_uldivmod.o)
 .data          0x20000960        0x0 c:/users/user/.platformio/packages/toolchain-gccarmnoneeabi@1.40804.0/bin/../lib/gcc/arm-none-eabi/4.8.4/armv7e-m\libgcc.a(bpabi.o)
 .data          0x20000960        0x0 c:/users/user/.platformio/packages/toolchain-gccarmnoneeabi@1.40804.0/bin/../lib/gcc/arm-none-eabi/4.8.4/armv7e-m\libgcc.a(_dvmd_tls.o)
 .data          0x20000960        0x0 c:/users/user/.platformio/packages/toolchain-gccarmnoneeabi@1.40804.0/bin/../lib/gcc/arm-none-eabi/4.8.4/armv7e-m\libgcc.a(_divdi3.o)
 .data          0x20000960        0x0 c:/users/user/.platformio/packages/toolchain-gccarmnoneeabi@1.40804.0/bin/../lib/gcc/arm-none-eabi/4.8.4/armv7e-m\libgcc.a(_udivdi3.o)
 .data          0x20000960        0x0 c:/users/user/.platformio/packages/toolchain-gccarmnoneeabi@1.40804.0/bin/../lib/gcc/arm-none-eabi/4.8.4/../../../../arm-none-eabi/lib/armv7e-m\libm.a(lib_a-w_pow.o)
 .data          0x20000960        0x0 c:/users/user/.platformio/packages/toolchain-gccarmnoneeabi@1.40804.0/bin/../lib/gcc/arm-none-eabi/4.8.4/../../../../arm-none-eabi/lib/armv7e-m\libm.a(lib_a-e_pow.o)
 .data          0x20000960        0x0 c:/users/user/.platformio/packages/toolchain-gccarmnoneeabi@1.40804.0/bin/../lib/gcc/arm-none-eabi/4.8.4/../../../../arm-none-eabi/lib/armv7e-m\libm.a(lib_a-e_sqrt.o)
 .data          0x20000960        0x0 c:/users/user/.platformio/packages/toolchain-gccarmnoneeabi@1.40804.0/bin/../lib/gcc/arm-none-eabi/4.8.4/../../../../arm-none-eabi/lib/armv7e-m\libm.a(lib_a-s_fabs.o)
 .data          0x20000960        0x0 c:/users/user/.platformio/packages/toolchain-gccarmnoneeabi@1.40804.0/bin/../lib/gcc/arm-none-eabi/4.8.4/../../../../arm-none-eabi/lib/armv7e-m\libm.a(lib_a-s_finite.o)
 .data          0x20000960        0x0 c:/users/user/.platformio/packages/toolchain-gccarmnoneeabi@1.40804.0/bin/../lib/gcc/arm-none-eabi/4.8.4/../../../../arm-none-eabi/lib/armv7e-m\libm.a(lib_a-s_lib_ver.o)
 .data.__fdlib_version
                0x20000960        0x1 c:/users/user/.platformio/packages/toolchain-gccarmnoneeabi@1.40804.0/bin/../lib/gcc/arm-none-eabi/4.8.4/../../../../arm-none-eabi/lib/armv7e-m\libm.a(lib_a-s_lib_ver.o)
                0x20000960                __fdlib_version
 .data          0x20000961        0x0 c:/users/user/.platformio/packages/toolchain-gccarmnoneeabi@1.40804.0/bin/../lib/gcc/arm-none-eabi/4.8.4/../../../../arm-none-eabi/lib/armv7e-m\libm.a(lib_a-s_matherr.o)
 .data          0x20000961        0x0 c:/users/user/.platformio/packages/toolchain-gccarmnoneeabi@1.40804.0/bin/../lib/gcc/arm-none-eabi/4.8.4/../../../../arm-none-eabi/lib/armv7e-m\libm.a(lib_a-s_nan.o)
 .data          0x20000961        0x0 c:/users/user/.platformio/packages/toolchain-gccarmnoneeabi@1.40804.0/bin/../lib/gcc/arm-none-eabi/4.8.4/../../../../arm-none-eabi/lib/armv7e-m\libm.a(lib_a-s_rint.o)
 .data          0x20000961        0x0 c:/users/user/.platformio/packages/toolchain-gccarmnoneeabi@1.40804.0/bin/../lib/gcc/arm-none-eabi/4.8.4/../../../../arm-none-eabi/lib/armv7e-m\libm.a(lib_a-s_scalbn.o)
 .data          0x20000961        0x0 c:/users/user/.platformio/packages/toolchain-gccarmnoneeabi@1.40804.0/bin/../lib/gcc/arm-none-eabi/4.8.4/../../../../arm-none-eabi/lib/armv7e-m\libm.a(lib_a-s_copysign.o)
 .data          0x20000961        0x0 c:/users/user/.platformio/packages/toolchain-gccarmnoneeabi@1.40804.0/bin/../lib/gcc/arm-none-eabi/4.8.4/../../../../arm-none-eabi/lib/armv7e-m\libc.a(lib_a-errno.o)
                0x20000961                _edata = .

.igot.plt       0x20000964        0x0 load address 0x0008f134
 .igot.plt      0x00000000        0x0 .pio/build/lptm4c1294ncpdt/src/APP/LED_PWM_API.o

.bss            0x20000964    0x3f178 load address 0x0008f134
                0x20000964                _bss = .
 *(.bss .bss.* .gnu.linkonce.b.*)
 .bss           0x20000964        0x0 .pio/build/lptm4c1294ncpdt/src/APP/LED_PWM_API.o
 .bss           0x20000964        0x0 .pio/build/lptm4c1294ncpdt/src/APP/LED_PWM_APP.o
 .bss           0x20000964        0x0 .pio/build/lptm4c1294ncpdt/src/Drivers/W-Link/Driver/GPIO/GPIO_TM4C1294.o
 .bss.gpio_current_mode
                0x20000964       0x5a .pio/build/lptm4c1294ncpdt/src/Drivers/W-Link/Driver/GPIO/GPIO_TM4C1294.o
 .bss.gpio_pin_init_status
                0x200009be       0x5a .pio/build/lptm4c1294ncpdt/src/Drivers/W-Link/Driver/GPIO/GPIO_TM4C1294.o
 .bss.gpio_current_dir
                0x20000a18       0x5a .pio/build/lptm4c1294ncpdt/src/Drivers/W-Link/Driver/GPIO/GPIO_TM4C1294.o
 *fill*         0x20000a72        0x2 
 .bss.gpio_irq_handlers
                0x20000a74      0x168 .pio/build/lptm4c1294ncpdt/src/Drivers/W-Link/Driver/GPIO/GPIO_TM4C1294.o
 .bss           0x20000bdc        0x0 .pio/build/lptm4c1294ncpdt/src/Drivers/W-Link/Driver/GPIO/Pin/GPIO_Pin_TM4C1294.o
 .bss           0x20000bdc        0x0 .pio/build/lptm4c1294ncpdt/src/Drivers/W-Link/Driver/PWM/PWM_TM4C1294.o
 .bss.PWM_Channel_Inverse_Status
                0x20000bdc        0x8 .pio/build/lptm4c1294ncpdt/src/Drivers/W-Link/Driver/PWM/PWM_TM4C1294.o
 .bss.PWM_Channel_Init_Status
                0x20000be4        0x8 .pio/build/lptm4c1294ncpdt/src/Drivers/W-Link/Driver/PWM/PWM_TM4C1294.o
 .bss.PWM_Channel_OnOff_Status
                0x20000bec        0x8 .pio/build/lptm4c1294ncpdt/src/Drivers/W-Link/Driver/PWM/PWM_TM4C1294.o
 .bss.PWM_Channel_Current_Duty
                0x20000bf4       0x10 .pio/build/lptm4c1294ncpdt/src/Drivers/W-Link/Driver/PWM/PWM_TM4C1294.o
 .bss.PWM_Base_Init_Status
                0x20000c04        0x4 .pio/build/lptm4c1294ncpdt/src/Drivers/W-Link/Driver/PWM/PWM_TM4C1294.o
 .bss           0x20000c08        0x0 .pio/build/lptm4c1294ncpdt/src/Drivers/W-Link/Driver/SysCtrl/SysCtrl_TM4C1294.o
 .bss.g_ui32SysClock
                0x20000c08        0x4 .pio/build/lptm4c1294ncpdt/src/Drivers/W-Link/Driver/SysCtrl/SysCtrl_TM4C1294.o
                0x20000c08                g_ui32SysClock
 .bss           0x20000c0c        0x0 .pio/build/lptm4c1294ncpdt/src/Drivers/W-Link/Driver/UART/UART_TM4C1294.o
 .bss.UART_BaudRate
                0x20000c0c       0x20 .pio/build/lptm4c1294ncpdt/src/Drivers/W-Link/Driver/UART/UART_TM4C1294.o
 .bss           0x20000c2c        0x0 .pio/build/lptm4c1294ncpdt/src/Drivers/W-Link/Misc/Base64.o
 .bss           0x20000c2c        0x0 .pio/build/lptm4c1294ncpdt/src/Drivers/W-Link/Misc/atoh.o
 .bss           0x20000c2c        0x0 .pio/build/lptm4c1294ncpdt/src/Drivers/W-Link/Misc/ftoa.o
 .bss           0x20000c2c        0x0 .pio/build/lptm4c1294ncpdt/src/Drivers/W-Link/Misc/htoa.o
 .bss           0x20000c2c        0x0 .pio/build/lptm4c1294ncpdt/src/Drivers/W-Link/Misc/itoa.o
 .bss           0x20000c2c        0x0 .pio/build/lptm4c1294ncpdt/src/Drivers/W-Link/Misc/sha1.o
 .bss           0x20000c2c        0x0 .pio/build/lptm4c1294ncpdt/src/Drivers/W-Link/cJSON/cJSON.o
 .bss.ep        0x20000c2c        0x4 .pio/build/lptm4c1294ncpdt/src/Drivers/W-Link/cJSON/cJSON.o
 .bss           0x20000c30        0x0 .pio/build/lptm4c1294ncpdt/src/Drivers/ethernetif/ethernetif_tm4c1294.o
 .bss.pBuf.7693
                0x20000c30        0x4 .pio/build/lptm4c1294ncpdt/src/Drivers/ethernetif/ethernetif_tm4c1294.o
 .bss.pNetif    0x20000c34        0x4 .pio/build/lptm4c1294ncpdt/src/Drivers/ethernetif/ethernetif_tm4c1294.o
                0x20000c34                pNetif
 .bss           0x20000c38        0x0 .pio/build/lptm4c1294ncpdt/src/Drivers/soc/driverlib/adc.o
 .bss.g_pui8OversampleFactor
                0x20000c38        0x6 .pio/build/lptm4c1294ncpdt/src/Drivers/soc/driverlib/adc.o
 .bss           0x20000c3e        0x0 .pio/build/lptm4c1294ncpdt/src/Drivers/soc/driverlib/aes.o
 .bss           0x20000c3e        0x0 .pio/build/lptm4c1294ncpdt/src/Drivers/soc/driverlib/can.o
 .bss           0x20000c3e        0x0 .pio/build/lptm4c1294ncpdt/src/Drivers/soc/driverlib/comp.o
 .bss           0x20000c3e        0x0 .pio/build/lptm4c1294ncpdt/src/Drivers/soc/driverlib/cpu.o
 .bss           0x20000c3e        0x0 .pio/build/lptm4c1294ncpdt/src/Drivers/soc/driverlib/crc.o
 .bss           0x20000c3e        0x0 .pio/build/lptm4c1294ncpdt/src/Drivers/soc/driverlib/des.o
 .bss           0x20000c3e        0x0 .pio/build/lptm4c1294ncpdt/src/Drivers/soc/driverlib/eeprom.o
 .bss           0x20000c3e        0x0 .pio/build/lptm4c1294ncpdt/src/Drivers/soc/driverlib/emac.o
 .bss           0x20000c3e        0x0 .pio/build/lptm4c1294ncpdt/src/Drivers/soc/driverlib/epi.o
 .bss           0x20000c3e        0x0 .pio/build/lptm4c1294ncpdt/src/Drivers/soc/driverlib/flash.o
 .bss           0x20000c3e        0x0 .pio/build/lptm4c1294ncpdt/src/Drivers/soc/driverlib/fpu.o
 .bss           0x20000c3e        0x0 .pio/build/lptm4c1294ncpdt/src/Drivers/soc/driverlib/gpio.o
 .bss           0x20000c3e        0x0 .pio/build/lptm4c1294ncpdt/src/Drivers/soc/driverlib/hibernate.o
 .bss           0x20000c3e        0x0 .pio/build/lptm4c1294ncpdt/src/Drivers/soc/driverlib/i2c.o
 .bss           0x20000c3e        0x0 .pio/build/lptm4c1294ncpdt/src/Drivers/soc/driverlib/interrupt.o
 .bss           0x20000c3e        0x0 .pio/build/lptm4c1294ncpdt/src/Drivers/soc/driverlib/lcd.o
 .bss           0x20000c3e        0x0 .pio/build/lptm4c1294ncpdt/src/Drivers/soc/driverlib/mpu.o
 .bss           0x20000c3e        0x0 .pio/build/lptm4c1294ncpdt/src/Drivers/soc/driverlib/onewire.o
 .bss           0x20000c3e        0x0 .pio/build/lptm4c1294ncpdt/src/Drivers/soc/driverlib/pwm.o
 .bss           0x20000c3e        0x0 .pio/build/lptm4c1294ncpdt/src/Drivers/soc/driverlib/qei.o
 .bss           0x20000c3e        0x0 .pio/build/lptm4c1294ncpdt/src/Drivers/soc/driverlib/shamd5.o
 .bss           0x20000c3e        0x0 .pio/build/lptm4c1294ncpdt/src/Drivers/soc/driverlib/ssi.o
 .bss           0x20000c3e        0x0 .pio/build/lptm4c1294ncpdt/src/Drivers/soc/driverlib/sw_crc.o
 .bss           0x20000c3e        0x0 .pio/build/lptm4c1294ncpdt/src/Drivers/soc/driverlib/sysctl.o
 .bss           0x20000c3e        0x0 .pio/build/lptm4c1294ncpdt/src/Drivers/soc/driverlib/sysexc.o
 .bss           0x20000c3e        0x0 .pio/build/lptm4c1294ncpdt/src/Drivers/soc/driverlib/systick.o
 .bss           0x20000c3e        0x0 .pio/build/lptm4c1294ncpdt/src/Drivers/soc/driverlib/timer.o
 .bss           0x20000c3e        0x0 .pio/build/lptm4c1294ncpdt/src/Drivers/soc/driverlib/uart.o
 .bss           0x20000c3e        0x0 .pio/build/lptm4c1294ncpdt/src/Drivers/soc/driverlib/udma.o
 .bss           0x20000c3e        0x0 .pio/build/lptm4c1294ncpdt/src/Drivers/soc/driverlib/usb.o
 .bss           0x20000c3e        0x0 .pio/build/lptm4c1294ncpdt/src/Drivers/soc/driverlib/watchdog.o
 .bss           0x20000c3e        0x0 .pio/build/lptm4c1294ncpdt/src/Drivers/soc/startup_gcc.o
 *fill*         0x20000c3e        0x2 
 .bss.pui32Stack
                0x20000c40      0x200 .pio/build/lptm4c1294ncpdt/src/Drivers/soc/startup_gcc.o
 .bss           0x20000e40        0x0 .pio/build/lptm4c1294ncpdt/src/NeonRTOS/HTTPd/HTTPd.o
 .bss.wsServerOnMessageCallback
                0x20000e40        0x4 .pio/build/lptm4c1294ncpdt/src/NeonRTOS/HTTPd/HTTPd.o
 .bss.Registered_URL_List
                0x20000e44        0x4 .pio/build/lptm4c1294ncpdt/src/NeonRTOS/HTTPd/HTTPd.o
                0x20000e44                Registered_URL_List
 .bss           0x20000e48        0x0 .pio/build/lptm4c1294ncpdt/src/NeonRTOS/HTTPd/HTTPd_Utils.o
 .bss           0x20000e48        0x0 .pio/build/lptm4c1294ncpdt/src/NeonRTOS/HTTPd/HTTPd_def.o
 .bss           0x20000e48        0x0 .pio/build/lptm4c1294ncpdt/src/NeonRTOS/HTTPd/NeonRtFs.o
 .bss.Flash_Access_MutexHandle
                0x20000e48        0x4 .pio/build/lptm4c1294ncpdt/src/NeonRTOS/HTTPd/NeonRtFs.o
                0x20000e48                Flash_Access_MutexHandle
 .bss.NeonRtFsData_StartAddr
                0x20000e4c        0x4 .pio/build/lptm4c1294ncpdt/src/NeonRTOS/HTTPd/NeonRtFs.o
                0x20000e4c                NeonRtFsData_StartAddr
 .bss.NeonRtFsInitDone
                0x20000e50        0x1 .pio/build/lptm4c1294ncpdt/src/NeonRTOS/HTTPd/NeonRtFs.o
                0x20000e50                NeonRtFsInitDone
 .bss           0x20000e51        0x0 .pio/build/lptm4c1294ncpdt/src/NeonRTOS/HTTPd/heatshrink_decoder.o
 .bss           0x20000e51        0x0 .pio/build/lptm4c1294ncpdt/src/NeonRTOS/HTTPd/neonrtfs_img.o
 .bss           0x20000e51        0x0 .pio/build/lptm4c1294ncpdt/src/NeonRTOS/NeonAppInterface.o
 *fill*         0x20000e51        0x3 
 .bss.app_if_callback_inf_lst
                0x20000e54        0x4 .pio/build/lptm4c1294ncpdt/src/NeonRTOS/NeonAppInterface.o
                0x20000e54                app_if_callback_inf_lst
 .bss           0x20000e58        0x0 .pio/build/lptm4c1294ncpdt/src/NeonRTOS/NeonRTOS.o
 .bss.xHigherPriorityTaskWoken
                0x20000e58        0x4 .pio/build/lptm4c1294ncpdt/src/NeonRTOS/NeonRTOS.o
 .bss           0x20000e5c        0x0 .pio/build/lptm4c1294ncpdt/src/NeonRTOS/NeonTCPIP.o
 .bss.gconfig   0x20000e5c        0xc .pio/build/lptm4c1294ncpdt/src/NeonRTOS/NeonTCPIP.o
 .bss.DHCP_state
                0x20000e68        0x1 .pio/build/lptm4c1294ncpdt/src/NeonRTOS/NeonTCPIP.o
                0x20000e68                DHCP_state
 *fill*         0x20000e69        0x3 
 .bss.gEhtLinkTickStart
                0x20000e6c        0x4 .pio/build/lptm4c1294ncpdt/src/NeonRTOS/NeonTCPIP.o
 .bss.hardware_mac
                0x20000e70        0x6 .pio/build/lptm4c1294ncpdt/src/NeonRTOS/NeonTCPIP.o
 .bss.DHCP_lease_state
                0x20000e76        0x1 .pio/build/lptm4c1294ncpdt/src/NeonRTOS/NeonTCPIP.o
                0x20000e76                DHCP_lease_state
 .bss           0x20000e77        0x0 .pio/build/lptm4c1294ncpdt/src/NeonRTOS/kernel/croutine.o
 *fill*         0x20000e77        0x1 
 .bss.xDelayedCoRoutineList1
                0x20000e78       0x14 .pio/build/lptm4c1294ncpdt/src/NeonRTOS/kernel/croutine.o
 .bss.xPassedTicks
                0x20000e8c        0x4 .pio/build/lptm4c1294ncpdt/src/NeonRTOS/kernel/croutine.o
 .bss.xPendingReadyCoRoutineList
                0x20000e90       0x14 .pio/build/lptm4c1294ncpdt/src/NeonRTOS/kernel/croutine.o
 .bss.pxCurrentCoRoutine
                0x20000ea4        0x4 .pio/build/lptm4c1294ncpdt/src/NeonRTOS/kernel/croutine.o
                0x20000ea4                pxCurrentCoRoutine
 .bss.xDelayedCoRoutineList2
                0x20000ea8       0x14 .pio/build/lptm4c1294ncpdt/src/NeonRTOS/kernel/croutine.o
 .bss.xCoRoutineTickCount
                0x20000ebc        0x4 .pio/build/lptm4c1294ncpdt/src/NeonRTOS/kernel/croutine.o
 .bss.xLastTickCount
                0x20000ec0        0x4 .pio/build/lptm4c1294ncpdt/src/NeonRTOS/kernel/croutine.o
 .bss.pxDelayedCoRoutineList
                0x20000ec4        0x4 .pio/build/lptm4c1294ncpdt/src/NeonRTOS/kernel/croutine.o
 .bss.pxReadyCoRoutineLists
                0x20000ec8       0x28 .pio/build/lptm4c1294ncpdt/src/NeonRTOS/kernel/croutine.o
 .bss.uxTopCoRoutineReadyPriority
                0x20000ef0        0x4 .pio/build/lptm4c1294ncpdt/src/NeonRTOS/kernel/croutine.o
 .bss.pxOverflowDelayedCoRoutineList
                0x20000ef4        0x4 .pio/build/lptm4c1294ncpdt/src/NeonRTOS/kernel/croutine.o
 .bss           0x20000ef8        0x0 .pio/build/lptm4c1294ncpdt/src/NeonRTOS/kernel/event_groups.o
 .bss           0x20000ef8        0x0 .pio/build/lptm4c1294ncpdt/src/NeonRTOS/kernel/list.o
 .bss           0x20000ef8        0x0 .pio/build/lptm4c1294ncpdt/src/NeonRTOS/kernel/portable/GCC/ARM_CM4F/port.o
 .bss.ucMaxSysCallPriority
                0x20000ef8        0x1 .pio/build/lptm4c1294ncpdt/src/NeonRTOS/kernel/portable/GCC/ARM_CM4F/port.o
 *fill*         0x20000ef9        0x3 
 .bss.ulMaxPRIGROUPValue
                0x20000efc        0x4 .pio/build/lptm4c1294ncpdt/src/NeonRTOS/kernel/portable/GCC/ARM_CM4F/port.o
 .bss           0x20000f00        0x0 .pio/build/lptm4c1294ncpdt/src/NeonRTOS/kernel/portable/MemMang/heap_4.o
 .bss.xNumberOfSuccessfulAllocations
                0x20000f00        0x4 .pio/build/lptm4c1294ncpdt/src/NeonRTOS/kernel/portable/MemMang/heap_4.o
 .bss.xFreeBytesRemaining
                0x20000f04        0x4 .pio/build/lptm4c1294ncpdt/src/NeonRTOS/kernel/portable/MemMang/heap_4.o
 .bss.pxEnd     0x20000f08        0x4 .pio/build/lptm4c1294ncpdt/src/NeonRTOS/kernel/portable/MemMang/heap_4.o
 .bss.xStart    0x20000f0c        0x8 .pio/build/lptm4c1294ncpdt/src/NeonRTOS/kernel/portable/MemMang/heap_4.o
 .bss.xNumberOfSuccessfulFrees
                0x20000f14        0x4 .pio/build/lptm4c1294ncpdt/src/NeonRTOS/kernel/portable/MemMang/heap_4.o
 .bss.ucHeap    0x20000f18    0x19000 .pio/build/lptm4c1294ncpdt/src/NeonRTOS/kernel/portable/MemMang/heap_4.o
 .bss.xMinimumEverFreeBytesRemaining
                0x20019f18        0x4 .pio/build/lptm4c1294ncpdt/src/NeonRTOS/kernel/portable/MemMang/heap_4.o
 .bss           0x20019f1c        0x0 .pio/build/lptm4c1294ncpdt/src/NeonRTOS/kernel/queue.o
 .bss           0x20019f1c        0x0 .pio/build/lptm4c1294ncpdt/src/NeonRTOS/kernel/stream_buffer.o
 .bss           0x20019f1c        0x0 .pio/build/lptm4c1294ncpdt/src/NeonRTOS/kernel/tasks.o
 .bss.xNumOfOverflows
                0x20019f1c        0x4 .pio/build/lptm4c1294ncpdt/src/NeonRTOS/kernel/tasks.o
 .bss.pxDelayedTaskList
                0x20019f20        0x4 .pio/build/lptm4c1294ncpdt/src/NeonRTOS/kernel/tasks.o
 .bss.xSchedulerRunning
                0x20019f24        0x4 .pio/build/lptm4c1294ncpdt/src/NeonRTOS/kernel/tasks.o
 .bss.xTasksWaitingTermination
                0x20019f28       0x14 .pio/build/lptm4c1294ncpdt/src/NeonRTOS/kernel/tasks.o
 .bss.xIdleTaskHandles
                0x20019f3c        0x4 .pio/build/lptm4c1294ncpdt/src/NeonRTOS/kernel/tasks.o
 .bss.xDelayedTaskList2
                0x20019f40       0x14 .pio/build/lptm4c1294ncpdt/src/NeonRTOS/kernel/tasks.o
 .bss.xYieldPendings
                0x20019f54        0x4 .pio/build/lptm4c1294ncpdt/src/NeonRTOS/kernel/tasks.o
 .bss.xPendedTicks
                0x20019f58        0x4 .pio/build/lptm4c1294ncpdt/src/NeonRTOS/kernel/tasks.o
 .bss.pxReadyTasksLists
                0x20019f5c       0x8c .pio/build/lptm4c1294ncpdt/src/NeonRTOS/kernel/tasks.o
 .bss.uxSchedulerSuspended
                0x20019fe8        0x4 .pio/build/lptm4c1294ncpdt/src/NeonRTOS/kernel/tasks.o
 .bss.pxCurrentTCB
                0x20019fec        0x4 .pio/build/lptm4c1294ncpdt/src/NeonRTOS/kernel/tasks.o
                0x20019fec                pxCurrentTCB
 .bss.xNextTaskUnblockTime
                0x20019ff0        0x4 .pio/build/lptm4c1294ncpdt/src/NeonRTOS/kernel/tasks.o
 .bss.xDelayedTaskList1
                0x20019ff4       0x14 .pio/build/lptm4c1294ncpdt/src/NeonRTOS/kernel/tasks.o
 .bss.xTickCount
                0x2001a008        0x4 .pio/build/lptm4c1294ncpdt/src/NeonRTOS/kernel/tasks.o
 .bss.pxOverflowDelayedTaskList
                0x2001a00c        0x4 .pio/build/lptm4c1294ncpdt/src/NeonRTOS/kernel/tasks.o
 .bss.xPendingReadyList
                0x2001a010       0x14 .pio/build/lptm4c1294ncpdt/src/NeonRTOS/kernel/tasks.o
 .bss.uxTaskNumber
                0x2001a024        0x4 .pio/build/lptm4c1294ncpdt/src/NeonRTOS/kernel/tasks.o
 .bss.uxCurrentNumberOfTasks
                0x2001a028        0x4 .pio/build/lptm4c1294ncpdt/src/NeonRTOS/kernel/tasks.o
 .bss.uxDeletedTasksWaitingCleanUp
                0x2001a02c        0x4 .pio/build/lptm4c1294ncpdt/src/NeonRTOS/kernel/tasks.o
 .bss.xSuspendedTaskList
                0x2001a030       0x14 .pio/build/lptm4c1294ncpdt/src/NeonRTOS/kernel/tasks.o
 .bss.uxTopReadyPriority
                0x2001a044        0x4 .pio/build/lptm4c1294ncpdt/src/NeonRTOS/kernel/tasks.o
 .bss           0x2001a048        0x0 .pio/build/lptm4c1294ncpdt/src/NeonRTOS/kernel/timers.o
 .bss.pxCurrentTimerList
                0x2001a048        0x4 .pio/build/lptm4c1294ncpdt/src/NeonRTOS/kernel/timers.o
 .bss.xLastTime.5388
                0x2001a04c        0x4 .pio/build/lptm4c1294ncpdt/src/NeonRTOS/kernel/timers.o
 .bss.xActiveTimerList1
                0x2001a050       0x14 .pio/build/lptm4c1294ncpdt/src/NeonRTOS/kernel/timers.o
 .bss.xActiveTimerList2
                0x2001a064       0x14 .pio/build/lptm4c1294ncpdt/src/NeonRTOS/kernel/timers.o
 .bss.xTimerQueue
                0x2001a078        0x4 .pio/build/lptm4c1294ncpdt/src/NeonRTOS/kernel/timers.o
 .bss.pxOverflowTimerList
                0x2001a07c        0x4 .pio/build/lptm4c1294ncpdt/src/NeonRTOS/kernel/timers.o
 .bss.xTimerTaskHandle
                0x2001a080        0x4 .pio/build/lptm4c1294ncpdt/src/NeonRTOS/kernel/timers.o
 .bss           0x2001a084        0x0 .pio/build/lptm4c1294ncpdt/src/NeonRTOS/lwip/api/api_lib.o
 .bss           0x2001a084        0x0 .pio/build/lptm4c1294ncpdt/src/NeonRTOS/lwip/api/api_msg.o
 .bss           0x2001a084        0x0 .pio/build/lptm4c1294ncpdt/src/NeonRTOS/lwip/api/err.o
 .bss           0x2001a084        0x0 .pio/build/lptm4c1294ncpdt/src/NeonRTOS/lwip/api/if_api.o
 .bss           0x2001a084        0x0 .pio/build/lptm4c1294ncpdt/src/NeonRTOS/lwip/api/netbuf.o
 .bss           0x2001a084        0x0 .pio/build/lptm4c1294ncpdt/src/NeonRTOS/lwip/api/netdb.o
 .bss.s_hostent_addr.7019
                0x2001a084        0x4 .pio/build/lptm4c1294ncpdt/src/NeonRTOS/lwip/api/netdb.o
 .bss.s_phostent_addr.7020
                0x2001a088        0x8 .pio/build/lptm4c1294ncpdt/src/NeonRTOS/lwip/api/netdb.o
 .bss.s_hostname.7021
                0x2001a090      0x101 .pio/build/lptm4c1294ncpdt/src/NeonRTOS/lwip/api/netdb.o
 *fill*         0x2001a191        0x3 
 .bss.s_aliases.7018
                0x2001a194        0x4 .pio/build/lptm4c1294ncpdt/src/NeonRTOS/lwip/api/netdb.o
 .bss.s_hostent.7017
                0x2001a198       0x14 .pio/build/lptm4c1294ncpdt/src/NeonRTOS/lwip/api/netdb.o
 .bss           0x2001a1ac        0x0 .pio/build/lptm4c1294ncpdt/src/NeonRTOS/lwip/api/netifapi.o
 .bss           0x2001a1ac        0x0 .pio/build/lptm4c1294ncpdt/src/NeonRTOS/lwip/api/sockets.o
 .bss.select_cb_list
                0x2001a1ac        0x4 .pio/build/lptm4c1294ncpdt/src/NeonRTOS/lwip/api/sockets.o
 .bss.sockets   0x2001a1b0      0x280 .pio/build/lptm4c1294ncpdt/src/NeonRTOS/lwip/api/sockets.o
 .bss           0x2001a430        0x0 .pio/build/lptm4c1294ncpdt/src/NeonRTOS/lwip/api/tcpip.o
 .bss.tcpip_mbox
                0x2001a430        0x4 .pio/build/lptm4c1294ncpdt/src/NeonRTOS/lwip/api/tcpip.o
 .bss.lock_tcpip_core
                0x2001a434        0x4 .pio/build/lptm4c1294ncpdt/src/NeonRTOS/lwip/api/tcpip.o
                0x2001a434                lock_tcpip_core
 .bss.tcpip_init_done_arg
                0x2001a438        0x4 .pio/build/lptm4c1294ncpdt/src/NeonRTOS/lwip/api/tcpip.o
 .bss.tcpip_init_done
                0x2001a43c        0x4 .pio/build/lptm4c1294ncpdt/src/NeonRTOS/lwip/api/tcpip.o
 .bss           0x2001a440        0x0 .pio/build/lptm4c1294ncpdt/src/NeonRTOS/lwip/arch/sys_arch.o
 .bss           0x2001a440        0x0 .pio/build/lptm4c1294ncpdt/src/NeonRTOS/lwip/core/altcp.o
 .bss           0x2001a440        0x0 .pio/build/lptm4c1294ncpdt/src/NeonRTOS/lwip/core/altcp_alloc.o
 .bss           0x2001a440        0x0 .pio/build/lptm4c1294ncpdt/src/NeonRTOS/lwip/core/altcp_tcp.o
 .bss           0x2001a440        0x0 .pio/build/lptm4c1294ncpdt/src/NeonRTOS/lwip/core/def.o
 .bss           0x2001a440        0x0 .pio/build/lptm4c1294ncpdt/src/NeonRTOS/lwip/core/dns.o
 .bss.dns_seqno
                0x2001a440        0x1 .pio/build/lptm4c1294ncpdt/src/NeonRTOS/lwip/core/dns.o
 .bss.dns_last_pcb_idx
                0x2001a441        0x1 .pio/build/lptm4c1294ncpdt/src/NeonRTOS/lwip/core/dns.o
 *fill*         0x2001a442        0x2 
 .bss.dns_table
                0x2001a444      0x440 .pio/build/lptm4c1294ncpdt/src/NeonRTOS/lwip/core/dns.o
 .bss.dns_servers
                0x2001a884        0x8 .pio/build/lptm4c1294ncpdt/src/NeonRTOS/lwip/core/dns.o
 .bss.dns_pcbs  0x2001a88c       0x10 .pio/build/lptm4c1294ncpdt/src/NeonRTOS/lwip/core/dns.o
 .bss.dns_requests
                0x2001a89c       0x30 .pio/build/lptm4c1294ncpdt/src/NeonRTOS/lwip/core/dns.o
 .bss           0x2001a8cc        0x0 .pio/build/lptm4c1294ncpdt/src/NeonRTOS/lwip/core/inet_chksum.o
 .bss           0x2001a8cc        0x0 .pio/build/lptm4c1294ncpdt/src/NeonRTOS/lwip/core/init.o
 .bss           0x2001a8cc        0x0 .pio/build/lptm4c1294ncpdt/src/NeonRTOS/lwip/core/ip.o
 .bss           0x2001a8cc        0x0 .pio/build/lptm4c1294ncpdt/src/NeonRTOS/lwip/core/ipv4/acd.o
 .bss           0x2001a8cc        0x0 .pio/build/lptm4c1294ncpdt/src/NeonRTOS/lwip/core/ipv4/autoip.o
 .bss           0x2001a8cc        0x0 .pio/build/lptm4c1294ncpdt/src/NeonRTOS/lwip/core/ipv4/dhcp.o
 .bss           0x2001a8cc        0x0 .pio/build/lptm4c1294ncpdt/src/NeonRTOS/lwip/core/ipv4/etharp.o
 .bss.etharp_cached_entry
                0x2001a8cc        0x1 .pio/build/lptm4c1294ncpdt/src/NeonRTOS/lwip/core/ipv4/etharp.o
 *fill*         0x2001a8cd        0x3 
 .bss.arp_table
                0x2001a8d0       0xf0 .pio/build/lptm4c1294ncpdt/src/NeonRTOS/lwip/core/ipv4/etharp.o
 .bss           0x2001a9c0        0x0 .pio/build/lptm4c1294ncpdt/src/NeonRTOS/lwip/core/ipv4/icmp.o
 .bss           0x2001a9c0        0x0 .pio/build/lptm4c1294ncpdt/src/NeonRTOS/lwip/core/ipv4/igmp.o
 .bss           0x2001a9c0        0x0 .pio/build/lptm4c1294ncpdt/src/NeonRTOS/lwip/core/ipv4/ip4.o
 .bss.ip_id     0x2001a9c0        0x2 .pio/build/lptm4c1294ncpdt/src/NeonRTOS/lwip/core/ipv4/ip4.o
 .bss           0x2001a9c2        0x0 .pio/build/lptm4c1294ncpdt/src/NeonRTOS/lwip/core/ipv4/ip4_addr.o
 .bss.str.5927  0x2001a9c2       0x10 .pio/build/lptm4c1294ncpdt/src/NeonRTOS/lwip/core/ipv4/ip4_addr.o
 .bss           0x2001a9d2        0x0 .pio/build/lptm4c1294ncpdt/src/NeonRTOS/lwip/core/ipv4/ip4_frag.o
 *fill*         0x2001a9d2        0x2 
 .bss.reassdatagrams
                0x2001a9d4        0x4 .pio/build/lptm4c1294ncpdt/src/NeonRTOS/lwip/core/ipv4/ip4_frag.o
 .bss.ip_reass_pbufcount
                0x2001a9d8        0x2 .pio/build/lptm4c1294ncpdt/src/NeonRTOS/lwip/core/ipv4/ip4_frag.o
 .bss           0x2001a9da        0x0 .pio/build/lptm4c1294ncpdt/src/NeonRTOS/lwip/core/ipv6/dhcp6.o
 .bss           0x2001a9da        0x0 .pio/build/lptm4c1294ncpdt/src/NeonRTOS/lwip/core/ipv6/ethip6.o
 .bss           0x2001a9da        0x0 .pio/build/lptm4c1294ncpdt/src/NeonRTOS/lwip/core/ipv6/icmp6.o
 .bss           0x2001a9da        0x0 .pio/build/lptm4c1294ncpdt/src/NeonRTOS/lwip/core/ipv6/inet6.o
 .bss           0x2001a9da        0x0 .pio/build/lptm4c1294ncpdt/src/NeonRTOS/lwip/core/ipv6/ip6.o
 .bss           0x2001a9da        0x0 .pio/build/lptm4c1294ncpdt/src/NeonRTOS/lwip/core/ipv6/ip6_addr.o
 .bss           0x2001a9da        0x0 .pio/build/lptm4c1294ncpdt/src/NeonRTOS/lwip/core/ipv6/ip6_frag.o
 .bss           0x2001a9da        0x0 .pio/build/lptm4c1294ncpdt/src/NeonRTOS/lwip/core/ipv6/mld6.o
 .bss           0x2001a9da        0x0 .pio/build/lptm4c1294ncpdt/src/NeonRTOS/lwip/core/ipv6/nd6.o
 .bss           0x2001a9da        0x0 .pio/build/lptm4c1294ncpdt/src/NeonRTOS/lwip/core/mem.o
 *fill*         0x2001a9da        0x2 
 .bss.lfree     0x2001a9dc        0x4 .pio/build/lptm4c1294ncpdt/src/NeonRTOS/lwip/core/mem.o
 .bss.ram_end   0x2001a9e0        0x4 .pio/build/lptm4c1294ncpdt/src/NeonRTOS/lwip/core/mem.o
 .bss.mem_mutex
                0x2001a9e4        0x4 .pio/build/lptm4c1294ncpdt/src/NeonRTOS/lwip/core/mem.o
 .bss.ram       0x2001a9e8        0x4 .pio/build/lptm4c1294ncpdt/src/NeonRTOS/lwip/core/mem.o
 .bss           0x2001a9ec        0x0 .pio/build/lptm4c1294ncpdt/src/NeonRTOS/lwip/core/memp.o
 .bss.memp_tab_PBUF
                0x2001a9ec        0x4 .pio/build/lptm4c1294ncpdt/src/NeonRTOS/lwip/core/memp.o
 .bss.memp_tab_TCPIP_MSG_INPKT
                0x2001a9f0        0x4 .pio/build/lptm4c1294ncpdt/src/NeonRTOS/lwip/core/memp.o
 .bss.memp_tab_TCP_PCB_LISTEN
                0x2001a9f4        0x4 .pio/build/lptm4c1294ncpdt/src/NeonRTOS/lwip/core/memp.o
 .bss.memp_tab_UDP_PCB
                0x2001a9f8        0x4 .pio/build/lptm4c1294ncpdt/src/NeonRTOS/lwip/core/memp.o
 .bss.memp_tab_PBUF_POOL
                0x2001a9fc        0x4 .pio/build/lptm4c1294ncpdt/src/NeonRTOS/lwip/core/memp.o
 .bss.memp_tab_REASSDATA
                0x2001aa00        0x4 .pio/build/lptm4c1294ncpdt/src/NeonRTOS/lwip/core/memp.o
 .bss.memp_tab_NETDB
                0x2001aa04        0x4 .pio/build/lptm4c1294ncpdt/src/NeonRTOS/lwip/core/memp.o
 .bss.memp_tab_TCP_PCB
                0x2001aa08        0x4 .pio/build/lptm4c1294ncpdt/src/NeonRTOS/lwip/core/memp.o
 .bss.memp_tab_TCP_SEG
                0x2001aa0c        0x4 .pio/build/lptm4c1294ncpdt/src/NeonRTOS/lwip/core/memp.o
 .bss.memp_tab_NETCONN
                0x2001aa10        0x4 .pio/build/lptm4c1294ncpdt/src/NeonRTOS/lwip/core/memp.o
 .bss.memp_tab_FRAG_PBUF
                0x2001aa14        0x4 .pio/build/lptm4c1294ncpdt/src/NeonRTOS/lwip/core/memp.o
 .bss.memp_tab_TCPIP_MSG_API
                0x2001aa18        0x4 .pio/build/lptm4c1294ncpdt/src/NeonRTOS/lwip/core/memp.o
 .bss.memp_tab_RAW_PCB
                0x2001aa1c        0x4 .pio/build/lptm4c1294ncpdt/src/NeonRTOS/lwip/core/memp.o
 .bss.memp_tab_SYS_TIMEOUT
                0x2001aa20        0x4 .pio/build/lptm4c1294ncpdt/src/NeonRTOS/lwip/core/memp.o
 .bss.memp_tab_NETBUF
                0x2001aa24        0x4 .pio/build/lptm4c1294ncpdt/src/NeonRTOS/lwip/core/memp.o
 .bss           0x2001aa28        0x0 .pio/build/lptm4c1294ncpdt/src/NeonRTOS/lwip/core/netif.o
 .bss.netif_num
                0x2001aa28        0x1 .pio/build/lptm4c1294ncpdt/src/NeonRTOS/lwip/core/netif.o
 .bss           0x2001aa29        0x0 .pio/build/lptm4c1294ncpdt/src/NeonRTOS/lwip/core/pbuf.o
 .bss           0x2001aa29        0x0 .pio/build/lptm4c1294ncpdt/src/NeonRTOS/lwip/core/raw.o
 *fill*         0x2001aa29        0x3 
 .bss.raw_pcbs  0x2001aa2c        0x4 .pio/build/lptm4c1294ncpdt/src/NeonRTOS/lwip/core/raw.o
 .bss           0x2001aa30        0x0 .pio/build/lptm4c1294ncpdt/src/NeonRTOS/lwip/core/stats.o
 .bss           0x2001aa30        0x0 .pio/build/lptm4c1294ncpdt/src/NeonRTOS/lwip/core/sys.o
 .bss           0x2001aa30        0x0 .pio/build/lptm4c1294ncpdt/src/NeonRTOS/lwip/core/tcp.o
 .bss.tcp_timer
                0x2001aa30        0x1 .pio/build/lptm4c1294ncpdt/src/NeonRTOS/lwip/core/tcp.o
 .bss.tcp_timer_ctr
                0x2001aa31        0x1 .pio/build/lptm4c1294ncpdt/src/NeonRTOS/lwip/core/tcp.o
 .bss           0x2001aa32        0x0 .pio/build/lptm4c1294ncpdt/src/NeonRTOS/lwip/core/tcp_in.o
 .bss.tcphdr_optlen
                0x2001aa32        0x2 .pio/build/lptm4c1294ncpdt/src/NeonRTOS/lwip/core/tcp_in.o
 .bss.tcp_optidx
                0x2001aa34        0x2 .pio/build/lptm4c1294ncpdt/src/NeonRTOS/lwip/core/tcp_in.o
 *fill*         0x2001aa36        0x2 
 .bss.tcphdr    0x2001aa38        0x4 .pio/build/lptm4c1294ncpdt/src/NeonRTOS/lwip/core/tcp_in.o
 .bss.tcplen    0x2001aa3c        0x2 .pio/build/lptm4c1294ncpdt/src/NeonRTOS/lwip/core/tcp_in.o
 *fill*         0x2001aa3e        0x2 
 .bss.seqno     0x2001aa40        0x4 .pio/build/lptm4c1294ncpdt/src/NeonRTOS/lwip/core/tcp_in.o
 .bss.tcphdr_opt2
                0x2001aa44        0x4 .pio/build/lptm4c1294ncpdt/src/NeonRTOS/lwip/core/tcp_in.o
 .bss.recv_flags
                0x2001aa48        0x1 .pio/build/lptm4c1294ncpdt/src/NeonRTOS/lwip/core/tcp_in.o
 *fill*         0x2001aa49        0x3 
 .bss.ackno     0x2001aa4c        0x4 .pio/build/lptm4c1294ncpdt/src/NeonRTOS/lwip/core/tcp_in.o
 .bss.flags     0x2001aa50        0x1 .pio/build/lptm4c1294ncpdt/src/NeonRTOS/lwip/core/tcp_in.o
 *fill*         0x2001aa51        0x1 
 .bss.recv_acked
                0x2001aa52        0x2 .pio/build/lptm4c1294ncpdt/src/NeonRTOS/lwip/core/tcp_in.o
 .bss.recv_data
                0x2001aa54        0x4 .pio/build/lptm4c1294ncpdt/src/NeonRTOS/lwip/core/tcp_in.o
 .bss.tcphdr_opt1len
                0x2001aa58        0x2 .pio/build/lptm4c1294ncpdt/src/NeonRTOS/lwip/core/tcp_in.o
 *fill*         0x2001aa5a        0x2 
 .bss.inseg     0x2001aa5c       0x10 .pio/build/lptm4c1294ncpdt/src/NeonRTOS/lwip/core/tcp_in.o
 .bss           0x2001aa6c        0x0 .pio/build/lptm4c1294ncpdt/src/NeonRTOS/lwip/core/tcp_out.o
 .bss           0x2001aa6c        0x0 .pio/build/lptm4c1294ncpdt/src/NeonRTOS/lwip/core/timeouts.o
 .bss.tcpip_tcp_timer_active
                0x2001aa6c        0x4 .pio/build/lptm4c1294ncpdt/src/NeonRTOS/lwip/core/timeouts.o
 .bss.next_timeout
                0x2001aa70        0x4 .pio/build/lptm4c1294ncpdt/src/NeonRTOS/lwip/core/timeouts.o
 .bss.current_timeout_due_time
                0x2001aa74        0x4 .pio/build/lptm4c1294ncpdt/src/NeonRTOS/lwip/core/timeouts.o
 .bss           0x2001aa78        0x0 .pio/build/lptm4c1294ncpdt/src/NeonRTOS/lwip/core/udp.o
 .bss           0x2001aa78        0x0 .pio/build/lptm4c1294ncpdt/src/NeonRTOS/lwip/netif/bridgeif.o
 .bss           0x2001aa78        0x0 .pio/build/lptm4c1294ncpdt/src/NeonRTOS/lwip/netif/bridgeif_fdb.o
 .bss           0x2001aa78        0x0 .pio/build/lptm4c1294ncpdt/src/NeonRTOS/lwip/netif/ethernet.o
 .bss           0x2001aa78        0x0 .pio/build/lptm4c1294ncpdt/src/NeonRTOS/lwip/netif/lowpan6.o
 .bss           0x2001aa78        0x0 .pio/build/lptm4c1294ncpdt/src/NeonRTOS/lwip/netif/lowpan6_ble.o
 .bss           0x2001aa78        0x0 .pio/build/lptm4c1294ncpdt/src/NeonRTOS/lwip/netif/lowpan6_common.o
 .bss           0x2001aa78        0x0 .pio/build/lptm4c1294ncpdt/src/NeonRTOS/lwip/netif/ppp/auth.o
 .bss           0x2001aa78        0x0 .pio/build/lptm4c1294ncpdt/src/NeonRTOS/lwip/netif/ppp/ccp.o
 .bss           0x2001aa78        0x0 .pio/build/lptm4c1294ncpdt/src/NeonRTOS/lwip/netif/ppp/chap-md5.o
 .bss           0x2001aa78        0x0 .pio/build/lptm4c1294ncpdt/src/NeonRTOS/lwip/netif/ppp/chap-new.o
 .bss           0x2001aa78        0x0 .pio/build/lptm4c1294ncpdt/src/NeonRTOS/lwip/netif/ppp/chap_ms.o
 .bss           0x2001aa78        0x0 .pio/build/lptm4c1294ncpdt/src/NeonRTOS/lwip/netif/ppp/demand.o
 .bss           0x2001aa78        0x0 .pio/build/lptm4c1294ncpdt/src/NeonRTOS/lwip/netif/ppp/eap.o
 .bss           0x2001aa78        0x0 .pio/build/lptm4c1294ncpdt/src/NeonRTOS/lwip/netif/ppp/ecp.o
 .bss           0x2001aa78        0x0 .pio/build/lptm4c1294ncpdt/src/NeonRTOS/lwip/netif/ppp/eui64.o
 .bss           0x2001aa78        0x0 .pio/build/lptm4c1294ncpdt/src/NeonRTOS/lwip/netif/ppp/fsm.o
 .bss           0x2001aa78        0x0 .pio/build/lptm4c1294ncpdt/src/NeonRTOS/lwip/netif/ppp/ipcp.o
 .bss           0x2001aa78        0x0 .pio/build/lptm4c1294ncpdt/src/NeonRTOS/lwip/netif/ppp/ipv6cp.o
 .bss           0x2001aa78        0x0 .pio/build/lptm4c1294ncpdt/src/NeonRTOS/lwip/netif/ppp/lcp.o
 .bss           0x2001aa78        0x0 .pio/build/lptm4c1294ncpdt/src/NeonRTOS/lwip/netif/ppp/magic.o
 .bss           0x2001aa78        0x0 .pio/build/lptm4c1294ncpdt/src/NeonRTOS/lwip/netif/ppp/mppe.o
 .bss           0x2001aa78        0x0 .pio/build/lptm4c1294ncpdt/src/NeonRTOS/lwip/netif/ppp/multilink.o
 .bss           0x2001aa78        0x0 .pio/build/lptm4c1294ncpdt/src/NeonRTOS/lwip/netif/ppp/polarssl/arc4.o
 .bss           0x2001aa78        0x0 .pio/build/lptm4c1294ncpdt/src/NeonRTOS/lwip/netif/ppp/polarssl/des.o
 .bss           0x2001aa78        0x0 .pio/build/lptm4c1294ncpdt/src/NeonRTOS/lwip/netif/ppp/polarssl/md4.o
 .bss           0x2001aa78        0x0 .pio/build/lptm4c1294ncpdt/src/NeonRTOS/lwip/netif/ppp/polarssl/md5.o
 .bss           0x2001aa78        0x0 .pio/build/lptm4c1294ncpdt/src/NeonRTOS/lwip/netif/ppp/polarssl/sha1.o
 .bss           0x2001aa78        0x0 .pio/build/lptm4c1294ncpdt/src/NeonRTOS/lwip/netif/ppp/ppp.o
 .bss           0x2001aa78        0x0 .pio/build/lptm4c1294ncpdt/src/NeonRTOS/lwip/netif/ppp/pppapi.o
 .bss           0x2001aa78        0x0 .pio/build/lptm4c1294ncpdt/src/NeonRTOS/lwip/netif/ppp/pppcrypt.o
 .bss           0x2001aa78        0x0 .pio/build/lptm4c1294ncpdt/src/NeonRTOS/lwip/netif/ppp/pppoe.o
 .bss           0x2001aa78        0x0 .pio/build/lptm4c1294ncpdt/src/NeonRTOS/lwip/netif/ppp/pppol2tp.o
 .bss           0x2001aa78        0x0 .pio/build/lptm4c1294ncpdt/src/NeonRTOS/lwip/netif/ppp/pppos.o
 .bss           0x2001aa78        0x0 .pio/build/lptm4c1294ncpdt/src/NeonRTOS/lwip/netif/ppp/upap.o
 .bss           0x2001aa78        0x0 .pio/build/lptm4c1294ncpdt/src/NeonRTOS/lwip/netif/ppp/utils.o
 .bss           0x2001aa78        0x0 .pio/build/lptm4c1294ncpdt/src/NeonRTOS/lwip/netif/ppp/vj.o
 .bss           0x2001aa78        0x0 .pio/build/lptm4c1294ncpdt/src/NeonRTOS/lwip/netif/zepif.o
 .bss           0x2001aa78        0x0 .pio/build/lptm4c1294ncpdt/src/main.o
 .bss           0x2001aa78        0x0 .pio/build/lptm4c1294ncpdt/src/stub_sbrk.o
 .bss           0x2001aa78        0x0 .pio/build/lptm4c1294ncpdt/src/wrap_malloc.o
 .bss           0x2001aa78        0x0 c:/users/user/.platformio/packages/toolchain-gccarmnoneeabi@1.40804.0/bin/../lib/gcc/arm-none-eabi/4.8.4/../../../../arm-none-eabi/lib/armv7e-m\libc.a(lib_a-atoi.o)
 .bss           0x2001aa78        0x0 c:/users/user/.platformio/packages/toolchain-gccarmnoneeabi@1.40804.0/bin/../lib/gcc/arm-none-eabi/4.8.4/../../../../arm-none-eabi/lib/armv7e-m\libc.a(lib_a-ctype_.o)
 .bss           0x2001aa78        0x0 c:/users/user/.platformio/packages/toolchain-gccarmnoneeabi@1.40804.0/bin/../lib/gcc/arm-none-eabi/4.8.4/../../../../arm-none-eabi/lib/armv7e-m\libc.a(lib_a-isspace.o)
 .bss           0x2001aa78        0x0 c:/users/user/.platformio/packages/toolchain-gccarmnoneeabi@1.40804.0/bin/../lib/gcc/arm-none-eabi/4.8.4/../../../../arm-none-eabi/lib/armv7e-m\libc.a(lib_a-memcmp.o)
 .bss           0x2001aa78        0x0 c:/users/user/.platformio/packages/toolchain-gccarmnoneeabi@1.40804.0/bin/../lib/gcc/arm-none-eabi/4.8.4/../../../../arm-none-eabi/lib/armv7e-m\libc.a(lib_a-memcpy.o)
 .bss           0x2001aa78        0x0 c:/users/user/.platformio/packages/toolchain-gccarmnoneeabi@1.40804.0/bin/../lib/gcc/arm-none-eabi/4.8.4/../../../../arm-none-eabi/lib/armv7e-m\libc.a(lib_a-memmove.o)
 .bss           0x2001aa78        0x0 c:/users/user/.platformio/packages/toolchain-gccarmnoneeabi@1.40804.0/bin/../lib/gcc/arm-none-eabi/4.8.4/../../../../arm-none-eabi/lib/armv7e-m\libc.a(lib_a-memset.o)
 .bss           0x2001aa78        0x0 c:/users/user/.platformio/packages/toolchain-gccarmnoneeabi@1.40804.0/bin/../lib/gcc/arm-none-eabi/4.8.4/../../../../arm-none-eabi/lib/armv7e-m\libc.a(lib_a-rand.o)
 .bss           0x2001aa78        0x0 c:/users/user/.platformio/packages/toolchain-gccarmnoneeabi@1.40804.0/bin/../lib/gcc/arm-none-eabi/4.8.4/../../../../arm-none-eabi/lib/armv7e-m\libc.a(lib_a-reent.o)
 .bss           0x2001aa78        0x0 c:/users/user/.platformio/packages/toolchain-gccarmnoneeabi@1.40804.0/bin/../lib/gcc/arm-none-eabi/4.8.4/../../../../arm-none-eabi/lib/armv7e-m\libc.a(lib_a-s_fpclassify.o)
 .bss           0x2001aa78        0x0 c:/users/user/.platformio/packages/toolchain-gccarmnoneeabi@1.40804.0/bin/../lib/gcc/arm-none-eabi/4.8.4/../../../../arm-none-eabi/lib/armv7e-m\libc.a(lib_a-snprintf.o)
 .bss           0x2001aa78        0x0 c:/users/user/.platformio/packages/toolchain-gccarmnoneeabi@1.40804.0/bin/../lib/gcc/arm-none-eabi/4.8.4/../../../../arm-none-eabi/lib/armv7e-m\libc.a(lib_a-sprintf.o)
 .bss           0x2001aa78        0x0 c:/users/user/.platformio/packages/toolchain-gccarmnoneeabi@1.40804.0/bin/../lib/gcc/arm-none-eabi/4.8.4/../../../../arm-none-eabi/lib/armv7e-m\libc.a(lib_a-strcat.o)
 .bss           0x2001aa78        0x0 c:/users/user/.platformio/packages/toolchain-gccarmnoneeabi@1.40804.0/bin/../lib/gcc/arm-none-eabi/4.8.4/../../../../arm-none-eabi/lib/armv7e-m\libc.a(lib_a-strchr.o)
 .bss           0x2001aa78        0x0 c:/users/user/.platformio/packages/toolchain-gccarmnoneeabi@1.40804.0/bin/../lib/gcc/arm-none-eabi/4.8.4/../../../../arm-none-eabi/lib/armv7e-m\libc.a(lib_a-strcmp.o)
 .bss           0x2001aa78        0x0 c:/users/user/.platformio/packages/toolchain-gccarmnoneeabi@1.40804.0/bin/../lib/gcc/arm-none-eabi/4.8.4/../../../../arm-none-eabi/lib/armv7e-m\libc.a(lib_a-strcpy.o)
 .bss           0x2001aa78        0x0 c:/users/user/.platformio/packages/toolchain-gccarmnoneeabi@1.40804.0/bin/../lib/gcc/arm-none-eabi/4.8.4/../../../../arm-none-eabi/lib/armv7e-m\libc.a(lib_a-strlen.o)
 .bss           0x2001aa78        0x0 c:/users/user/.platformio/packages/toolchain-gccarmnoneeabi@1.40804.0/bin/../lib/gcc/arm-none-eabi/4.8.4/../../../../arm-none-eabi/lib/armv7e-m\libc.a(lib_a-strncmp.o)
 .bss           0x2001aa78        0x0 c:/users/user/.platformio/packages/toolchain-gccarmnoneeabi@1.40804.0/bin/../lib/gcc/arm-none-eabi/4.8.4/../../../../arm-none-eabi/lib/armv7e-m\libc.a(lib_a-strncpy.o)
 .bss           0x2001aa78        0x0 c:/users/user/.platformio/packages/toolchain-gccarmnoneeabi@1.40804.0/bin/../lib/gcc/arm-none-eabi/4.8.4/../../../../arm-none-eabi/lib/armv7e-m\libc.a(lib_a-strstr.o)
 .bss           0x2001aa78        0x0 c:/users/user/.platformio/packages/toolchain-gccarmnoneeabi@1.40804.0/bin/../lib/gcc/arm-none-eabi/4.8.4/../../../../arm-none-eabi/lib/armv7e-m\libc.a(lib_a-strtol.o)
 .bss           0x2001aa78        0x0 c:/users/user/.platformio/packages/toolchain-gccarmnoneeabi@1.40804.0/bin/../lib/gcc/arm-none-eabi/4.8.4/../../../../arm-none-eabi/lib/armv7e-m\libc.a(lib_a-svfprintf.o)
 .bss           0x2001aa78        0x0 c:/users/user/.platformio/packages/toolchain-gccarmnoneeabi@1.40804.0/bin/../lib/gcc/arm-none-eabi/4.8.4/../../../../arm-none-eabi/lib/armv7e-m\libc.a(lib_a-vsnprintf.o)
 .bss           0x2001aa78        0x0 c:/users/user/.platformio/packages/toolchain-gccarmnoneeabi@1.40804.0/bin/../lib/gcc/arm-none-eabi/4.8.4/../../../../arm-none-eabi/lib/armv7e-m\libc.a(lib_a-dtoa.o)
 .bss           0x2001aa78        0x0 c:/users/user/.platformio/packages/toolchain-gccarmnoneeabi@1.40804.0/bin/../lib/gcc/arm-none-eabi/4.8.4/../../../../arm-none-eabi/lib/armv7e-m\libc.a(lib_a-impure.o)
 .bss           0x2001aa78        0x0 c:/users/user/.platformio/packages/toolchain-gccarmnoneeabi@1.40804.0/bin/../lib/gcc/arm-none-eabi/4.8.4/../../../../arm-none-eabi/lib/armv7e-m\libc.a(lib_a-locale.o)
 .bss._PathLocale
                0x2001aa78        0x4 c:/users/user/.platformio/packages/toolchain-gccarmnoneeabi@1.40804.0/bin/../lib/gcc/arm-none-eabi/4.8.4/../../../../arm-none-eabi/lib/armv7e-m\libc.a(lib_a-locale.o)
                0x2001aa78                _PathLocale
 .bss.__nlocale_changed
                0x2001aa7c        0x4 c:/users/user/.platformio/packages/toolchain-gccarmnoneeabi@1.40804.0/bin/../lib/gcc/arm-none-eabi/4.8.4/../../../../arm-none-eabi/lib/armv7e-m\libc.a(lib_a-locale.o)
                0x2001aa7c                __nlocale_changed
 .bss.__mlocale_changed
                0x2001aa80        0x4 c:/users/user/.platformio/packages/toolchain-gccarmnoneeabi@1.40804.0/bin/../lib/gcc/arm-none-eabi/4.8.4/../../../../arm-none-eabi/lib/armv7e-m\libc.a(lib_a-locale.o)
                0x2001aa80                __mlocale_changed
 .bss           0x2001aa84        0x0 c:/users/user/.platformio/packages/toolchain-gccarmnoneeabi@1.40804.0/bin/../lib/gcc/arm-none-eabi/4.8.4/../../../../arm-none-eabi/lib/armv7e-m\libc.a(lib_a-memchr-stub.o)
 .bss           0x2001aa84        0x0 c:/users/user/.platformio/packages/toolchain-gccarmnoneeabi@1.40804.0/bin/../lib/gcc/arm-none-eabi/4.8.4/../../../../arm-none-eabi/lib/armv7e-m\libc.a(lib_a-mprec.o)
 .bss           0x2001aa84        0x0 c:/users/user/.platformio/packages/toolchain-gccarmnoneeabi@1.40804.0/bin/../lib/gcc/arm-none-eabi/4.8.4/../../../../arm-none-eabi/lib/armv7e-m\libc.a(lib_a-svfiprintf.o)
 .bss           0x2001aa84        0x0 c:/users/user/.platformio/packages/toolchain-gccarmnoneeabi@1.40804.0/bin/../lib/gcc/arm-none-eabi/4.8.4/armv7e-m\libgcc.a(_arm_addsubdf3.o)
 .bss           0x2001aa84        0x0 c:/users/user/.platformio/packages/toolchain-gccarmnoneeabi@1.40804.0/bin/../lib/gcc/arm-none-eabi/4.8.4/armv7e-m\libgcc.a(_arm_muldivdf3.o)
 .bss           0x2001aa84        0x0 c:/users/user/.platformio/packages/toolchain-gccarmnoneeabi@1.40804.0/bin/../lib/gcc/arm-none-eabi/4.8.4/armv7e-m\libgcc.a(_arm_cmpdf2.o)
 .bss           0x2001aa84        0x0 c:/users/user/.platformio/packages/toolchain-gccarmnoneeabi@1.40804.0/bin/../lib/gcc/arm-none-eabi/4.8.4/armv7e-m\libgcc.a(_arm_fixdfsi.o)
 .bss           0x2001aa84        0x0 c:/users/user/.platformio/packages/toolchain-gccarmnoneeabi@1.40804.0/bin/../lib/gcc/arm-none-eabi/4.8.4/armv7e-m\libgcc.a(_aeabi_uldivmod.o)
 .bss           0x2001aa84        0x0 c:/users/user/.platformio/packages/toolchain-gccarmnoneeabi@1.40804.0/bin/../lib/gcc/arm-none-eabi/4.8.4/armv7e-m\libgcc.a(bpabi.o)
 .bss           0x2001aa84        0x0 c:/users/user/.platformio/packages/toolchain-gccarmnoneeabi@1.40804.0/bin/../lib/gcc/arm-none-eabi/4.8.4/armv7e-m\libgcc.a(_dvmd_tls.o)
 .bss           0x2001aa84        0x0 c:/users/user/.platformio/packages/toolchain-gccarmnoneeabi@1.40804.0/bin/../lib/gcc/arm-none-eabi/4.8.4/armv7e-m\libgcc.a(_divdi3.o)
 .bss           0x2001aa84        0x0 c:/users/user/.platformio/packages/toolchain-gccarmnoneeabi@1.40804.0/bin/../lib/gcc/arm-none-eabi/4.8.4/armv7e-m\libgcc.a(_udivdi3.o)
 .bss           0x2001aa84        0x0 c:/users/user/.platformio/packages/toolchain-gccarmnoneeabi@1.40804.0/bin/../lib/gcc/arm-none-eabi/4.8.4/../../../../arm-none-eabi/lib/armv7e-m\libm.a(lib_a-w_pow.o)
 .bss           0x2001aa84        0x0 c:/users/user/.platformio/packages/toolchain-gccarmnoneeabi@1.40804.0/bin/../lib/gcc/arm-none-eabi/4.8.4/../../../../arm-none-eabi/lib/armv7e-m\libm.a(lib_a-e_pow.o)
 .bss           0x2001aa84        0x0 c:/users/user/.platformio/packages/toolchain-gccarmnoneeabi@1.40804.0/bin/../lib/gcc/arm-none-eabi/4.8.4/../../../../arm-none-eabi/lib/armv7e-m\libm.a(lib_a-e_sqrt.o)
 .bss           0x2001aa84        0x0 c:/users/user/.platformio/packages/toolchain-gccarmnoneeabi@1.40804.0/bin/../lib/gcc/arm-none-eabi/4.8.4/../../../../arm-none-eabi/lib/armv7e-m\libm.a(lib_a-s_fabs.o)
 .bss           0x2001aa84        0x0 c:/users/user/.platformio/packages/toolchain-gccarmnoneeabi@1.40804.0/bin/../lib/gcc/arm-none-eabi/4.8.4/../../../../arm-none-eabi/lib/armv7e-m\libm.a(lib_a-s_finite.o)
 .bss           0x2001aa84        0x0 c:/users/user/.platformio/packages/toolchain-gccarmnoneeabi@1.40804.0/bin/../lib/gcc/arm-none-eabi/4.8.4/../../../../arm-none-eabi/lib/armv7e-m\libm.a(lib_a-s_lib_ver.o)
 .bss           0x2001aa84        0x0 c:/users/user/.platformio/packages/toolchain-gccarmnoneeabi@1.40804.0/bin/../lib/gcc/arm-none-eabi/4.8.4/../../../../arm-none-eabi/lib/armv7e-m\libm.a(lib_a-s_matherr.o)
 .bss           0x2001aa84        0x0 c:/users/user/.platformio/packages/toolchain-gccarmnoneeabi@1.40804.0/bin/../lib/gcc/arm-none-eabi/4.8.4/../../../../arm-none-eabi/lib/armv7e-m\libm.a(lib_a-s_nan.o)
 .bss           0x2001aa84        0x0 c:/users/user/.platformio/packages/toolchain-gccarmnoneeabi@1.40804.0/bin/../lib/gcc/arm-none-eabi/4.8.4/../../../../arm-none-eabi/lib/armv7e-m\libm.a(lib_a-s_rint.o)
 .bss           0x2001aa84        0x0 c:/users/user/.platformio/packages/toolchain-gccarmnoneeabi@1.40804.0/bin/../lib/gcc/arm-none-eabi/4.8.4/../../../../arm-none-eabi/lib/armv7e-m\libm.a(lib_a-s_scalbn.o)
 .bss           0x2001aa84        0x0 c:/users/user/.platformio/packages/toolchain-gccarmnoneeabi@1.40804.0/bin/../lib/gcc/arm-none-eabi/4.8.4/../../../../arm-none-eabi/lib/armv7e-m\libm.a(lib_a-s_copysign.o)
 .bss           0x2001aa84        0x0 c:/users/user/.platformio/packages/toolchain-gccarmnoneeabi@1.40804.0/bin/../lib/gcc/arm-none-eabi/4.8.4/../../../../arm-none-eabi/lib/armv7e-m\libc.a(lib_a-errno.o)
 *(COMMON)
 COMMON         0x2001aa84       0x20 .pio/build/lptm4c1294ncpdt/src/APP/LED_PWM_API.o
                0x2001aa84                All_LED_Status
 COMMON         0x2001aaa4      0x5a8 .pio/build/lptm4c1294ncpdt/src/Drivers/ethernetif/ethernetif_tm4c1294.o
                0x2001aaa4                g_pTxDescriptors
                0x2001ad74                g_pRxDescriptors
                0x2001b044                g_ui32AbnormalInts
                0x2001b048                g_ui32NormalInts
 COMMON         0x2001b04c       0x50 .pio/build/lptm4c1294ncpdt/src/NeonRTOS/HTTPd/HTTPd.o
                0x2001b04c                HTTPd_WebSocketd_Client_List
 COMMON         0x2001b09c       0x3c .pio/build/lptm4c1294ncpdt/src/NeonRTOS/NeonTCPIP.o
                0x2001b09c                gnetif
 COMMON         0x2001b0d8       0x40 .pio/build/lptm4c1294ncpdt/src/NeonRTOS/kernel/queue.o
                0x2001b0d8                xQueueRegistry
 COMMON         0x2001b118        0x4 .pio/build/lptm4c1294ncpdt/src/NeonRTOS/lwip/api/netdb.o
                0x2001b118                h_errno
 COMMON         0x2001b11c        0x4 .pio/build/lptm4c1294ncpdt/src/NeonRTOS/lwip/arch/sys_arch.o
                0x2001b11c                lwip_sys_mutex
 COMMON         0x2001b120       0x18 .pio/build/lptm4c1294ncpdt/src/NeonRTOS/lwip/core/ip.o
                0x2001b120                ip_data
 COMMON         0x2001b138    0x1041b .pio/build/lptm4c1294ncpdt/src/NeonRTOS/lwip/core/mem.o
                0x2001b138                ram_heap
 COMMON         0x2002b553    0x14559 .pio/build/lptm4c1294ncpdt/src/NeonRTOS/lwip/core/memp.o
                0x2002b553                memp_memory_NETDB_base
                0x2002b68a                memp_memory_NETBUF_base
                0x2002b6ad                memp_memory_TCPIP_MSG_INPKT_base
                0x2002b730                memp_memory_RAW_PCB_base
                0x2002b7a3                memp_memory_TCP_SEG_base
                0x2002bca6                memp_memory_PBUF_POOL_base
                0x2003ad49                memp_memory_FRAG_PBUF_base
                0x2003aeb4                memp_memory_TCPIP_MSG_API_base
                0x2003af37                memp_memory_PBUF_base
                0x2003b43a                memp_memory_TCP_PCB_LISTEN_base
                0x2003b51d                memp_memory_REASSDATA_base
                0x2003b5c0                memp_memory_UDP_PCB_base
                0x2003b7c3                memp_memory_NETCONN_base
                0x2003bf46                memp_memory_TCP_PCB_base
                0x2003fa09                memp_memory_SYS_TIMEOUT_base
 COMMON         0x2003faac        0x8 .pio/build/lptm4c1294ncpdt/src/NeonRTOS/lwip/core/netif.o
                0x2003faac                netif_list
                0x2003fab0                netif_default
 COMMON         0x2003fab4        0x1 .pio/build/lptm4c1294ncpdt/src/NeonRTOS/lwip/core/pbuf.o
                0x2003fab4                pbuf_free_ooseq_pending
 *fill*         0x2003fab5        0x3 
 COMMON         0x2003fab8       0x18 .pio/build/lptm4c1294ncpdt/src/NeonRTOS/lwip/core/tcp.o
                0x2003fab8                tcp_active_pcbs_changed
                0x2003fabc                tcp_active_pcbs
                0x2003fac0                tcp_ticks
                0x2003fac4                tcp_listen_pcbs
                0x2003fac8                tcp_bound_pcbs
                0x2003facc                tcp_tw_pcbs
 COMMON         0x2003fad0        0x4 .pio/build/lptm4c1294ncpdt/src/NeonRTOS/lwip/core/tcp_in.o
                0x2003fad0                tcp_input_pcb
 COMMON         0x2003fad4        0x4 .pio/build/lptm4c1294ncpdt/src/NeonRTOS/lwip/core/udp.o
                0x2003fad4                udp_pcbs
 COMMON         0x2003fad8        0x4 c:/users/user/.platformio/packages/toolchain-gccarmnoneeabi@1.40804.0/bin/../lib/gcc/arm-none-eabi/4.8.4/../../../../arm-none-eabi/lib/armv7e-m\libc.a(lib_a-reent.o)
                0x2003fad8                errno
                0x2003fadc                _ebss = .
OUTPUT(.pio/build/lptm4c1294ncpdt/firmware.elf elf32-littlearm)

.comment        0x00000000       0x70
 .comment       0x00000000       0x70 .pio/build/lptm4c1294ncpdt/src/APP/LED_PWM_API.o
                                 0x71 (size before relaxing)
 .comment       0x00000000       0x71 .pio/build/lptm4c1294ncpdt/src/APP/LED_PWM_APP.o
 .comment       0x00000000       0x71 .pio/build/lptm4c1294ncpdt/src/Drivers/W-Link/Driver/GPIO/GPIO_TM4C1294.o
 .comment       0x00000000       0x71 .pio/build/lptm4c1294ncpdt/src/Drivers/W-Link/Driver/GPIO/Pin/GPIO_Pin_TM4C1294.o
 .comment       0x00000000       0x71 .pio/build/lptm4c1294ncpdt/src/Drivers/W-Link/Driver/PWM/PWM_TM4C1294.o
 .comment       0x00000000       0x71 .pio/build/lptm4c1294ncpdt/src/Drivers/W-Link/Driver/SysCtrl/SysCtrl_TM4C1294.o
 .comment       0x00000000       0x71 .pio/build/lptm4c1294ncpdt/src/Drivers/W-Link/Driver/UART/UART_TM4C1294.o
 .comment       0x00000000       0x71 .pio/build/lptm4c1294ncpdt/src/Drivers/W-Link/Misc/Base64.o
 .comment       0x00000000       0x71 .pio/build/lptm4c1294ncpdt/src/Drivers/W-Link/Misc/atoh.o
 .comment       0x00000000       0x71 .pio/build/lptm4c1294ncpdt/src/Drivers/W-Link/Misc/ftoa.o
 .comment       0x00000000       0x71 .pio/build/lptm4c1294ncpdt/src/Drivers/W-Link/Misc/htoa.o
 .comment       0x00000000       0x71 .pio/build/lptm4c1294ncpdt/src/Drivers/W-Link/Misc/itoa.o
 .comment       0x00000000       0x71 .pio/build/lptm4c1294ncpdt/src/Drivers/W-Link/Misc/sha1.o
 .comment       0x00000000       0x71 .pio/build/lptm4c1294ncpdt/src/Drivers/W-Link/cJSON/cJSON.o
 .comment       0x00000000       0x71 .pio/build/lptm4c1294ncpdt/src/Drivers/ethernetif/ethernetif_tm4c1294.o
 .comment       0x00000000       0x71 .pio/build/lptm4c1294ncpdt/src/Drivers/soc/driverlib/adc.o
 .comment       0x00000000       0x71 .pio/build/lptm4c1294ncpdt/src/Drivers/soc/driverlib/aes.o
 .comment       0x00000000       0x71 .pio/build/lptm4c1294ncpdt/src/Drivers/soc/driverlib/can.o
 .comment       0x00000000       0x71 .pio/build/lptm4c1294ncpdt/src/Drivers/soc/driverlib/comp.o
 .comment       0x00000000       0x71 .pio/build/lptm4c1294ncpdt/src/Drivers/soc/driverlib/cpu.o
 .comment       0x00000000       0x71 .pio/build/lptm4c1294ncpdt/src/Drivers/soc/driverlib/crc.o
 .comment       0x00000000       0x71 .pio/build/lptm4c1294ncpdt/src/Drivers/soc/driverlib/des.o
 .comment       0x00000000       0x71 .pio/build/lptm4c1294ncpdt/src/Drivers/soc/driverlib/eeprom.o
 .comment       0x00000000       0x71 .pio/build/lptm4c1294ncpdt/src/Drivers/soc/driverlib/emac.o
 .comment       0x00000000       0x71 .pio/build/lptm4c1294ncpdt/src/Drivers/soc/driverlib/epi.o
 .comment       0x00000000       0x71 .pio/build/lptm4c1294ncpdt/src/Drivers/soc/driverlib/flash.o
 .comment       0x00000000       0x71 .pio/build/lptm4c1294ncpdt/src/Drivers/soc/driverlib/fpu.o
 .comment       0x00000000       0x71 .pio/build/lptm4c1294ncpdt/src/Drivers/soc/driverlib/gpio.o
 .comment       0x00000000       0x71 .pio/build/lptm4c1294ncpdt/src/Drivers/soc/driverlib/hibernate.o
 .comment       0x00000000       0x71 .pio/build/lptm4c1294ncpdt/src/Drivers/soc/driverlib/i2c.o
 .comment       0x00000000       0x71 .pio/build/lptm4c1294ncpdt/src/Drivers/soc/driverlib/interrupt.o
 .comment       0x00000000       0x71 .pio/build/lptm4c1294ncpdt/src/Drivers/soc/driverlib/lcd.o
 .comment       0x00000000       0x71 .pio/build/lptm4c1294ncpdt/src/Drivers/soc/driverlib/mpu.o
 .comment       0x00000000       0x71 .pio/build/lptm4c1294ncpdt/src/Drivers/soc/driverlib/onewire.o
 .comment       0x00000000       0x71 .pio/build/lptm4c1294ncpdt/src/Drivers/soc/driverlib/pwm.o
 .comment       0x00000000       0x71 .pio/build/lptm4c1294ncpdt/src/Drivers/soc/driverlib/qei.o
 .comment       0x00000000       0x71 .pio/build/lptm4c1294ncpdt/src/Drivers/soc/driverlib/shamd5.o
 .comment       0x00000000       0x71 .pio/build/lptm4c1294ncpdt/src/Drivers/soc/driverlib/ssi.o
 .comment       0x00000000       0x71 .pio/build/lptm4c1294ncpdt/src/Drivers/soc/driverlib/sw_crc.o
 .comment       0x00000000       0x71 .pio/build/lptm4c1294ncpdt/src/Drivers/soc/driverlib/sysctl.o
 .comment       0x00000000       0x71 .pio/build/lptm4c1294ncpdt/src/Drivers/soc/driverlib/sysexc.o
 .comment       0x00000000       0x71 .pio/build/lptm4c1294ncpdt/src/Drivers/soc/driverlib/systick.o
 .comment       0x00000000       0x71 .pio/build/lptm4c1294ncpdt/src/Drivers/soc/driverlib/timer.o
 .comment       0x00000000       0x71 .pio/build/lptm4c1294ncpdt/src/Drivers/soc/driverlib/uart.o
 .comment       0x00000000       0x71 .pio/build/lptm4c1294ncpdt/src/Drivers/soc/driverlib/udma.o
 .comment       0x00000000       0x71 .pio/build/lptm4c1294ncpdt/src/Drivers/soc/driverlib/usb.o
 .comment       0x00000000       0x71 .pio/build/lptm4c1294ncpdt/src/Drivers/soc/driverlib/watchdog.o
 .comment       0x00000000       0x71 .pio/build/lptm4c1294ncpdt/src/Drivers/soc/startup_gcc.o
 .comment       0x00000000       0x71 .pio/build/lptm4c1294ncpdt/src/NeonRTOS/HTTPd/HTTPd.o
 .comment       0x00000000       0x71 .pio/build/lptm4c1294ncpdt/src/NeonRTOS/HTTPd/HTTPd_Utils.o
 .comment       0x00000000       0x71 .pio/build/lptm4c1294ncpdt/src/NeonRTOS/HTTPd/HTTPd_def.o
 .comment       0x00000000       0x71 .pio/build/lptm4c1294ncpdt/src/NeonRTOS/HTTPd/NeonRtFs.o
 .comment       0x00000000       0x71 .pio/build/lptm4c1294ncpdt/src/NeonRTOS/HTTPd/heatshrink_decoder.o
 .comment       0x00000000       0x71 .pio/build/lptm4c1294ncpdt/src/NeonRTOS/HTTPd/neonrtfs_img.o
 .comment       0x00000000       0x71 .pio/build/lptm4c1294ncpdt/src/NeonRTOS/NeonAppInterface.o
 .comment       0x00000000       0x71 .pio/build/lptm4c1294ncpdt/src/NeonRTOS/NeonRTOS.o
 .comment       0x00000000       0x71 .pio/build/lptm4c1294ncpdt/src/NeonRTOS/NeonTCPIP.o
 .comment       0x00000000       0x71 .pio/build/lptm4c1294ncpdt/src/NeonRTOS/kernel/croutine.o
 .comment       0x00000000       0x71 .pio/build/lptm4c1294ncpdt/src/NeonRTOS/kernel/event_groups.o
 .comment       0x00000000       0x71 .pio/build/lptm4c1294ncpdt/src/NeonRTOS/kernel/list.o
 .comment       0x00000000       0x71 .pio/build/lptm4c1294ncpdt/src/NeonRTOS/kernel/portable/GCC/ARM_CM4F/port.o
 .comment       0x00000000       0x71 .pio/build/lptm4c1294ncpdt/src/NeonRTOS/kernel/portable/MemMang/heap_4.o
 .comment       0x00000000       0x71 .pio/build/lptm4c1294ncpdt/src/NeonRTOS/kernel/queue.o
 .comment       0x00000000       0x71 .pio/build/lptm4c1294ncpdt/src/NeonRTOS/kernel/stream_buffer.o
 .comment       0x00000000       0x71 .pio/build/lptm4c1294ncpdt/src/NeonRTOS/kernel/tasks.o
 .comment       0x00000000       0x71 .pio/build/lptm4c1294ncpdt/src/NeonRTOS/kernel/timers.o
 .comment       0x00000000       0x71 .pio/build/lptm4c1294ncpdt/src/NeonRTOS/lwip/api/api_lib.o
 .comment       0x00000000       0x71 .pio/build/lptm4c1294ncpdt/src/NeonRTOS/lwip/api/api_msg.o
 .comment       0x00000000       0x71 .pio/build/lptm4c1294ncpdt/src/NeonRTOS/lwip/api/err.o
 .comment       0x00000000       0x71 .pio/build/lptm4c1294ncpdt/src/NeonRTOS/lwip/api/if_api.o
 .comment       0x00000000       0x71 .pio/build/lptm4c1294ncpdt/src/NeonRTOS/lwip/api/netbuf.o
 .comment       0x00000000       0x71 .pio/build/lptm4c1294ncpdt/src/NeonRTOS/lwip/api/netdb.o
 .comment       0x00000000       0x71 .pio/build/lptm4c1294ncpdt/src/NeonRTOS/lwip/api/netifapi.o
 .comment       0x00000000       0x71 .pio/build/lptm4c1294ncpdt/src/NeonRTOS/lwip/api/sockets.o
 .comment       0x00000000       0x71 .pio/build/lptm4c1294ncpdt/src/NeonRTOS/lwip/api/tcpip.o
 .comment       0x00000000       0x71 .pio/build/lptm4c1294ncpdt/src/NeonRTOS/lwip/arch/sys_arch.o
 .comment       0x00000000       0x71 .pio/build/lptm4c1294ncpdt/src/NeonRTOS/lwip/core/altcp.o
 .comment       0x00000000       0x71 .pio/build/lptm4c1294ncpdt/src/NeonRTOS/lwip/core/altcp_alloc.o
 .comment       0x00000000       0x71 .pio/build/lptm4c1294ncpdt/src/NeonRTOS/lwip/core/altcp_tcp.o
 .comment       0x00000000       0x71 .pio/build/lptm4c1294ncpdt/src/NeonRTOS/lwip/core/def.o
 .comment       0x00000000       0x71 .pio/build/lptm4c1294ncpdt/src/NeonRTOS/lwip/core/dns.o
 .comment       0x00000000       0x71 .pio/build/lptm4c1294ncpdt/src/NeonRTOS/lwip/core/inet_chksum.o
 .comment       0x00000000       0x71 .pio/build/lptm4c1294ncpdt/src/NeonRTOS/lwip/core/init.o
 .comment       0x00000000       0x71 .pio/build/lptm4c1294ncpdt/src/NeonRTOS/lwip/core/ip.o
 .comment       0x00000000       0x71 .pio/build/lptm4c1294ncpdt/src/NeonRTOS/lwip/core/ipv4/acd.o
 .comment       0x00000000       0x71 .pio/build/lptm4c1294ncpdt/src/NeonRTOS/lwip/core/ipv4/autoip.o
 .comment       0x00000000       0x71 .pio/build/lptm4c1294ncpdt/src/NeonRTOS/lwip/core/ipv4/dhcp.o
 .comment       0x00000000       0x71 .pio/build/lptm4c1294ncpdt/src/NeonRTOS/lwip/core/ipv4/etharp.o
 .comment       0x00000000       0x71 .pio/build/lptm4c1294ncpdt/src/NeonRTOS/lwip/core/ipv4/icmp.o
 .comment       0x00000000       0x71 .pio/build/lptm4c1294ncpdt/src/NeonRTOS/lwip/core/ipv4/igmp.o
 .comment       0x00000000       0x71 .pio/build/lptm4c1294ncpdt/src/NeonRTOS/lwip/core/ipv4/ip4.o
 .comment       0x00000000       0x71 .pio/build/lptm4c1294ncpdt/src/NeonRTOS/lwip/core/ipv4/ip4_addr.o
 .comment       0x00000000       0x71 .pio/build/lptm4c1294ncpdt/src/NeonRTOS/lwip/core/ipv4/ip4_frag.o
 .comment       0x00000000       0x71 .pio/build/lptm4c1294ncpdt/src/NeonRTOS/lwip/core/ipv6/dhcp6.o
 .comment       0x00000000       0x71 .pio/build/lptm4c1294ncpdt/src/NeonRTOS/lwip/core/ipv6/ethip6.o
 .comment       0x00000000       0x71 .pio/build/lptm4c1294ncpdt/src/NeonRTOS/lwip/core/ipv6/icmp6.o
 .comment       0x00000000       0x71 .pio/build/lptm4c1294ncpdt/src/NeonRTOS/lwip/core/ipv6/inet6.o
 .comment       0x00000000       0x71 .pio/build/lptm4c1294ncpdt/src/NeonRTOS/lwip/core/ipv6/ip6.o
 .comment       0x00000000       0x71 .pio/build/lptm4c1294ncpdt/src/NeonRTOS/lwip/core/ipv6/ip6_addr.o
 .comment       0x00000000       0x71 .pio/build/lptm4c1294ncpdt/src/NeonRTOS/lwip/core/ipv6/ip6_frag.o
 .comment       0x00000000       0x71 .pio/build/lptm4c1294ncpdt/src/NeonRTOS/lwip/core/ipv6/mld6.o
 .comment       0x00000000       0x71 .pio/build/lptm4c1294ncpdt/src/NeonRTOS/lwip/core/ipv6/nd6.o
 .comment       0x00000000       0x71 .pio/build/lptm4c1294ncpdt/src/NeonRTOS/lwip/core/mem.o
 .comment       0x00000000       0x71 .pio/build/lptm4c1294ncpdt/src/NeonRTOS/lwip/core/memp.o
 .comment       0x00000000       0x71 .pio/build/lptm4c1294ncpdt/src/NeonRTOS/lwip/core/netif.o
 .comment       0x00000000       0x71 .pio/build/lptm4c1294ncpdt/src/NeonRTOS/lwip/core/pbuf.o
 .comment       0x00000000       0x71 .pio/build/lptm4c1294ncpdt/src/NeonRTOS/lwip/core/raw.o
 .comment       0x00000000       0x71 .pio/build/lptm4c1294ncpdt/src/NeonRTOS/lwip/core/stats.o
 .comment       0x00000000       0x71 .pio/build/lptm4c1294ncpdt/src/NeonRTOS/lwip/core/sys.o
 .comment       0x00000000       0x71 .pio/build/lptm4c1294ncpdt/src/NeonRTOS/lwip/core/tcp.o
 .comment       0x00000000       0x71 .pio/build/lptm4c1294ncpdt/src/NeonRTOS/lwip/core/tcp_in.o
 .comment       0x00000000       0x71 .pio/build/lptm4c1294ncpdt/src/NeonRTOS/lwip/core/tcp_out.o
 .comment       0x00000000       0x71 .pio/build/lptm4c1294ncpdt/src/NeonRTOS/lwip/core/timeouts.o
 .comment       0x00000000       0x71 .pio/build/lptm4c1294ncpdt/src/NeonRTOS/lwip/core/udp.o
 .comment       0x00000000       0x71 .pio/build/lptm4c1294ncpdt/src/NeonRTOS/lwip/netif/bridgeif.o
 .comment       0x00000000       0x71 .pio/build/lptm4c1294ncpdt/src/NeonRTOS/lwip/netif/bridgeif_fdb.o
 .comment       0x00000000       0x71 .pio/build/lptm4c1294ncpdt/src/NeonRTOS/lwip/netif/ethernet.o
 .comment       0x00000000       0x71 .pio/build/lptm4c1294ncpdt/src/NeonRTOS/lwip/netif/lowpan6.o
 .comment       0x00000000       0x71 .pio/build/lptm4c1294ncpdt/src/NeonRTOS/lwip/netif/lowpan6_ble.o
 .comment       0x00000000       0x71 .pio/build/lptm4c1294ncpdt/src/NeonRTOS/lwip/netif/lowpan6_common.o
 .comment       0x00000000       0x71 .pio/build/lptm4c1294ncpdt/src/NeonRTOS/lwip/netif/ppp/auth.o
 .comment       0x00000000       0x71 .pio/build/lptm4c1294ncpdt/src/NeonRTOS/lwip/netif/ppp/ccp.o
 .comment       0x00000000       0x71 .pio/build/lptm4c1294ncpdt/src/NeonRTOS/lwip/netif/ppp/chap-md5.o
 .comment       0x00000000       0x71 .pio/build/lptm4c1294ncpdt/src/NeonRTOS/lwip/netif/ppp/chap-new.o
 .comment       0x00000000       0x71 .pio/build/lptm4c1294ncpdt/src/NeonRTOS/lwip/netif/ppp/chap_ms.o
 .comment       0x00000000       0x71 .pio/build/lptm4c1294ncpdt/src/NeonRTOS/lwip/netif/ppp/demand.o
 .comment       0x00000000       0x71 .pio/build/lptm4c1294ncpdt/src/NeonRTOS/lwip/netif/ppp/eap.o
 .comment       0x00000000       0x71 .pio/build/lptm4c1294ncpdt/src/NeonRTOS/lwip/netif/ppp/ecp.o
 .comment       0x00000000       0x71 .pio/build/lptm4c1294ncpdt/src/NeonRTOS/lwip/netif/ppp/eui64.o
 .comment       0x00000000       0x71 .pio/build/lptm4c1294ncpdt/src/NeonRTOS/lwip/netif/ppp/fsm.o
 .comment       0x00000000       0x71 .pio/build/lptm4c1294ncpdt/src/NeonRTOS/lwip/netif/ppp/ipcp.o
 .comment       0x00000000       0x71 .pio/build/lptm4c1294ncpdt/src/NeonRTOS/lwip/netif/ppp/ipv6cp.o
 .comment       0x00000000       0x71 .pio/build/lptm4c1294ncpdt/src/NeonRTOS/lwip/netif/ppp/lcp.o
 .comment       0x00000000       0x71 .pio/build/lptm4c1294ncpdt/src/NeonRTOS/lwip/netif/ppp/magic.o
 .comment       0x00000000       0x71 .pio/build/lptm4c1294ncpdt/src/NeonRTOS/lwip/netif/ppp/mppe.o
 .comment       0x00000000       0x71 .pio/build/lptm4c1294ncpdt/src/NeonRTOS/lwip/netif/ppp/multilink.o
 .comment       0x00000000       0x71 .pio/build/lptm4c1294ncpdt/src/NeonRTOS/lwip/netif/ppp/polarssl/arc4.o
 .comment       0x00000000       0x71 .pio/build/lptm4c1294ncpdt/src/NeonRTOS/lwip/netif/ppp/polarssl/des.o
 .comment       0x00000000       0x71 .pio/build/lptm4c1294ncpdt/src/NeonRTOS/lwip/netif/ppp/polarssl/md4.o
 .comment       0x00000000       0x71 .pio/build/lptm4c1294ncpdt/src/NeonRTOS/lwip/netif/ppp/polarssl/md5.o
 .comment       0x00000000       0x71 .pio/build/lptm4c1294ncpdt/src/NeonRTOS/lwip/netif/ppp/polarssl/sha1.o
 .comment       0x00000000       0x71 .pio/build/lptm4c1294ncpdt/src/NeonRTOS/lwip/netif/ppp/ppp.o
 .comment       0x00000000       0x71 .pio/build/lptm4c1294ncpdt/src/NeonRTOS/lwip/netif/ppp/pppapi.o
 .comment       0x00000000       0x71 .pio/build/lptm4c1294ncpdt/src/NeonRTOS/lwip/netif/ppp/pppcrypt.o
 .comment       0x00000000       0x71 .pio/build/lptm4c1294ncpdt/src/NeonRTOS/lwip/netif/ppp/pppoe.o
 .comment       0x00000000       0x71 .pio/build/lptm4c1294ncpdt/src/NeonRTOS/lwip/netif/ppp/pppol2tp.o
 .comment       0x00000000       0x71 .pio/build/lptm4c1294ncpdt/src/NeonRTOS/lwip/netif/ppp/pppos.o
 .comment       0x00000000       0x71 .pio/build/lptm4c1294ncpdt/src/NeonRTOS/lwip/netif/ppp/upap.o
 .comment       0x00000000       0x71 .pio/build/lptm4c1294ncpdt/src/NeonRTOS/lwip/netif/ppp/utils.o
 .comment       0x00000000       0x71 .pio/build/lptm4c1294ncpdt/src/NeonRTOS/lwip/netif/ppp/vj.o
 .comment       0x00000000       0x71 .pio/build/lptm4c1294ncpdt/src/NeonRTOS/lwip/netif/zepif.o
 .comment       0x00000000       0x71 .pio/build/lptm4c1294ncpdt/src/main.o
 .comment       0x00000000       0x71 .pio/build/lptm4c1294ncpdt/src/stub_sbrk.o
 .comment       0x00000000       0x71 .pio/build/lptm4c1294ncpdt/src/wrap_malloc.o

.ARM.attributes
                0x00000000       0x35
 .ARM.attributes
                0x00000000       0x37 .pio/build/lptm4c1294ncpdt/src/APP/LED_PWM_API.o
 .ARM.attributes
                0x00000037       0x37 .pio/build/lptm4c1294ncpdt/src/APP/LED_PWM_APP.o
 .ARM.attributes
                0x0000006e       0x37 .pio/build/lptm4c1294ncpdt/src/Drivers/W-Link/Driver/GPIO/GPIO_TM4C1294.o
 .ARM.attributes
                0x000000a5       0x37 .pio/build/lptm4c1294ncpdt/src/Drivers/W-Link/Driver/GPIO/Pin/GPIO_Pin_TM4C1294.o
 .ARM.attributes
                0x000000dc       0x37 .pio/build/lptm4c1294ncpdt/src/Drivers/W-Link/Driver/PWM/PWM_TM4C1294.o
 .ARM.attributes
                0x00000113       0x37 .pio/build/lptm4c1294ncpdt/src/Drivers/W-Link/Driver/SysCtrl/SysCtrl_TM4C1294.o
 .ARM.attributes
                0x0000014a       0x37 .pio/build/lptm4c1294ncpdt/src/Drivers/W-Link/Driver/UART/UART_TM4C1294.o
 .ARM.attributes
                0x00000181       0x37 .pio/build/lptm4c1294ncpdt/src/Drivers/W-Link/Misc/Base64.o
 .ARM.attributes
                0x000001b8       0x37 .pio/build/lptm4c1294ncpdt/src/Drivers/W-Link/Misc/atoh.o
 .ARM.attributes
                0x000001ef       0x37 .pio/build/lptm4c1294ncpdt/src/Drivers/W-Link/Misc/ftoa.o
 .ARM.attributes
                0x00000226       0x37 .pio/build/lptm4c1294ncpdt/src/Drivers/W-Link/Misc/htoa.o
 .ARM.attributes
                0x0000025d       0x37 .pio/build/lptm4c1294ncpdt/src/Drivers/W-Link/Misc/itoa.o
 .ARM.attributes
                0x00000294       0x37 .pio/build/lptm4c1294ncpdt/src/Drivers/W-Link/Misc/sha1.o
 .ARM.attributes
                0x000002cb       0x37 .pio/build/lptm4c1294ncpdt/src/Drivers/W-Link/cJSON/cJSON.o
 .ARM.attributes
                0x00000302       0x37 .pio/build/lptm4c1294ncpdt/src/Drivers/ethernetif/ethernetif_tm4c1294.o
 .ARM.attributes
                0x00000339       0x37 .pio/build/lptm4c1294ncpdt/src/Drivers/soc/driverlib/adc.o
 .ARM.attributes
                0x00000370       0x37 .pio/build/lptm4c1294ncpdt/src/Drivers/soc/driverlib/aes.o
 .ARM.attributes
                0x000003a7       0x37 .pio/build/lptm4c1294ncpdt/src/Drivers/soc/driverlib/can.o
 .ARM.attributes
                0x000003de       0x37 .pio/build/lptm4c1294ncpdt/src/Drivers/soc/driverlib/comp.o
 .ARM.attributes
                0x00000415       0x37 .pio/build/lptm4c1294ncpdt/src/Drivers/soc/driverlib/cpu.o
 .ARM.attributes
                0x0000044c       0x37 .pio/build/lptm4c1294ncpdt/src/Drivers/soc/driverlib/crc.o
 .ARM.attributes
                0x00000483       0x37 .pio/build/lptm4c1294ncpdt/src/Drivers/soc/driverlib/des.o
 .ARM.attributes
                0x000004ba       0x37 .pio/build/lptm4c1294ncpdt/src/Drivers/soc/driverlib/eeprom.o
 .ARM.attributes
                0x000004f1       0x37 .pio/build/lptm4c1294ncpdt/src/Drivers/soc/driverlib/emac.o
 .ARM.attributes
                0x00000528       0x37 .pio/build/lptm4c1294ncpdt/src/Drivers/soc/driverlib/epi.o
 .ARM.attributes
                0x0000055f       0x37 .pio/build/lptm4c1294ncpdt/src/Drivers/soc/driverlib/flash.o
 .ARM.attributes
                0x00000596       0x37 .pio/build/lptm4c1294ncpdt/src/Drivers/soc/driverlib/fpu.o
 .ARM.attributes
                0x000005cd       0x37 .pio/build/lptm4c1294ncpdt/src/Drivers/soc/driverlib/gpio.o
 .ARM.attributes
                0x00000604       0x37 .pio/build/lptm4c1294ncpdt/src/Drivers/soc/driverlib/hibernate.o
 .ARM.attributes
                0x0000063b       0x37 .pio/build/lptm4c1294ncpdt/src/Drivers/soc/driverlib/i2c.o
 .ARM.attributes
                0x00000672       0x37 .pio/build/lptm4c1294ncpdt/src/Drivers/soc/driverlib/interrupt.o
 .ARM.attributes
                0x000006a9       0x37 .pio/build/lptm4c1294ncpdt/src/Drivers/soc/driverlib/lcd.o
 .ARM.attributes
                0x000006e0       0x37 .pio/build/lptm4c1294ncpdt/src/Drivers/soc/driverlib/mpu.o
 .ARM.attributes
                0x00000717       0x37 .pio/build/lptm4c1294ncpdt/src/Drivers/soc/driverlib/onewire.o
 .ARM.attributes
                0x0000074e       0x37 .pio/build/lptm4c1294ncpdt/src/Drivers/soc/driverlib/pwm.o
 .ARM.attributes
                0x00000785       0x37 .pio/build/lptm4c1294ncpdt/src/Drivers/soc/driverlib/qei.o
 .ARM.attributes
                0x000007bc       0x37 .pio/build/lptm4c1294ncpdt/src/Drivers/soc/driverlib/shamd5.o
 .ARM.attributes
                0x000007f3       0x37 .pio/build/lptm4c1294ncpdt/src/Drivers/soc/driverlib/ssi.o
 .ARM.attributes
                0x0000082a       0x37 .pio/build/lptm4c1294ncpdt/src/Drivers/soc/driverlib/sw_crc.o
 .ARM.attributes
                0x00000861       0x37 .pio/build/lptm4c1294ncpdt/src/Drivers/soc/driverlib/sysctl.o
 .ARM.attributes
                0x00000898       0x37 .pio/build/lptm4c1294ncpdt/src/Drivers/soc/driverlib/sysexc.o
 .ARM.attributes
                0x000008cf       0x37 .pio/build/lptm4c1294ncpdt/src/Drivers/soc/driverlib/systick.o
 .ARM.attributes
                0x00000906       0x37 .pio/build/lptm4c1294ncpdt/src/Drivers/soc/driverlib/timer.o
 .ARM.attributes
                0x0000093d       0x37 .pio/build/lptm4c1294ncpdt/src/Drivers/soc/driverlib/uart.o
 .ARM.attributes
                0x00000974       0x37 .pio/build/lptm4c1294ncpdt/src/Drivers/soc/driverlib/udma.o
 .ARM.attributes
                0x000009ab       0x37 .pio/build/lptm4c1294ncpdt/src/Drivers/soc/driverlib/usb.o
 .ARM.attributes
                0x000009e2       0x37 .pio/build/lptm4c1294ncpdt/src/Drivers/soc/driverlib/watchdog.o
 .ARM.attributes
                0x00000a19       0x37 .pio/build/lptm4c1294ncpdt/src/Drivers/soc/startup_gcc.o
 .ARM.attributes
                0x00000a50       0x37 .pio/build/lptm4c1294ncpdt/src/NeonRTOS/HTTPd/HTTPd.o
 .ARM.attributes
                0x00000a87       0x37 .pio/build/lptm4c1294ncpdt/src/NeonRTOS/HTTPd/HTTPd_Utils.o
 .ARM.attributes
                0x00000abe       0x37 .pio/build/lptm4c1294ncpdt/src/NeonRTOS/HTTPd/HTTPd_def.o
 .ARM.attributes
                0x00000af5       0x37 .pio/build/lptm4c1294ncpdt/src/NeonRTOS/HTTPd/NeonRtFs.o
 .ARM.attributes
                0x00000b2c       0x37 .pio/build/lptm4c1294ncpdt/src/NeonRTOS/HTTPd/heatshrink_decoder.o
 .ARM.attributes
                0x00000b63       0x37 .pio/build/lptm4c1294ncpdt/src/NeonRTOS/HTTPd/neonrtfs_img.o
 .ARM.attributes
                0x00000b9a       0x37 .pio/build/lptm4c1294ncpdt/src/NeonRTOS/NeonAppInterface.o
 .ARM.attributes
                0x00000bd1       0x37 .pio/build/lptm4c1294ncpdt/src/NeonRTOS/NeonRTOS.o
 .ARM.attributes
                0x00000c08       0x37 .pio/build/lptm4c1294ncpdt/src/NeonRTOS/NeonTCPIP.o
 .ARM.attributes
                0x00000c3f       0x37 .pio/build/lptm4c1294ncpdt/src/NeonRTOS/kernel/croutine.o
 .ARM.attributes
                0x00000c76       0x37 .pio/build/lptm4c1294ncpdt/src/NeonRTOS/kernel/event_groups.o
 .ARM.attributes
                0x00000cad       0x37 .pio/build/lptm4c1294ncpdt/src/NeonRTOS/kernel/list.o
 .ARM.attributes
                0x00000ce4       0x37 .pio/build/lptm4c1294ncpdt/src/NeonRTOS/kernel/portable/GCC/ARM_CM4F/port.o
 .ARM.attributes
                0x00000d1b       0x37 .pio/build/lptm4c1294ncpdt/src/NeonRTOS/kernel/portable/MemMang/heap_4.o
 .ARM.attributes
                0x00000d52       0x37 .pio/build/lptm4c1294ncpdt/src/NeonRTOS/kernel/queue.o
 .ARM.attributes
                0x00000d89       0x37 .pio/build/lptm4c1294ncpdt/src/NeonRTOS/kernel/stream_buffer.o
 .ARM.attributes
                0x00000dc0       0x37 .pio/build/lptm4c1294ncpdt/src/NeonRTOS/kernel/tasks.o
 .ARM.attributes
                0x00000df7       0x37 .pio/build/lptm4c1294ncpdt/src/NeonRTOS/kernel/timers.o
 .ARM.attributes
                0x00000e2e       0x37 .pio/build/lptm4c1294ncpdt/src/NeonRTOS/lwip/api/api_lib.o
 .ARM.attributes
                0x00000e65       0x37 .pio/build/lptm4c1294ncpdt/src/NeonRTOS/lwip/api/api_msg.o
 .ARM.attributes
                0x00000e9c       0x37 .pio/build/lptm4c1294ncpdt/src/NeonRTOS/lwip/api/err.o
 .ARM.attributes
                0x00000ed3       0x37 .pio/build/lptm4c1294ncpdt/src/NeonRTOS/lwip/api/if_api.o
 .ARM.attributes
                0x00000f0a       0x37 .pio/build/lptm4c1294ncpdt/src/NeonRTOS/lwip/api/netbuf.o
 .ARM.attributes
                0x00000f41       0x37 .pio/build/lptm4c1294ncpdt/src/NeonRTOS/lwip/api/netdb.o
 .ARM.attributes
                0x00000f78       0x37 .pio/build/lptm4c1294ncpdt/src/NeonRTOS/lwip/api/netifapi.o
 .ARM.attributes
                0x00000faf       0x37 .pio/build/lptm4c1294ncpdt/src/NeonRTOS/lwip/api/sockets.o
 .ARM.attributes
                0x00000fe6       0x37 .pio/build/lptm4c1294ncpdt/src/NeonRTOS/lwip/api/tcpip.o
 .ARM.attributes
                0x0000101d       0x37 .pio/build/lptm4c1294ncpdt/src/NeonRTOS/lwip/arch/sys_arch.o
 .ARM.attributes
                0x00001054       0x37 .pio/build/lptm4c1294ncpdt/src/NeonRTOS/lwip/core/altcp.o
 .ARM.attributes
                0x0000108b       0x37 .pio/build/lptm4c1294ncpdt/src/NeonRTOS/lwip/core/altcp_alloc.o
 .ARM.attributes
                0x000010c2       0x37 .pio/build/lptm4c1294ncpdt/src/NeonRTOS/lwip/core/altcp_tcp.o
 .ARM.attributes
                0x000010f9       0x37 .pio/build/lptm4c1294ncpdt/src/NeonRTOS/lwip/core/def.o
 .ARM.attributes
                0x00001130       0x37 .pio/build/lptm4c1294ncpdt/src/NeonRTOS/lwip/core/dns.o
 .ARM.attributes
                0x00001167       0x37 .pio/build/lptm4c1294ncpdt/src/NeonRTOS/lwip/core/inet_chksum.o
 .ARM.attributes
                0x0000119e       0x37 .pio/build/lptm4c1294ncpdt/src/NeonRTOS/lwip/core/init.o
 .ARM.attributes
                0x000011d5       0x37 .pio/build/lptm4c1294ncpdt/src/NeonRTOS/lwip/core/ip.o
 .ARM.attributes
                0x0000120c       0x37 .pio/build/lptm4c1294ncpdt/src/NeonRTOS/lwip/core/ipv4/acd.o
 .ARM.attributes
                0x00001243       0x37 .pio/build/lptm4c1294ncpdt/src/NeonRTOS/lwip/core/ipv4/autoip.o
 .ARM.attributes
                0x0000127a       0x37 .pio/build/lptm4c1294ncpdt/src/NeonRTOS/lwip/core/ipv4/dhcp.o
 .ARM.attributes
                0x000012b1       0x37 .pio/build/lptm4c1294ncpdt/src/NeonRTOS/lwip/core/ipv4/etharp.o
 .ARM.attributes
                0x000012e8       0x37 .pio/build/lptm4c1294ncpdt/src/NeonRTOS/lwip/core/ipv4/icmp.o
 .ARM.attributes
                0x0000131f       0x37 .pio/build/lptm4c1294ncpdt/src/NeonRTOS/lwip/core/ipv4/igmp.o
 .ARM.attributes
                0x00001356       0x37 .pio/build/lptm4c1294ncpdt/src/NeonRTOS/lwip/core/ipv4/ip4.o
 .ARM.attributes
                0x0000138d       0x37 .pio/build/lptm4c1294ncpdt/src/NeonRTOS/lwip/core/ipv4/ip4_addr.o
 .ARM.attributes
                0x000013c4       0x37 .pio/build/lptm4c1294ncpdt/src/NeonRTOS/lwip/core/ipv4/ip4_frag.o
 .ARM.attributes
                0x000013fb       0x37 .pio/build/lptm4c1294ncpdt/src/NeonRTOS/lwip/core/ipv6/dhcp6.o
 .ARM.attributes
                0x00001432       0x37 .pio/build/lptm4c1294ncpdt/src/NeonRTOS/lwip/core/ipv6/ethip6.o
 .ARM.attributes
                0x00001469       0x37 .pio/build/lptm4c1294ncpdt/src/NeonRTOS/lwip/core/ipv6/icmp6.o
 .ARM.attributes
                0x000014a0       0x37 .pio/build/lptm4c1294ncpdt/src/NeonRTOS/lwip/core/ipv6/inet6.o
 .ARM.attributes
                0x000014d7       0x37 .pio/build/lptm4c1294ncpdt/src/NeonRTOS/lwip/core/ipv6/ip6.o
 .ARM.attributes
                0x0000150e       0x37 .pio/build/lptm4c1294ncpdt/src/NeonRTOS/lwip/core/ipv6/ip6_addr.o
 .ARM.attributes
                0x00001545       0x37 .pio/build/lptm4c1294ncpdt/src/NeonRTOS/lwip/core/ipv6/ip6_frag.o
 .ARM.attributes
                0x0000157c       0x37 .pio/build/lptm4c1294ncpdt/src/NeonRTOS/lwip/core/ipv6/mld6.o
 .ARM.attributes
                0x000015b3       0x37 .pio/build/lptm4c1294ncpdt/src/NeonRTOS/lwip/core/ipv6/nd6.o
 .ARM.attributes
                0x000015ea       0x37 .pio/build/lptm4c1294ncpdt/src/NeonRTOS/lwip/core/mem.o
 .ARM.attributes
                0x00001621       0x37 .pio/build/lptm4c1294ncpdt/src/NeonRTOS/lwip/core/memp.o
 .ARM.attributes
                0x00001658       0x37 .pio/build/lptm4c1294ncpdt/src/NeonRTOS/lwip/core/netif.o
 .ARM.attributes
                0x0000168f       0x37 .pio/build/lptm4c1294ncpdt/src/NeonRTOS/lwip/core/pbuf.o
 .ARM.attributes
                0x000016c6       0x37 .pio/build/lptm4c1294ncpdt/src/NeonRTOS/lwip/core/raw.o
 .ARM.attributes
                0x000016fd       0x37 .pio/build/lptm4c1294ncpdt/src/NeonRTOS/lwip/core/stats.o
 .ARM.attributes
                0x00001734       0x37 .pio/build/lptm4c1294ncpdt/src/NeonRTOS/lwip/core/sys.o
 .ARM.attributes
                0x0000176b       0x37 .pio/build/lptm4c1294ncpdt/src/NeonRTOS/lwip/core/tcp.o
 .ARM.attributes
                0x000017a2       0x37 .pio/build/lptm4c1294ncpdt/src/NeonRTOS/lwip/core/tcp_in.o
 .ARM.attributes
                0x000017d9       0x37 .pio/build/lptm4c1294ncpdt/src/NeonRTOS/lwip/core/tcp_out.o
 .ARM.attributes
                0x00001810       0x37 .pio/build/lptm4c1294ncpdt/src/NeonRTOS/lwip/core/timeouts.o
 .ARM.attributes
                0x00001847       0x37 .pio/build/lptm4c1294ncpdt/src/NeonRTOS/lwip/core/udp.o
 .ARM.attributes
                0x0000187e       0x37 .pio/build/lptm4c1294ncpdt/src/NeonRTOS/lwip/netif/bridgeif.o
 .ARM.attributes
                0x000018b5       0x37 .pio/build/lptm4c1294ncpdt/src/NeonRTOS/lwip/netif/bridgeif_fdb.o
 .ARM.attributes
                0x000018ec       0x37 .pio/build/lptm4c1294ncpdt/src/NeonRTOS/lwip/netif/ethernet.o
 .ARM.attributes
                0x00001923       0x37 .pio/build/lptm4c1294ncpdt/src/NeonRTOS/lwip/netif/lowpan6.o
 .ARM.attributes
                0x0000195a       0x37 .pio/build/lptm4c1294ncpdt/src/NeonRTOS/lwip/netif/lowpan6_ble.o
 .ARM.attributes
                0x00001991       0x37 .pio/build/lptm4c1294ncpdt/src/NeonRTOS/lwip/netif/lowpan6_common.o
 .ARM.attributes
                0x000019c8       0x37 .pio/build/lptm4c1294ncpdt/src/NeonRTOS/lwip/netif/ppp/auth.o
 .ARM.attributes
                0x000019ff       0x37 .pio/build/lptm4c1294ncpdt/src/NeonRTOS/lwip/netif/ppp/ccp.o
 .ARM.attributes
                0x00001a36       0x37 .pio/build/lptm4c1294ncpdt/src/NeonRTOS/lwip/netif/ppp/chap-md5.o
 .ARM.attributes
                0x00001a6d       0x37 .pio/build/lptm4c1294ncpdt/src/NeonRTOS/lwip/netif/ppp/chap-new.o
 .ARM.attributes
                0x00001aa4       0x37 .pio/build/lptm4c1294ncpdt/src/NeonRTOS/lwip/netif/ppp/chap_ms.o
 .ARM.attributes
                0x00001adb       0x37 .pio/build/lptm4c1294ncpdt/src/NeonRTOS/lwip/netif/ppp/demand.o
 .ARM.attributes
                0x00001b12       0x37 .pio/build/lptm4c1294ncpdt/src/NeonRTOS/lwip/netif/ppp/eap.o
 .ARM.attributes
                0x00001b49       0x37 .pio/build/lptm4c1294ncpdt/src/NeonRTOS/lwip/netif/ppp/ecp.o
 .ARM.attributes
                0x00001b80       0x37 .pio/build/lptm4c1294ncpdt/src/NeonRTOS/lwip/netif/ppp/eui64.o
 .ARM.attributes
                0x00001bb7       0x37 .pio/build/lptm4c1294ncpdt/src/NeonRTOS/lwip/netif/ppp/fsm.o
 .ARM.attributes
                0x00001bee       0x37 .pio/build/lptm4c1294ncpdt/src/NeonRTOS/lwip/netif/ppp/ipcp.o
 .ARM.attributes
                0x00001c25       0x37 .pio/build/lptm4c1294ncpdt/src/NeonRTOS/lwip/netif/ppp/ipv6cp.o
 .ARM.attributes
                0x00001c5c       0x37 .pio/build/lptm4c1294ncpdt/src/NeonRTOS/lwip/netif/ppp/lcp.o
 .ARM.attributes
                0x00001c93       0x37 .pio/build/lptm4c1294ncpdt/src/NeonRTOS/lwip/netif/ppp/magic.o
 .ARM.attributes
                0x00001cca       0x37 .pio/build/lptm4c1294ncpdt/src/NeonRTOS/lwip/netif/ppp/mppe.o
 .ARM.attributes
                0x00001d01       0x37 .pio/build/lptm4c1294ncpdt/src/NeonRTOS/lwip/netif/ppp/multilink.o
 .ARM.attributes
                0x00001d38       0x37 .pio/build/lptm4c1294ncpdt/src/NeonRTOS/lwip/netif/ppp/polarssl/arc4.o
 .ARM.attributes
                0x00001d6f       0x37 .pio/build/lptm4c1294ncpdt/src/NeonRTOS/lwip/netif/ppp/polarssl/des.o
 .ARM.attributes
                0x00001da6       0x37 .pio/build/lptm4c1294ncpdt/src/NeonRTOS/lwip/netif/ppp/polarssl/md4.o
 .ARM.attributes
                0x00001ddd       0x37 .pio/build/lptm4c1294ncpdt/src/NeonRTOS/lwip/netif/ppp/polarssl/md5.o
 .ARM.attributes
                0x00001e14       0x37 .pio/build/lptm4c1294ncpdt/src/NeonRTOS/lwip/netif/ppp/polarssl/sha1.o
 .ARM.attributes
                0x00001e4b       0x37 .pio/build/lptm4c1294ncpdt/src/NeonRTOS/lwip/netif/ppp/ppp.o
 .ARM.attributes
                0x00001e82       0x37 .pio/build/lptm4c1294ncpdt/src/NeonRTOS/lwip/netif/ppp/pppapi.o
 .ARM.attributes
                0x00001eb9       0x37 .pio/build/lptm4c1294ncpdt/src/NeonRTOS/lwip/netif/ppp/pppcrypt.o
 .ARM.attributes
                0x00001ef0       0x37 .pio/build/lptm4c1294ncpdt/src/NeonRTOS/lwip/netif/ppp/pppoe.o
 .ARM.attributes
                0x00001f27       0x37 .pio/build/lptm4c1294ncpdt/src/NeonRTOS/lwip/netif/ppp/pppol2tp.o
 .ARM.attributes
                0x00001f5e       0x37 .pio/build/lptm4c1294ncpdt/src/NeonRTOS/lwip/netif/ppp/pppos.o
 .ARM.attributes
                0x00001f95       0x37 .pio/build/lptm4c1294ncpdt/src/NeonRTOS/lwip/netif/ppp/upap.o
 .ARM.attributes
                0x00001fcc       0x37 .pio/build/lptm4c1294ncpdt/src/NeonRTOS/lwip/netif/ppp/utils.o
 .ARM.attributes
                0x00002003       0x37 .pio/build/lptm4c1294ncpdt/src/NeonRTOS/lwip/netif/ppp/vj.o
 .ARM.attributes
                0x0000203a       0x37 .pio/build/lptm4c1294ncpdt/src/NeonRTOS/lwip/netif/zepif.o
 .ARM.attributes
                0x00002071       0x37 .pio/build/lptm4c1294ncpdt/src/main.o
 .ARM.attributes
                0x000020a8       0x37 .pio/build/lptm4c1294ncpdt/src/stub_sbrk.o
 .ARM.attributes
                0x000020df       0x37 .pio/build/lptm4c1294ncpdt/src/wrap_malloc.o
 .ARM.attributes
                0x00002116       0x2e c:/users/user/.platformio/packages/toolchain-gccarmnoneeabi@1.40804.0/bin/../lib/gcc/arm-none-eabi/4.8.4/../../../../arm-none-eabi/lib/armv7e-m\libc.a(lib_a-atoi.o)
 .ARM.attributes
                0x00002144       0x2e c:/users/user/.platformio/packages/toolchain-gccarmnoneeabi@1.40804.0/bin/../lib/gcc/arm-none-eabi/4.8.4/../../../../arm-none-eabi/lib/armv7e-m\libc.a(lib_a-ctype_.o)
 .ARM.attributes
                0x00002172       0x2e c:/users/user/.platformio/packages/toolchain-gccarmnoneeabi@1.40804.0/bin/../lib/gcc/arm-none-eabi/4.8.4/../../../../arm-none-eabi/lib/armv7e-m\libc.a(lib_a-isspace.o)
 .ARM.attributes
                0x000021a0       0x2e c:/users/user/.platformio/packages/toolchain-gccarmnoneeabi@1.40804.0/bin/../lib/gcc/arm-none-eabi/4.8.4/../../../../arm-none-eabi/lib/armv7e-m\libc.a(lib_a-memcmp.o)
 .ARM.attributes
                0x000021ce       0x1c c:/users/user/.platformio/packages/toolchain-gccarmnoneeabi@1.40804.0/bin/../lib/gcc/arm-none-eabi/4.8.4/../../../../arm-none-eabi/lib/armv7e-m\libc.a(lib_a-memcpy.o)
 .ARM.attributes
                0x000021ea       0x2e c:/users/user/.platformio/packages/toolchain-gccarmnoneeabi@1.40804.0/bin/../lib/gcc/arm-none-eabi/4.8.4/../../../../arm-none-eabi/lib/armv7e-m\libc.a(lib_a-memmove.o)
 .ARM.attributes
                0x00002218       0x2e c:/users/user/.platformio/packages/toolchain-gccarmnoneeabi@1.40804.0/bin/../lib/gcc/arm-none-eabi/4.8.4/../../../../arm-none-eabi/lib/armv7e-m\libc.a(lib_a-memset.o)
 .ARM.attributes
                0x00002246       0x2e c:/users/user/.platformio/packages/toolchain-gccarmnoneeabi@1.40804.0/bin/../lib/gcc/arm-none-eabi/4.8.4/../../../../arm-none-eabi/lib/armv7e-m\libc.a(lib_a-rand.o)
 .ARM.attributes
                0x00002274       0x2e c:/users/user/.platformio/packages/toolchain-gccarmnoneeabi@1.40804.0/bin/../lib/gcc/arm-none-eabi/4.8.4/../../../../arm-none-eabi/lib/armv7e-m\libc.a(lib_a-reent.o)
 .ARM.attributes
                0x000022a2       0x2e c:/users/user/.platformio/packages/toolchain-gccarmnoneeabi@1.40804.0/bin/../lib/gcc/arm-none-eabi/4.8.4/../../../../arm-none-eabi/lib/armv7e-m\libc.a(lib_a-s_fpclassify.o)
 .ARM.attributes
                0x000022d0       0x2e c:/users/user/.platformio/packages/toolchain-gccarmnoneeabi@1.40804.0/bin/../lib/gcc/arm-none-eabi/4.8.4/../../../../arm-none-eabi/lib/armv7e-m\libc.a(lib_a-snprintf.o)
 .ARM.attributes
                0x000022fe       0x2e c:/users/user/.platformio/packages/toolchain-gccarmnoneeabi@1.40804.0/bin/../lib/gcc/arm-none-eabi/4.8.4/../../../../arm-none-eabi/lib/armv7e-m\libc.a(lib_a-sprintf.o)
 .ARM.attributes
                0x0000232c       0x2e c:/users/user/.platformio/packages/toolchain-gccarmnoneeabi@1.40804.0/bin/../lib/gcc/arm-none-eabi/4.8.4/../../../../arm-none-eabi/lib/armv7e-m\libc.a(lib_a-strcat.o)
 .ARM.attributes
                0x0000235a       0x2e c:/users/user/.platformio/packages/toolchain-gccarmnoneeabi@1.40804.0/bin/../lib/gcc/arm-none-eabi/4.8.4/../../../../arm-none-eabi/lib/armv7e-m\libc.a(lib_a-strchr.o)
 .ARM.attributes
                0x00002388       0x1c c:/users/user/.platformio/packages/toolchain-gccarmnoneeabi@1.40804.0/bin/../lib/gcc/arm-none-eabi/4.8.4/../../../../arm-none-eabi/lib/armv7e-m\libc.a(lib_a-strcmp.o)
 .ARM.attributes
                0x000023a4       0x2e c:/users/user/.platformio/packages/toolchain-gccarmnoneeabi@1.40804.0/bin/../lib/gcc/arm-none-eabi/4.8.4/../../../../arm-none-eabi/lib/armv7e-m\libc.a(lib_a-strcpy.o)
 .ARM.attributes
                0x000023d2       0x2e c:/users/user/.platformio/packages/toolchain-gccarmnoneeabi@1.40804.0/bin/../lib/gcc/arm-none-eabi/4.8.4/../../../../arm-none-eabi/lib/armv7e-m\libc.a(lib_a-strlen.o)
 .ARM.attributes
                0x00002400       0x2e c:/users/user/.platformio/packages/toolchain-gccarmnoneeabi@1.40804.0/bin/../lib/gcc/arm-none-eabi/4.8.4/../../../../arm-none-eabi/lib/armv7e-m\libc.a(lib_a-strncmp.o)
 .ARM.attributes
                0x0000242e       0x2e c:/users/user/.platformio/packages/toolchain-gccarmnoneeabi@1.40804.0/bin/../lib/gcc/arm-none-eabi/4.8.4/../../../../arm-none-eabi/lib/armv7e-m\libc.a(lib_a-strncpy.o)
 .ARM.attributes
                0x0000245c       0x2e c:/users/user/.platformio/packages/toolchain-gccarmnoneeabi@1.40804.0/bin/../lib/gcc/arm-none-eabi/4.8.4/../../../../arm-none-eabi/lib/armv7e-m\libc.a(lib_a-strstr.o)
 .ARM.attributes
                0x0000248a       0x2e c:/users/user/.platformio/packages/toolchain-gccarmnoneeabi@1.40804.0/bin/../lib/gcc/arm-none-eabi/4.8.4/../../../../arm-none-eabi/lib/armv7e-m\libc.a(lib_a-strtol.o)
 .ARM.attributes
                0x000024b8       0x2e c:/users/user/.platformio/packages/toolchain-gccarmnoneeabi@1.40804.0/bin/../lib/gcc/arm-none-eabi/4.8.4/../../../../arm-none-eabi/lib/armv7e-m\libc.a(lib_a-svfprintf.o)
 .ARM.attributes
                0x000024e6       0x2e c:/users/user/.platformio/packages/toolchain-gccarmnoneeabi@1.40804.0/bin/../lib/gcc/arm-none-eabi/4.8.4/../../../../arm-none-eabi/lib/armv7e-m\libc.a(lib_a-vsnprintf.o)
 .ARM.attributes
                0x00002514       0x2e c:/users/user/.platformio/packages/toolchain-gccarmnoneeabi@1.40804.0/bin/../lib/gcc/arm-none-eabi/4.8.4/../../../../arm-none-eabi/lib/armv7e-m\libc.a(lib_a-dtoa.o)
 .ARM.attributes
                0x00002542       0x2e c:/users/user/.platformio/packages/toolchain-gccarmnoneeabi@1.40804.0/bin/../lib/gcc/arm-none-eabi/4.8.4/../../../../arm-none-eabi/lib/armv7e-m\libc.a(lib_a-impure.o)
 .ARM.attributes
                0x00002570       0x2e c:/users/user/.platformio/packages/toolchain-gccarmnoneeabi@1.40804.0/bin/../lib/gcc/arm-none-eabi/4.8.4/../../../../arm-none-eabi/lib/armv7e-m\libc.a(lib_a-locale.o)
 .ARM.attributes
                0x0000259e       0x2e c:/users/user/.platformio/packages/toolchain-gccarmnoneeabi@1.40804.0/bin/../lib/gcc/arm-none-eabi/4.8.4/../../../../arm-none-eabi/lib/armv7e-m\libc.a(lib_a-memchr-stub.o)
 .ARM.attributes
                0x000025cc       0x2e c:/users/user/.platformio/packages/toolchain-gccarmnoneeabi@1.40804.0/bin/../lib/gcc/arm-none-eabi/4.8.4/../../../../arm-none-eabi/lib/armv7e-m\libc.a(lib_a-mprec.o)
 .ARM.attributes
                0x000025fa       0x2e c:/users/user/.platformio/packages/toolchain-gccarmnoneeabi@1.40804.0/bin/../lib/gcc/arm-none-eabi/4.8.4/../../../../arm-none-eabi/lib/armv7e-m\libc.a(lib_a-svfiprintf.o)
 .ARM.attributes
                0x00002628       0x1e c:/users/user/.platformio/packages/toolchain-gccarmnoneeabi@1.40804.0/bin/../lib/gcc/arm-none-eabi/4.8.4/armv7e-m\libgcc.a(_arm_addsubdf3.o)
 .ARM.attributes
                0x00002646       0x1e c:/users/user/.platformio/packages/toolchain-gccarmnoneeabi@1.40804.0/bin/../lib/gcc/arm-none-eabi/4.8.4/armv7e-m\libgcc.a(_arm_muldivdf3.o)
 .ARM.attributes
                0x00002664       0x1e c:/users/user/.platformio/packages/toolchain-gccarmnoneeabi@1.40804.0/bin/../lib/gcc/arm-none-eabi/4.8.4/armv7e-m\libgcc.a(_arm_cmpdf2.o)
 .ARM.attributes
                0x00002682       0x1e c:/users/user/.platformio/packages/toolchain-gccarmnoneeabi@1.40804.0/bin/../lib/gcc/arm-none-eabi/4.8.4/armv7e-m\libgcc.a(_arm_fixdfsi.o)
 .ARM.attributes
                0x000026a0       0x1e c:/users/user/.platformio/packages/toolchain-gccarmnoneeabi@1.40804.0/bin/../lib/gcc/arm-none-eabi/4.8.4/armv7e-m\libgcc.a(_aeabi_uldivmod.o)
 .ARM.attributes
                0x000026be       0x2e c:/users/user/.platformio/packages/toolchain-gccarmnoneeabi@1.40804.0/bin/../lib/gcc/arm-none-eabi/4.8.4/armv7e-m\libgcc.a(bpabi.o)
 .ARM.attributes
                0x000026ec       0x1e c:/users/user/.platformio/packages/toolchain-gccarmnoneeabi@1.40804.0/bin/../lib/gcc/arm-none-eabi/4.8.4/armv7e-m\libgcc.a(_dvmd_tls.o)
 .ARM.attributes
                0x0000270a       0x2e c:/users/user/.platformio/packages/toolchain-gccarmnoneeabi@1.40804.0/bin/../lib/gcc/arm-none-eabi/4.8.4/armv7e-m\libgcc.a(_divdi3.o)
 .ARM.attributes
                0x00002738       0x2e c:/users/user/.platformio/packages/toolchain-gccarmnoneeabi@1.40804.0/bin/../lib/gcc/arm-none-eabi/4.8.4/armv7e-m\libgcc.a(_udivdi3.o)
 .ARM.attributes
                0x00002766       0x2e c:/users/user/.platformio/packages/toolchain-gccarmnoneeabi@1.40804.0/bin/../lib/gcc/arm-none-eabi/4.8.4/../../../../arm-none-eabi/lib/armv7e-m\libm.a(lib_a-w_pow.o)
 .ARM.attributes
                0x00002794       0x2e c:/users/user/.platformio/packages/toolchain-gccarmnoneeabi@1.40804.0/bin/../lib/gcc/arm-none-eabi/4.8.4/../../../../arm-none-eabi/lib/armv7e-m\libm.a(lib_a-e_pow.o)
 .ARM.attributes
                0x000027c2       0x2e c:/users/user/.platformio/packages/toolchain-gccarmnoneeabi@1.40804.0/bin/../lib/gcc/arm-none-eabi/4.8.4/../../../../arm-none-eabi/lib/armv7e-m\libm.a(lib_a-e_sqrt.o)
 .ARM.attributes
                0x000027f0       0x2e c:/users/user/.platformio/packages/toolchain-gccarmnoneeabi@1.40804.0/bin/../lib/gcc/arm-none-eabi/4.8.4/../../../../arm-none-eabi/lib/armv7e-m\libm.a(lib_a-s_fabs.o)
 .ARM.attributes
                0x0000281e       0x2e c:/users/user/.platformio/packages/toolchain-gccarmnoneeabi@1.40804.0/bin/../lib/gcc/arm-none-eabi/4.8.4/../../../../arm-none-eabi/lib/armv7e-m\libm.a(lib_a-s_finite.o)
 .ARM.attributes
                0x0000284c       0x2e c:/users/user/.platformio/packages/toolchain-gccarmnoneeabi@1.40804.0/bin/../lib/gcc/arm-none-eabi/4.8.4/../../../../arm-none-eabi/lib/armv7e-m\libm.a(lib_a-s_lib_ver.o)
 .ARM.attributes
                0x0000287a       0x2e c:/users/user/.platformio/packages/toolchain-gccarmnoneeabi@1.40804.0/bin/../lib/gcc/arm-none-eabi/4.8.4/../../../../arm-none-eabi/lib/armv7e-m\libm.a(lib_a-s_matherr.o)
 .ARM.attributes
                0x000028a8       0x2e c:/users/user/.platformio/packages/toolchain-gccarmnoneeabi@1.40804.0/bin/../lib/gcc/arm-none-eabi/4.8.4/../../../../arm-none-eabi/lib/armv7e-m\libm.a(lib_a-s_nan.o)
 .ARM.attributes
                0x000028d6       0x2e c:/users/user/.platformio/packages/toolchain-gccarmnoneeabi@1.40804.0/bin/../lib/gcc/arm-none-eabi/4.8.4/../../../../arm-none-eabi/lib/armv7e-m\libm.a(lib_a-s_rint.o)
 .ARM.attributes
                0x00002904       0x2e c:/users/user/.platformio/packages/toolchain-gccarmnoneeabi@1.40804.0/bin/../lib/gcc/arm-none-eabi/4.8.4/../../../../arm-none-eabi/lib/armv7e-m\libm.a(lib_a-s_scalbn.o)
 .ARM.attributes
                0x00002932       0x2e c:/users/user/.platformio/packages/toolchain-gccarmnoneeabi@1.40804.0/bin/../lib/gcc/arm-none-eabi/4.8.4/../../../../arm-none-eabi/lib/armv7e-m\libm.a(lib_a-s_copysign.o)
 .ARM.attributes
                0x00002960       0x2e c:/users/user/.platformio/packages/toolchain-gccarmnoneeabi@1.40804.0/bin/../lib/gcc/arm-none-eabi/4.8.4/../../../../arm-none-eabi/lib/armv7e-m\libc.a(lib_a-errno.o)

.debug_info     0x00000000      0xeed
 .debug_info    0x00000000      0xe7a .pio/build/lptm4c1294ncpdt/src/Drivers/W-Link/Driver/PWM/PWM_TM4C1294.o
 .debug_info    0x00000e7a       0x73 .pio/build/lptm4c1294ncpdt/src/NeonRTOS/HTTPd/neonrtfs_img.o

.debug_abbrev   0x00000000      0x20a
 .debug_abbrev  0x00000000      0x1b4 .pio/build/lptm4c1294ncpdt/src/Drivers/W-Link/Driver/PWM/PWM_TM4C1294.o
 .debug_abbrev  0x000001b4       0x56 .pio/build/lptm4c1294ncpdt/src/NeonRTOS/HTTPd/neonrtfs_img.o

.debug_loc      0x00000000      0x93e
 .debug_loc     0x00000000      0x93e .pio/build/lptm4c1294ncpdt/src/Drivers/W-Link/Driver/PWM/PWM_TM4C1294.o

.debug_aranges  0x00000000       0x88
 .debug_aranges
                0x00000000       0x70 .pio/build/lptm4c1294ncpdt/src/Drivers/W-Link/Driver/PWM/PWM_TM4C1294.o
 .debug_aranges
                0x00000070       0x18 .pio/build/lptm4c1294ncpdt/src/NeonRTOS/HTTPd/neonrtfs_img.o

.debug_ranges   0x00000000       0x78
 .debug_ranges  0x00000000       0x78 .pio/build/lptm4c1294ncpdt/src/Drivers/W-Link/Driver/PWM/PWM_TM4C1294.o

.debug_line     0x00000000      0x406
 .debug_line    0x00000000      0x3c4 .pio/build/lptm4c1294ncpdt/src/Drivers/W-Link/Driver/PWM/PWM_TM4C1294.o
 .debug_line    0x000003c4       0x42 .pio/build/lptm4c1294ncpdt/src/NeonRTOS/HTTPd/neonrtfs_img.o

.debug_str      0x00000000      0xbc2
 .debug_str     0x00000000      0xb82 .pio/build/lptm4c1294ncpdt/src/Drivers/W-Link/Driver/PWM/PWM_TM4C1294.o
                                0xbdf (size before relaxing)
 .debug_str     0x00000b82       0x40 .pio/build/lptm4c1294ncpdt/src/NeonRTOS/HTTPd/neonrtfs_img.o
                                0x151 (size before relaxing)

.debug_frame    0x00000000      0xc30
 .debug_frame   0x00000000      0x164 .pio/build/lptm4c1294ncpdt/src/Drivers/W-Link/Driver/PWM/PWM_TM4C1294.o
 .debug_frame   0x00000164       0x30 c:/users/user/.platformio/packages/toolchain-gccarmnoneeabi@1.40804.0/bin/../lib/gcc/arm-none-eabi/4.8.4/../../../../arm-none-eabi/lib/armv7e-m\libc.a(lib_a-atoi.o)
 .debug_frame   0x00000194       0x20 c:/users/user/.platformio/packages/toolchain-gccarmnoneeabi@1.40804.0/bin/../lib/gcc/arm-none-eabi/4.8.4/../../../../arm-none-eabi/lib/armv7e-m\libc.a(lib_a-isspace.o)
 .debug_frame   0x000001b4       0x2c c:/users/user/.platformio/packages/toolchain-gccarmnoneeabi@1.40804.0/bin/../lib/gcc/arm-none-eabi/4.8.4/../../../../arm-none-eabi/lib/armv7e-m\libc.a(lib_a-memcmp.o)
 .debug_frame   0x000001e0       0x2c c:/users/user/.platformio/packages/toolchain-gccarmnoneeabi@1.40804.0/bin/../lib/gcc/arm-none-eabi/4.8.4/../../../../arm-none-eabi/lib/armv7e-m\libc.a(lib_a-memmove.o)
 .debug_frame   0x0000020c       0x2c c:/users/user/.platformio/packages/toolchain-gccarmnoneeabi@1.40804.0/bin/../lib/gcc/arm-none-eabi/4.8.4/../../../../arm-none-eabi/lib/armv7e-m\libc.a(lib_a-memset.o)
 .debug_frame   0x00000238       0x38 c:/users/user/.platformio/packages/toolchain-gccarmnoneeabi@1.40804.0/bin/../lib/gcc/arm-none-eabi/4.8.4/../../../../arm-none-eabi/lib/armv7e-m\libc.a(lib_a-rand.o)
 .debug_frame   0x00000270       0x48 c:/users/user/.platformio/packages/toolchain-gccarmnoneeabi@1.40804.0/bin/../lib/gcc/arm-none-eabi/4.8.4/../../../../arm-none-eabi/lib/armv7e-m\libc.a(lib_a-reent.o)
 .debug_frame   0x000002b8       0x28 c:/users/user/.platformio/packages/toolchain-gccarmnoneeabi@1.40804.0/bin/../lib/gcc/arm-none-eabi/4.8.4/../../../../arm-none-eabi/lib/armv7e-m\libc.a(lib_a-s_fpclassify.o)
 .debug_frame   0x000002e0       0x60 c:/users/user/.platformio/packages/toolchain-gccarmnoneeabi@1.40804.0/bin/../lib/gcc/arm-none-eabi/4.8.4/../../../../arm-none-eabi/lib/armv7e-m\libc.a(lib_a-snprintf.o)
 .debug_frame   0x00000340       0x64 c:/users/user/.platformio/packages/toolchain-gccarmnoneeabi@1.40804.0/bin/../lib/gcc/arm-none-eabi/4.8.4/../../../../arm-none-eabi/lib/armv7e-m\libc.a(lib_a-sprintf.o)
 .debug_frame   0x000003a4       0x2c c:/users/user/.platformio/packages/toolchain-gccarmnoneeabi@1.40804.0/bin/../lib/gcc/arm-none-eabi/4.8.4/../../../../arm-none-eabi/lib/armv7e-m\libc.a(lib_a-strcat.o)
 .debug_frame   0x000003d0       0x2c c:/users/user/.platformio/packages/toolchain-gccarmnoneeabi@1.40804.0/bin/../lib/gcc/arm-none-eabi/4.8.4/../../../../arm-none-eabi/lib/armv7e-m\libc.a(lib_a-strchr.o)
 .debug_frame   0x000003fc       0x20 c:/users/user/.platformio/packages/toolchain-gccarmnoneeabi@1.40804.0/bin/../lib/gcc/arm-none-eabi/4.8.4/../../../../arm-none-eabi/lib/armv7e-m\libc.a(lib_a-strcpy.o)
 .debug_frame   0x0000041c       0x20 c:/users/user/.platformio/packages/toolchain-gccarmnoneeabi@1.40804.0/bin/../lib/gcc/arm-none-eabi/4.8.4/../../../../arm-none-eabi/lib/armv7e-m\libc.a(lib_a-strlen.o)
 .debug_frame   0x0000043c       0x28 c:/users/user/.platformio/packages/toolchain-gccarmnoneeabi@1.40804.0/bin/../lib/gcc/arm-none-eabi/4.8.4/../../../../arm-none-eabi/lib/armv7e-m\libc.a(lib_a-strncmp.o)
 .debug_frame   0x00000464       0x2c c:/users/user/.platformio/packages/toolchain-gccarmnoneeabi@1.40804.0/bin/../lib/gcc/arm-none-eabi/4.8.4/../../../../arm-none-eabi/lib/armv7e-m\libc.a(lib_a-strncpy.o)
 .debug_frame   0x00000490       0x84 c:/users/user/.platformio/packages/toolchain-gccarmnoneeabi@1.40804.0/bin/../lib/gcc/arm-none-eabi/4.8.4/../../../../arm-none-eabi/lib/armv7e-m\libc.a(lib_a-strstr.o)
 .debug_frame   0x00000514       0x50 c:/users/user/.platformio/packages/toolchain-gccarmnoneeabi@1.40804.0/bin/../lib/gcc/arm-none-eabi/4.8.4/../../../../arm-none-eabi/lib/armv7e-m\libc.a(lib_a-strtol.o)
 .debug_frame   0x00000564       0x3c c:/users/user/.platformio/packages/toolchain-gccarmnoneeabi@1.40804.0/bin/../lib/gcc/arm-none-eabi/4.8.4/../../../../arm-none-eabi/lib/armv7e-m\libc.a(lib_a-svfprintf.o)
 .debug_frame   0x000005a0       0x50 c:/users/user/.platformio/packages/toolchain-gccarmnoneeabi@1.40804.0/bin/../lib/gcc/arm-none-eabi/4.8.4/../../../../arm-none-eabi/lib/armv7e-m\libc.a(lib_a-vsnprintf.o)
 .debug_frame   0x000005f0       0x64 c:/users/user/.platformio/packages/toolchain-gccarmnoneeabi@1.40804.0/bin/../lib/gcc/arm-none-eabi/4.8.4/../../../../arm-none-eabi/lib/armv7e-m\libc.a(lib_a-dtoa.o)
 .debug_frame   0x00000654       0x98 c:/users/user/.platformio/packages/toolchain-gccarmnoneeabi@1.40804.0/bin/../lib/gcc/arm-none-eabi/4.8.4/../../../../arm-none-eabi/lib/armv7e-m\libc.a(lib_a-locale.o)
 .debug_frame   0x000006ec       0x2c c:/users/user/.platformio/packages/toolchain-gccarmnoneeabi@1.40804.0/bin/../lib/gcc/arm-none-eabi/4.8.4/../../../../arm-none-eabi/lib/armv7e-m\libc.a(lib_a-memchr-stub.o)
 .debug_frame   0x00000718      0x22c c:/users/user/.platformio/packages/toolchain-gccarmnoneeabi@1.40804.0/bin/../lib/gcc/arm-none-eabi/4.8.4/../../../../arm-none-eabi/lib/armv7e-m\libc.a(lib_a-mprec.o)
 .debug_frame   0x00000944       0x64 c:/users/user/.platformio/packages/toolchain-gccarmnoneeabi@1.40804.0/bin/../lib/gcc/arm-none-eabi/4.8.4/../../../../arm-none-eabi/lib/armv7e-m\libc.a(lib_a-svfiprintf.o)
 .debug_frame   0x000009a8       0x50 c:/users/user/.platformio/packages/toolchain-gccarmnoneeabi@1.40804.0/bin/../lib/gcc/arm-none-eabi/4.8.4/armv7e-m\libgcc.a(bpabi.o)
 .debug_frame   0x000009f8       0x34 c:/users/user/.platformio/packages/toolchain-gccarmnoneeabi@1.40804.0/bin/../lib/gcc/arm-none-eabi/4.8.4/armv7e-m\libgcc.a(_divdi3.o)
 .debug_frame   0x00000a2c       0x34 c:/users/user/.platformio/packages/toolchain-gccarmnoneeabi@1.40804.0/bin/../lib/gcc/arm-none-eabi/4.8.4/armv7e-m\libgcc.a(_udivdi3.o)
 .debug_frame   0x00000a60       0x38 c:/users/user/.platformio/packages/toolchain-gccarmnoneeabi@1.40804.0/bin/../lib/gcc/arm-none-eabi/4.8.4/../../../../arm-none-eabi/lib/armv7e-m\libm.a(lib_a-w_pow.o)
 .debug_frame   0x00000a98       0x38 c:/users/user/.platformio/packages/toolchain-gccarmnoneeabi@1.40804.0/bin/../lib/gcc/arm-none-eabi/4.8.4/../../../../arm-none-eabi/lib/armv7e-m\libm.a(lib_a-e_pow.o)
 .debug_frame   0x00000ad0       0x34 c:/users/user/.platformio/packages/toolchain-gccarmnoneeabi@1.40804.0/bin/../lib/gcc/arm-none-eabi/4.8.4/../../../../arm-none-eabi/lib/armv7e-m\libm.a(lib_a-e_sqrt.o)
 .debug_frame   0x00000b04       0x20 c:/users/user/.platformio/packages/toolchain-gccarmnoneeabi@1.40804.0/bin/../lib/gcc/arm-none-eabi/4.8.4/../../../../arm-none-eabi/lib/armv7e-m\libm.a(lib_a-s_fabs.o)
 .debug_frame   0x00000b24       0x20 c:/users/user/.platformio/packages/toolchain-gccarmnoneeabi@1.40804.0/bin/../lib/gcc/arm-none-eabi/4.8.4/../../../../arm-none-eabi/lib/armv7e-m\libm.a(lib_a-s_finite.o)
 .debug_frame   0x00000b44       0x20 c:/users/user/.platformio/packages/toolchain-gccarmnoneeabi@1.40804.0/bin/../lib/gcc/arm-none-eabi/4.8.4/../../../../arm-none-eabi/lib/armv7e-m\libm.a(lib_a-s_matherr.o)
 .debug_frame   0x00000b64       0x20 c:/users/user/.platformio/packages/toolchain-gccarmnoneeabi@1.40804.0/bin/../lib/gcc/arm-none-eabi/4.8.4/../../../../arm-none-eabi/lib/armv7e-m\libm.a(lib_a-s_nan.o)
 .debug_frame   0x00000b84       0x34 c:/users/user/.platformio/packages/toolchain-gccarmnoneeabi@1.40804.0/bin/../lib/gcc/arm-none-eabi/4.8.4/../../../../arm-none-eabi/lib/armv7e-m\libm.a(lib_a-s_rint.o)
 .debug_frame   0x00000bb8       0x30 c:/users/user/.platformio/packages/toolchain-gccarmnoneeabi@1.40804.0/bin/../lib/gcc/arm-none-eabi/4.8.4/../../../../arm-none-eabi/lib/armv7e-m\libm.a(lib_a-s_scalbn.o)
 .debug_frame   0x00000be8       0x28 c:/users/user/.platformio/packages/toolchain-gccarmnoneeabi@1.40804.0/bin/../lib/gcc/arm-none-eabi/4.8.4/../../../../arm-none-eabi/lib/armv7e-m\libm.a(lib_a-s_copysign.o)
 .debug_frame   0x00000c10       0x20 c:/users/user/.platformio/packages/toolchain-gccarmnoneeabi@1.40804.0/bin/../lib/gcc/arm-none-eabi/4.8.4/../../../../arm-none-eabi/lib/armv7e-m\libc.a(lib_a-errno.o)

Cross Reference Table

Symbol                                            File
ADCBusy                                           .pio/build/lptm4c1294ncpdt/src/Drivers/soc/driverlib/adc.o
ADCClockConfigGet                                 .pio/build/lptm4c1294ncpdt/src/Drivers/soc/driverlib/adc.o
ADCClockConfigSet                                 .pio/build/lptm4c1294ncpdt/src/Drivers/soc/driverlib/adc.o
ADCComparatorConfigure                            .pio/build/lptm4c1294ncpdt/src/Drivers/soc/driverlib/adc.o
ADCComparatorIntClear                             .pio/build/lptm4c1294ncpdt/src/Drivers/soc/driverlib/adc.o
ADCComparatorIntDisable                           .pio/build/lptm4c1294ncpdt/src/Drivers/soc/driverlib/adc.o
ADCComparatorIntEnable                            .pio/build/lptm4c1294ncpdt/src/Drivers/soc/driverlib/adc.o
ADCComparatorIntStatus                            .pio/build/lptm4c1294ncpdt/src/Drivers/soc/driverlib/adc.o
ADCComparatorRegionSet                            .pio/build/lptm4c1294ncpdt/src/Drivers/soc/driverlib/adc.o
ADCComparatorReset                                .pio/build/lptm4c1294ncpdt/src/Drivers/soc/driverlib/adc.o
ADCHardwareOversampleConfigure                    .pio/build/lptm4c1294ncpdt/src/Drivers/soc/driverlib/adc.o
ADCIntClear                                       .pio/build/lptm4c1294ncpdt/src/Drivers/soc/driverlib/adc.o
ADCIntClearEx                                     .pio/build/lptm4c1294ncpdt/src/Drivers/soc/driverlib/adc.o
ADCIntDisable                                     .pio/build/lptm4c1294ncpdt/src/Drivers/soc/driverlib/adc.o
ADCIntDisableEx                                   .pio/build/lptm4c1294ncpdt/src/Drivers/soc/driverlib/adc.o
ADCIntEnable                                      .pio/build/lptm4c1294ncpdt/src/Drivers/soc/driverlib/adc.o
ADCIntEnableEx                                    .pio/build/lptm4c1294ncpdt/src/Drivers/soc/driverlib/adc.o
ADCIntRegister                                    .pio/build/lptm4c1294ncpdt/src/Drivers/soc/driverlib/adc.o
ADCIntStatus                                      .pio/build/lptm4c1294ncpdt/src/Drivers/soc/driverlib/adc.o
ADCIntStatusEx                                    .pio/build/lptm4c1294ncpdt/src/Drivers/soc/driverlib/adc.o
ADCIntUnregister                                  .pio/build/lptm4c1294ncpdt/src/Drivers/soc/driverlib/adc.o
ADCPhaseDelayGet                                  .pio/build/lptm4c1294ncpdt/src/Drivers/soc/driverlib/adc.o
ADCPhaseDelaySet                                  .pio/build/lptm4c1294ncpdt/src/Drivers/soc/driverlib/adc.o
ADCProcessorTrigger                               .pio/build/lptm4c1294ncpdt/src/Drivers/soc/driverlib/adc.o
ADCReferenceGet                                   .pio/build/lptm4c1294ncpdt/src/Drivers/soc/driverlib/adc.o
ADCReferenceSet                                   .pio/build/lptm4c1294ncpdt/src/Drivers/soc/driverlib/adc.o
ADCSequenceConfigure                              .pio/build/lptm4c1294ncpdt/src/Drivers/soc/driverlib/adc.o
ADCSequenceDMADisable                             .pio/build/lptm4c1294ncpdt/src/Drivers/soc/driverlib/adc.o
ADCSequenceDMAEnable                              .pio/build/lptm4c1294ncpdt/src/Drivers/soc/driverlib/adc.o
ADCSequenceDataGet                                .pio/build/lptm4c1294ncpdt/src/Drivers/soc/driverlib/adc.o
ADCSequenceDisable                                .pio/build/lptm4c1294ncpdt/src/Drivers/soc/driverlib/adc.o
ADCSequenceEnable                                 .pio/build/lptm4c1294ncpdt/src/Drivers/soc/driverlib/adc.o
ADCSequenceOverflow                               .pio/build/lptm4c1294ncpdt/src/Drivers/soc/driverlib/adc.o
ADCSequenceOverflowClear                          .pio/build/lptm4c1294ncpdt/src/Drivers/soc/driverlib/adc.o
ADCSequenceStepConfigure                          .pio/build/lptm4c1294ncpdt/src/Drivers/soc/driverlib/adc.o
ADCSequenceUnderflow                              .pio/build/lptm4c1294ncpdt/src/Drivers/soc/driverlib/adc.o
ADCSequenceUnderflowClear                         .pio/build/lptm4c1294ncpdt/src/Drivers/soc/driverlib/adc.o
ADCSoftwareOversampleConfigure                    .pio/build/lptm4c1294ncpdt/src/Drivers/soc/driverlib/adc.o
ADCSoftwareOversampleDataGet                      .pio/build/lptm4c1294ncpdt/src/Drivers/soc/driverlib/adc.o
ADCSoftwareOversampleStepConfigure                .pio/build/lptm4c1294ncpdt/src/Drivers/soc/driverlib/adc.o
AESAuthLengthSet                                  .pio/build/lptm4c1294ncpdt/src/Drivers/soc/driverlib/aes.o
AESConfigSet                                      .pio/build/lptm4c1294ncpdt/src/Drivers/soc/driverlib/aes.o
AESDMADisable                                     .pio/build/lptm4c1294ncpdt/src/Drivers/soc/driverlib/aes.o
AESDMAEnable                                      .pio/build/lptm4c1294ncpdt/src/Drivers/soc/driverlib/aes.o
AESDataAuth                                       .pio/build/lptm4c1294ncpdt/src/Drivers/soc/driverlib/aes.o
AESDataProcess                                    .pio/build/lptm4c1294ncpdt/src/Drivers/soc/driverlib/aes.o
AESDataProcessAuth                                .pio/build/lptm4c1294ncpdt/src/Drivers/soc/driverlib/aes.o
AESDataRead                                       .pio/build/lptm4c1294ncpdt/src/Drivers/soc/driverlib/aes.o
AESDataReadNonBlocking                            .pio/build/lptm4c1294ncpdt/src/Drivers/soc/driverlib/aes.o
AESDataWrite                                      .pio/build/lptm4c1294ncpdt/src/Drivers/soc/driverlib/aes.o
AESDataWriteNonBlocking                           .pio/build/lptm4c1294ncpdt/src/Drivers/soc/driverlib/aes.o
AESIVRead                                         .pio/build/lptm4c1294ncpdt/src/Drivers/soc/driverlib/aes.o
AESIVSet                                          .pio/build/lptm4c1294ncpdt/src/Drivers/soc/driverlib/aes.o
AESIntClear                                       .pio/build/lptm4c1294ncpdt/src/Drivers/soc/driverlib/aes.o
AESIntDisable                                     .pio/build/lptm4c1294ncpdt/src/Drivers/soc/driverlib/aes.o
AESIntEnable                                      .pio/build/lptm4c1294ncpdt/src/Drivers/soc/driverlib/aes.o
AESIntRegister                                    .pio/build/lptm4c1294ncpdt/src/Drivers/soc/driverlib/aes.o
AESIntStatus                                      .pio/build/lptm4c1294ncpdt/src/Drivers/soc/driverlib/aes.o
AESIntUnregister                                  .pio/build/lptm4c1294ncpdt/src/Drivers/soc/driverlib/aes.o
AESKey1Set                                        .pio/build/lptm4c1294ncpdt/src/Drivers/soc/driverlib/aes.o
AESKey2Set                                        .pio/build/lptm4c1294ncpdt/src/Drivers/soc/driverlib/aes.o
AESKey3Set                                        .pio/build/lptm4c1294ncpdt/src/Drivers/soc/driverlib/aes.o
AESLengthSet                                      .pio/build/lptm4c1294ncpdt/src/Drivers/soc/driverlib/aes.o
AESReset                                          .pio/build/lptm4c1294ncpdt/src/Drivers/soc/driverlib/aes.o
AESTagRead                                        .pio/build/lptm4c1294ncpdt/src/Drivers/soc/driverlib/aes.o
All_LED_Status                                    .pio/build/lptm4c1294ncpdt/src/APP/LED_PWM_APP.o
                                                  .pio/build/lptm4c1294ncpdt/src/APP/LED_PWM_API.o
CANBitRateSet                                     .pio/build/lptm4c1294ncpdt/src/Drivers/soc/driverlib/can.o
CANBitTimingGet                                   .pio/build/lptm4c1294ncpdt/src/Drivers/soc/driverlib/can.o
CANBitTimingSet                                   .pio/build/lptm4c1294ncpdt/src/Drivers/soc/driverlib/can.o
CANDisable                                        .pio/build/lptm4c1294ncpdt/src/Drivers/soc/driverlib/can.o
CANEnable                                         .pio/build/lptm4c1294ncpdt/src/Drivers/soc/driverlib/can.o
CANErrCntrGet                                     .pio/build/lptm4c1294ncpdt/src/Drivers/soc/driverlib/can.o
CANInit                                           .pio/build/lptm4c1294ncpdt/src/Drivers/soc/driverlib/can.o
CANIntClear                                       .pio/build/lptm4c1294ncpdt/src/Drivers/soc/driverlib/can.o
CANIntDisable                                     .pio/build/lptm4c1294ncpdt/src/Drivers/soc/driverlib/can.o
CANIntEnable                                      .pio/build/lptm4c1294ncpdt/src/Drivers/soc/driverlib/can.o
CANIntRegister                                    .pio/build/lptm4c1294ncpdt/src/Drivers/soc/driverlib/can.o
CANIntStatus                                      .pio/build/lptm4c1294ncpdt/src/Drivers/soc/driverlib/can.o
CANIntUnregister                                  .pio/build/lptm4c1294ncpdt/src/Drivers/soc/driverlib/can.o
CANMessageClear                                   .pio/build/lptm4c1294ncpdt/src/Drivers/soc/driverlib/can.o
CANMessageGet                                     .pio/build/lptm4c1294ncpdt/src/Drivers/soc/driverlib/can.o
CANMessageSet                                     .pio/build/lptm4c1294ncpdt/src/Drivers/soc/driverlib/can.o
CANRetryGet                                       .pio/build/lptm4c1294ncpdt/src/Drivers/soc/driverlib/can.o
CANRetrySet                                       .pio/build/lptm4c1294ncpdt/src/Drivers/soc/driverlib/can.o
CANStatusGet                                      .pio/build/lptm4c1294ncpdt/src/Drivers/soc/driverlib/can.o
CPUbasepriGet                                     .pio/build/lptm4c1294ncpdt/src/Drivers/soc/driverlib/cpu.o
                                                  .pio/build/lptm4c1294ncpdt/src/Drivers/soc/driverlib/interrupt.o
CPUbasepriSet                                     .pio/build/lptm4c1294ncpdt/src/Drivers/soc/driverlib/cpu.o
                                                  .pio/build/lptm4c1294ncpdt/src/Drivers/soc/driverlib/interrupt.o
CPUcpsid                                          .pio/build/lptm4c1294ncpdt/src/Drivers/soc/driverlib/cpu.o
                                                  .pio/build/lptm4c1294ncpdt/src/Drivers/soc/driverlib/interrupt.o
CPUcpsie                                          .pio/build/lptm4c1294ncpdt/src/Drivers/soc/driverlib/cpu.o
                                                  .pio/build/lptm4c1294ncpdt/src/Drivers/soc/driverlib/interrupt.o
CPUprimask                                        .pio/build/lptm4c1294ncpdt/src/Drivers/soc/driverlib/cpu.o
CPUwfi                                            .pio/build/lptm4c1294ncpdt/src/Drivers/soc/driverlib/cpu.o
                                                  .pio/build/lptm4c1294ncpdt/src/main.o
                                                  .pio/build/lptm4c1294ncpdt/src/Drivers/soc/driverlib/sysctl.o
CRCConfigSet                                      .pio/build/lptm4c1294ncpdt/src/Drivers/soc/driverlib/crc.o
CRCDataProcess                                    .pio/build/lptm4c1294ncpdt/src/Drivers/soc/driverlib/crc.o
CRCDataWrite                                      .pio/build/lptm4c1294ncpdt/src/Drivers/soc/driverlib/crc.o
CRCResultRead                                     .pio/build/lptm4c1294ncpdt/src/Drivers/soc/driverlib/crc.o
CRCSeedSet                                        .pio/build/lptm4c1294ncpdt/src/Drivers/soc/driverlib/crc.o
ComparatorConfigure                               .pio/build/lptm4c1294ncpdt/src/Drivers/soc/driverlib/comp.o
ComparatorIntClear                                .pio/build/lptm4c1294ncpdt/src/Drivers/soc/driverlib/comp.o
ComparatorIntDisable                              .pio/build/lptm4c1294ncpdt/src/Drivers/soc/driverlib/comp.o
ComparatorIntEnable                               .pio/build/lptm4c1294ncpdt/src/Drivers/soc/driverlib/comp.o
ComparatorIntRegister                             .pio/build/lptm4c1294ncpdt/src/Drivers/soc/driverlib/comp.o
ComparatorIntStatus                               .pio/build/lptm4c1294ncpdt/src/Drivers/soc/driverlib/comp.o
ComparatorIntUnregister                           .pio/build/lptm4c1294ncpdt/src/Drivers/soc/driverlib/comp.o
ComparatorRefSet                                  .pio/build/lptm4c1294ncpdt/src/Drivers/soc/driverlib/comp.o
ComparatorValueGet                                .pio/build/lptm4c1294ncpdt/src/Drivers/soc/driverlib/comp.o
Crc16                                             .pio/build/lptm4c1294ncpdt/src/Drivers/soc/driverlib/sw_crc.o
Crc16Array                                        .pio/build/lptm4c1294ncpdt/src/Drivers/soc/driverlib/sw_crc.o
Crc16Array3                                       .pio/build/lptm4c1294ncpdt/src/Drivers/soc/driverlib/sw_crc.o
Crc32                                             .pio/build/lptm4c1294ncpdt/src/Drivers/soc/driverlib/sw_crc.o
                                                  .pio/build/lptm4c1294ncpdt/src/Drivers/soc/driverlib/emac.o
Crc8CCITT                                         .pio/build/lptm4c1294ncpdt/src/Drivers/soc/driverlib/sw_crc.o
DESConfigSet                                      .pio/build/lptm4c1294ncpdt/src/Drivers/soc/driverlib/des.o
DESDMADisable                                     .pio/build/lptm4c1294ncpdt/src/Drivers/soc/driverlib/des.o
DESDMAEnable                                      .pio/build/lptm4c1294ncpdt/src/Drivers/soc/driverlib/des.o
DESDataProcess                                    .pio/build/lptm4c1294ncpdt/src/Drivers/soc/driverlib/des.o
DESDataRead                                       .pio/build/lptm4c1294ncpdt/src/Drivers/soc/driverlib/des.o
DESDataReadNonBlocking                            .pio/build/lptm4c1294ncpdt/src/Drivers/soc/driverlib/des.o
DESDataWrite                                      .pio/build/lptm4c1294ncpdt/src/Drivers/soc/driverlib/des.o
DESDataWriteNonBlocking                           .pio/build/lptm4c1294ncpdt/src/Drivers/soc/driverlib/des.o
DESIVSet                                          .pio/build/lptm4c1294ncpdt/src/Drivers/soc/driverlib/des.o
DESIntClear                                       .pio/build/lptm4c1294ncpdt/src/Drivers/soc/driverlib/des.o
DESIntDisable                                     .pio/build/lptm4c1294ncpdt/src/Drivers/soc/driverlib/des.o
DESIntEnable                                      .pio/build/lptm4c1294ncpdt/src/Drivers/soc/driverlib/des.o
DESIntRegister                                    .pio/build/lptm4c1294ncpdt/src/Drivers/soc/driverlib/des.o
DESIntStatus                                      .pio/build/lptm4c1294ncpdt/src/Drivers/soc/driverlib/des.o
DESIntUnregister                                  .pio/build/lptm4c1294ncpdt/src/Drivers/soc/driverlib/des.o
DESKeySet                                         .pio/build/lptm4c1294ncpdt/src/Drivers/soc/driverlib/des.o
DESLengthSet                                      .pio/build/lptm4c1294ncpdt/src/Drivers/soc/driverlib/des.o
DESReset                                          .pio/build/lptm4c1294ncpdt/src/Drivers/soc/driverlib/des.o
DHCP_lease_state                                  .pio/build/lptm4c1294ncpdt/src/NeonRTOS/NeonTCPIP.o
DHCP_state                                        .pio/build/lptm4c1294ncpdt/src/NeonRTOS/NeonTCPIP.o
EEPROMBlockCountGet                               .pio/build/lptm4c1294ncpdt/src/Drivers/soc/driverlib/eeprom.o
EEPROMBlockHide                                   .pio/build/lptm4c1294ncpdt/src/Drivers/soc/driverlib/eeprom.o
EEPROMBlockLock                                   .pio/build/lptm4c1294ncpdt/src/Drivers/soc/driverlib/eeprom.o
EEPROMBlockPasswordSet                            .pio/build/lptm4c1294ncpdt/src/Drivers/soc/driverlib/eeprom.o
EEPROMBlockProtectGet                             .pio/build/lptm4c1294ncpdt/src/Drivers/soc/driverlib/eeprom.o
EEPROMBlockProtectSet                             .pio/build/lptm4c1294ncpdt/src/Drivers/soc/driverlib/eeprom.o
EEPROMBlockUnlock                                 .pio/build/lptm4c1294ncpdt/src/Drivers/soc/driverlib/eeprom.o
EEPROMInit                                        .pio/build/lptm4c1294ncpdt/src/Drivers/soc/driverlib/eeprom.o
EEPROMIntClear                                    .pio/build/lptm4c1294ncpdt/src/Drivers/soc/driverlib/eeprom.o
EEPROMIntDisable                                  .pio/build/lptm4c1294ncpdt/src/Drivers/soc/driverlib/eeprom.o
EEPROMIntEnable                                   .pio/build/lptm4c1294ncpdt/src/Drivers/soc/driverlib/eeprom.o
EEPROMIntStatus                                   .pio/build/lptm4c1294ncpdt/src/Drivers/soc/driverlib/eeprom.o
EEPROMMassErase                                   .pio/build/lptm4c1294ncpdt/src/Drivers/soc/driverlib/eeprom.o
EEPROMProgram                                     .pio/build/lptm4c1294ncpdt/src/Drivers/soc/driverlib/eeprom.o
EEPROMProgramNonBlocking                          .pio/build/lptm4c1294ncpdt/src/Drivers/soc/driverlib/eeprom.o
EEPROMRead                                        .pio/build/lptm4c1294ncpdt/src/Drivers/soc/driverlib/eeprom.o
EEPROMSizeGet                                     .pio/build/lptm4c1294ncpdt/src/Drivers/soc/driverlib/eeprom.o
EEPROMStatusGet                                   .pio/build/lptm4c1294ncpdt/src/Drivers/soc/driverlib/eeprom.o
EMACAddrFilterGet                                 .pio/build/lptm4c1294ncpdt/src/Drivers/soc/driverlib/emac.o
EMACAddrFilterSet                                 .pio/build/lptm4c1294ncpdt/src/Drivers/soc/driverlib/emac.o
EMACAddrGet                                       .pio/build/lptm4c1294ncpdt/src/Drivers/soc/driverlib/emac.o
EMACAddrSet                                       .pio/build/lptm4c1294ncpdt/src/Drivers/soc/driverlib/emac.o
EMACConfigGet                                     .pio/build/lptm4c1294ncpdt/src/Drivers/soc/driverlib/emac.o
EMACConfigSet                                     .pio/build/lptm4c1294ncpdt/src/Drivers/soc/driverlib/emac.o
EMACDMAStateGet                                   .pio/build/lptm4c1294ncpdt/src/Drivers/soc/driverlib/emac.o
EMACFrameFilterGet                                .pio/build/lptm4c1294ncpdt/src/Drivers/soc/driverlib/emac.o
EMACFrameFilterSet                                .pio/build/lptm4c1294ncpdt/src/Drivers/soc/driverlib/emac.o
EMACHashFilterBitCalculate                        .pio/build/lptm4c1294ncpdt/src/Drivers/soc/driverlib/emac.o
EMACHashFilterGet                                 .pio/build/lptm4c1294ncpdt/src/Drivers/soc/driverlib/emac.o
EMACHashFilterSet                                 .pio/build/lptm4c1294ncpdt/src/Drivers/soc/driverlib/emac.o
EMACInit                                          .pio/build/lptm4c1294ncpdt/src/Drivers/soc/driverlib/emac.o
EMACIntClear                                      .pio/build/lptm4c1294ncpdt/src/Drivers/soc/driverlib/emac.o
EMACIntDisable                                    .pio/build/lptm4c1294ncpdt/src/Drivers/soc/driverlib/emac.o
EMACIntEnable                                     .pio/build/lptm4c1294ncpdt/src/Drivers/soc/driverlib/emac.o
EMACIntRegister                                   .pio/build/lptm4c1294ncpdt/src/Drivers/soc/driverlib/emac.o
EMACIntStatus                                     .pio/build/lptm4c1294ncpdt/src/Drivers/soc/driverlib/emac.o
                                                  .pio/build/lptm4c1294ncpdt/src/Drivers/ethernetif/ethernetif_tm4c1294.o
EMACIntUnregister                                 .pio/build/lptm4c1294ncpdt/src/Drivers/soc/driverlib/emac.o
EMACLPIConfig                                     .pio/build/lptm4c1294ncpdt/src/Drivers/soc/driverlib/emac.o
EMACLPIEnter                                      .pio/build/lptm4c1294ncpdt/src/Drivers/soc/driverlib/emac.o
EMACLPILinkClear                                  .pio/build/lptm4c1294ncpdt/src/Drivers/soc/driverlib/emac.o
EMACLPILinkSet                                    .pio/build/lptm4c1294ncpdt/src/Drivers/soc/driverlib/emac.o
EMACLPIStatus                                     .pio/build/lptm4c1294ncpdt/src/Drivers/soc/driverlib/emac.o
EMACNumAddrGet                                    .pio/build/lptm4c1294ncpdt/src/Drivers/soc/driverlib/emac.o
EMACPHYConfigSet                                  .pio/build/lptm4c1294ncpdt/src/Drivers/soc/driverlib/emac.o
EMACPHYExtendedRead                               .pio/build/lptm4c1294ncpdt/src/Drivers/soc/driverlib/emac.o
EMACPHYExtendedWrite                              .pio/build/lptm4c1294ncpdt/src/Drivers/soc/driverlib/emac.o
EMACPHYMMDRead                                    .pio/build/lptm4c1294ncpdt/src/Drivers/soc/driverlib/emac.o
EMACPHYMMDWrite                                   .pio/build/lptm4c1294ncpdt/src/Drivers/soc/driverlib/emac.o
EMACPHYPowerOff                                   .pio/build/lptm4c1294ncpdt/src/Drivers/soc/driverlib/emac.o
EMACPHYPowerOn                                    .pio/build/lptm4c1294ncpdt/src/Drivers/soc/driverlib/emac.o
EMACPHYRead                                       .pio/build/lptm4c1294ncpdt/src/Drivers/soc/driverlib/emac.o
EMACPHYWrite                                      .pio/build/lptm4c1294ncpdt/src/Drivers/soc/driverlib/emac.o
EMACPowerManagementControlGet                     .pio/build/lptm4c1294ncpdt/src/Drivers/soc/driverlib/emac.o
EMACPowerManagementControlSet                     .pio/build/lptm4c1294ncpdt/src/Drivers/soc/driverlib/emac.o
EMACPowerManagementStatusGet                      .pio/build/lptm4c1294ncpdt/src/Drivers/soc/driverlib/emac.o
EMACRemoteWakeUpFrameFilterGet                    .pio/build/lptm4c1294ncpdt/src/Drivers/soc/driverlib/emac.o
EMACRemoteWakeUpFrameFilterSet                    .pio/build/lptm4c1294ncpdt/src/Drivers/soc/driverlib/emac.o
EMACReset                                         .pio/build/lptm4c1294ncpdt/src/Drivers/soc/driverlib/emac.o
EMACRxDMACurrentBufferGet                         .pio/build/lptm4c1294ncpdt/src/Drivers/soc/driverlib/emac.o
EMACRxDMACurrentDescriptorGet                     .pio/build/lptm4c1294ncpdt/src/Drivers/soc/driverlib/emac.o
EMACRxDMADescriptorListGet                        .pio/build/lptm4c1294ncpdt/src/Drivers/soc/driverlib/emac.o
EMACRxDMADescriptorListSet                        .pio/build/lptm4c1294ncpdt/src/Drivers/soc/driverlib/emac.o
EMACRxDMAPollDemand                               .pio/build/lptm4c1294ncpdt/src/Drivers/soc/driverlib/emac.o
EMACRxDisable                                     .pio/build/lptm4c1294ncpdt/src/Drivers/soc/driverlib/emac.o
EMACRxEnable                                      .pio/build/lptm4c1294ncpdt/src/Drivers/soc/driverlib/emac.o
EMACRxWatchdogTimerSet                            .pio/build/lptm4c1294ncpdt/src/Drivers/soc/driverlib/emac.o
EMACStatusGet                                     .pio/build/lptm4c1294ncpdt/src/Drivers/soc/driverlib/emac.o
EMACTimestampAddendSet                            .pio/build/lptm4c1294ncpdt/src/Drivers/soc/driverlib/emac.o
EMACTimestampConfigGet                            .pio/build/lptm4c1294ncpdt/src/Drivers/soc/driverlib/emac.o
EMACTimestampConfigSet                            .pio/build/lptm4c1294ncpdt/src/Drivers/soc/driverlib/emac.o
EMACTimestampDisable                              .pio/build/lptm4c1294ncpdt/src/Drivers/soc/driverlib/emac.o
EMACTimestampEnable                               .pio/build/lptm4c1294ncpdt/src/Drivers/soc/driverlib/emac.o
EMACTimestampIntStatus                            .pio/build/lptm4c1294ncpdt/src/Drivers/soc/driverlib/emac.o
EMACTimestampPPSCommand                           .pio/build/lptm4c1294ncpdt/src/Drivers/soc/driverlib/emac.o
EMACTimestampPPSCommandModeSet                    .pio/build/lptm4c1294ncpdt/src/Drivers/soc/driverlib/emac.o
EMACTimestampPPSPeriodSet                         .pio/build/lptm4c1294ncpdt/src/Drivers/soc/driverlib/emac.o
EMACTimestampPPSSimpleModeSet                     .pio/build/lptm4c1294ncpdt/src/Drivers/soc/driverlib/emac.o
EMACTimestampSysTimeGet                           .pio/build/lptm4c1294ncpdt/src/Drivers/soc/driverlib/emac.o
EMACTimestampSysTimeSet                           .pio/build/lptm4c1294ncpdt/src/Drivers/soc/driverlib/emac.o
EMACTimestampSysTimeUpdate                        .pio/build/lptm4c1294ncpdt/src/Drivers/soc/driverlib/emac.o
EMACTimestampTargetIntDisable                     .pio/build/lptm4c1294ncpdt/src/Drivers/soc/driverlib/emac.o
EMACTimestampTargetIntEnable                      .pio/build/lptm4c1294ncpdt/src/Drivers/soc/driverlib/emac.o
EMACTimestampTargetSet                            .pio/build/lptm4c1294ncpdt/src/Drivers/soc/driverlib/emac.o
EMACTxDMACurrentBufferGet                         .pio/build/lptm4c1294ncpdt/src/Drivers/soc/driverlib/emac.o
EMACTxDMACurrentDescriptorGet                     .pio/build/lptm4c1294ncpdt/src/Drivers/soc/driverlib/emac.o
EMACTxDMADescriptorListGet                        .pio/build/lptm4c1294ncpdt/src/Drivers/soc/driverlib/emac.o
EMACTxDMADescriptorListSet                        .pio/build/lptm4c1294ncpdt/src/Drivers/soc/driverlib/emac.o
EMACTxDMAPollDemand                               .pio/build/lptm4c1294ncpdt/src/Drivers/soc/driverlib/emac.o
EMACTxDisable                                     .pio/build/lptm4c1294ncpdt/src/Drivers/soc/driverlib/emac.o
EMACTxEnable                                      .pio/build/lptm4c1294ncpdt/src/Drivers/soc/driverlib/emac.o
EMACTxFlush                                       .pio/build/lptm4c1294ncpdt/src/Drivers/soc/driverlib/emac.o
EMACVLANHashFilterBitCalculate                    .pio/build/lptm4c1294ncpdt/src/Drivers/soc/driverlib/emac.o
EMACVLANHashFilterGet                             .pio/build/lptm4c1294ncpdt/src/Drivers/soc/driverlib/emac.o
EMACVLANHashFilterSet                             .pio/build/lptm4c1294ncpdt/src/Drivers/soc/driverlib/emac.o
EMACVLANRxConfigGet                               .pio/build/lptm4c1294ncpdt/src/Drivers/soc/driverlib/emac.o
EMACVLANRxConfigSet                               .pio/build/lptm4c1294ncpdt/src/Drivers/soc/driverlib/emac.o
EMACVLANTxConfigGet                               .pio/build/lptm4c1294ncpdt/src/Drivers/soc/driverlib/emac.o
EMACVLANTxConfigSet                               .pio/build/lptm4c1294ncpdt/src/Drivers/soc/driverlib/emac.o
EMACWoLEnter                                      .pio/build/lptm4c1294ncpdt/src/Drivers/soc/driverlib/emac.o
EPIAddressMapSet                                  .pio/build/lptm4c1294ncpdt/src/Drivers/soc/driverlib/epi.o
EPIConfigGPModeSet                                .pio/build/lptm4c1294ncpdt/src/Drivers/soc/driverlib/epi.o
EPIConfigHB16CSSet                                .pio/build/lptm4c1294ncpdt/src/Drivers/soc/driverlib/epi.o
EPIConfigHB16Set                                  .pio/build/lptm4c1294ncpdt/src/Drivers/soc/driverlib/epi.o
EPIConfigHB16TimingSet                            .pio/build/lptm4c1294ncpdt/src/Drivers/soc/driverlib/epi.o
EPIConfigHB8CSSet                                 .pio/build/lptm4c1294ncpdt/src/Drivers/soc/driverlib/epi.o
EPIConfigHB8Set                                   .pio/build/lptm4c1294ncpdt/src/Drivers/soc/driverlib/epi.o
EPIConfigHB8TimingSet                             .pio/build/lptm4c1294ncpdt/src/Drivers/soc/driverlib/epi.o
EPIConfigSDRAMSet                                 .pio/build/lptm4c1294ncpdt/src/Drivers/soc/driverlib/epi.o
EPIDMATxCount                                     .pio/build/lptm4c1294ncpdt/src/Drivers/soc/driverlib/epi.o
EPIDividerCSSet                                   .pio/build/lptm4c1294ncpdt/src/Drivers/soc/driverlib/epi.o
EPIDividerSet                                     .pio/build/lptm4c1294ncpdt/src/Drivers/soc/driverlib/epi.o
EPIFIFOConfig                                     .pio/build/lptm4c1294ncpdt/src/Drivers/soc/driverlib/epi.o
EPIIntDisable                                     .pio/build/lptm4c1294ncpdt/src/Drivers/soc/driverlib/epi.o
EPIIntEnable                                      .pio/build/lptm4c1294ncpdt/src/Drivers/soc/driverlib/epi.o
EPIIntErrorClear                                  .pio/build/lptm4c1294ncpdt/src/Drivers/soc/driverlib/epi.o
EPIIntErrorStatus                                 .pio/build/lptm4c1294ncpdt/src/Drivers/soc/driverlib/epi.o
EPIIntRegister                                    .pio/build/lptm4c1294ncpdt/src/Drivers/soc/driverlib/epi.o
EPIIntStatus                                      .pio/build/lptm4c1294ncpdt/src/Drivers/soc/driverlib/epi.o
EPIIntUnregister                                  .pio/build/lptm4c1294ncpdt/src/Drivers/soc/driverlib/epi.o
EPIModeSet                                        .pio/build/lptm4c1294ncpdt/src/Drivers/soc/driverlib/epi.o
EPINonBlockingReadAvail                           .pio/build/lptm4c1294ncpdt/src/Drivers/soc/driverlib/epi.o
EPINonBlockingReadConfigure                       .pio/build/lptm4c1294ncpdt/src/Drivers/soc/driverlib/epi.o
EPINonBlockingReadCount                           .pio/build/lptm4c1294ncpdt/src/Drivers/soc/driverlib/epi.o
EPINonBlockingReadGet16                           .pio/build/lptm4c1294ncpdt/src/Drivers/soc/driverlib/epi.o
EPINonBlockingReadGet32                           .pio/build/lptm4c1294ncpdt/src/Drivers/soc/driverlib/epi.o
EPINonBlockingReadGet8                            .pio/build/lptm4c1294ncpdt/src/Drivers/soc/driverlib/epi.o
EPINonBlockingReadStart                           .pio/build/lptm4c1294ncpdt/src/Drivers/soc/driverlib/epi.o
EPINonBlockingReadStop                            .pio/build/lptm4c1294ncpdt/src/Drivers/soc/driverlib/epi.o
EPIPSRAMConfigRegGet                              .pio/build/lptm4c1294ncpdt/src/Drivers/soc/driverlib/epi.o
EPIPSRAMConfigRegGetNonBlocking                   .pio/build/lptm4c1294ncpdt/src/Drivers/soc/driverlib/epi.o
EPIPSRAMConfigRegRead                             .pio/build/lptm4c1294ncpdt/src/Drivers/soc/driverlib/epi.o
EPIPSRAMConfigRegSet                              .pio/build/lptm4c1294ncpdt/src/Drivers/soc/driverlib/epi.o
EPIWorkaroundByteRead                             .pio/build/lptm4c1294ncpdt/src/Drivers/soc/driverlib/epi.o
EPIWorkaroundByteWrite                            .pio/build/lptm4c1294ncpdt/src/Drivers/soc/driverlib/epi.o
EPIWorkaroundHWordRead                            .pio/build/lptm4c1294ncpdt/src/Drivers/soc/driverlib/epi.o
EPIWorkaroundHWordWrite                           .pio/build/lptm4c1294ncpdt/src/Drivers/soc/driverlib/epi.o
EPIWorkaroundWordRead                             .pio/build/lptm4c1294ncpdt/src/Drivers/soc/driverlib/epi.o
EPIWorkaroundWordWrite                            .pio/build/lptm4c1294ncpdt/src/Drivers/soc/driverlib/epi.o
EPIWriteFIFOCountGet                              .pio/build/lptm4c1294ncpdt/src/Drivers/soc/driverlib/epi.o
FPUDisable                                        .pio/build/lptm4c1294ncpdt/src/Drivers/soc/driverlib/fpu.o
FPUEnable                                         .pio/build/lptm4c1294ncpdt/src/Drivers/soc/driverlib/fpu.o
FPUFlushToZeroModeSet                             .pio/build/lptm4c1294ncpdt/src/Drivers/soc/driverlib/fpu.o
FPUHalfPrecisionModeSet                           .pio/build/lptm4c1294ncpdt/src/Drivers/soc/driverlib/fpu.o
FPULazyStackingEnable                             .pio/build/lptm4c1294ncpdt/src/Drivers/soc/driverlib/fpu.o
FPUNaNModeSet                                     .pio/build/lptm4c1294ncpdt/src/Drivers/soc/driverlib/fpu.o
FPURoundingModeSet                                .pio/build/lptm4c1294ncpdt/src/Drivers/soc/driverlib/fpu.o
FPUStackingDisable                                .pio/build/lptm4c1294ncpdt/src/Drivers/soc/driverlib/fpu.o
FPUStackingEnable                                 .pio/build/lptm4c1294ncpdt/src/Drivers/soc/driverlib/fpu.o
FlashAllUserRegisterGet                           .pio/build/lptm4c1294ncpdt/src/Drivers/soc/driverlib/flash.o
FlashAllUserRegisterSave                          .pio/build/lptm4c1294ncpdt/src/Drivers/soc/driverlib/flash.o
FlashAllUserRegisterSet                           .pio/build/lptm4c1294ncpdt/src/Drivers/soc/driverlib/flash.o
FlashErase                                        .pio/build/lptm4c1294ncpdt/src/Drivers/soc/driverlib/flash.o
FlashIntClear                                     .pio/build/lptm4c1294ncpdt/src/Drivers/soc/driverlib/flash.o
FlashIntDisable                                   .pio/build/lptm4c1294ncpdt/src/Drivers/soc/driverlib/flash.o
FlashIntEnable                                    .pio/build/lptm4c1294ncpdt/src/Drivers/soc/driverlib/flash.o
FlashIntRegister                                  .pio/build/lptm4c1294ncpdt/src/Drivers/soc/driverlib/flash.o
FlashIntStatus                                    .pio/build/lptm4c1294ncpdt/src/Drivers/soc/driverlib/flash.o
FlashIntUnregister                                .pio/build/lptm4c1294ncpdt/src/Drivers/soc/driverlib/flash.o
FlashProgram                                      .pio/build/lptm4c1294ncpdt/src/Drivers/soc/driverlib/flash.o
FlashProtectGet                                   .pio/build/lptm4c1294ncpdt/src/Drivers/soc/driverlib/flash.o
FlashProtectSave                                  .pio/build/lptm4c1294ncpdt/src/Drivers/soc/driverlib/flash.o
FlashProtectSet                                   .pio/build/lptm4c1294ncpdt/src/Drivers/soc/driverlib/flash.o
FlashUserGet                                      .pio/build/lptm4c1294ncpdt/src/Drivers/soc/driverlib/flash.o
FlashUserSave                                     .pio/build/lptm4c1294ncpdt/src/Drivers/soc/driverlib/flash.o
FlashUserSet                                      .pio/build/lptm4c1294ncpdt/src/Drivers/soc/driverlib/flash.o
Flash_Access_MutexHandle                          .pio/build/lptm4c1294ncpdt/src/NeonRTOS/HTTPd/NeonRtFs.o
GPIOADCTriggerDisable                             .pio/build/lptm4c1294ncpdt/src/Drivers/soc/driverlib/gpio.o
GPIOADCTriggerEnable                              .pio/build/lptm4c1294ncpdt/src/Drivers/soc/driverlib/gpio.o
GPIOA_IRQ_Handler                                 .pio/build/lptm4c1294ncpdt/src/Drivers/W-Link/Driver/GPIO/GPIO_TM4C1294.o
GPIOB_IRQ_Handler                                 .pio/build/lptm4c1294ncpdt/src/Drivers/W-Link/Driver/GPIO/GPIO_TM4C1294.o
GPIOC_IRQ_Handler                                 .pio/build/lptm4c1294ncpdt/src/Drivers/W-Link/Driver/GPIO/GPIO_TM4C1294.o
GPIODMATriggerDisable                             .pio/build/lptm4c1294ncpdt/src/Drivers/soc/driverlib/gpio.o
GPIODMATriggerEnable                              .pio/build/lptm4c1294ncpdt/src/Drivers/soc/driverlib/gpio.o
GPIOD_IRQ_Handler                                 .pio/build/lptm4c1294ncpdt/src/Drivers/W-Link/Driver/GPIO/GPIO_TM4C1294.o
GPIODirModeGet                                    .pio/build/lptm4c1294ncpdt/src/Drivers/soc/driverlib/gpio.o
GPIODirModeSet                                    .pio/build/lptm4c1294ncpdt/src/Drivers/soc/driverlib/gpio.o
GPIOE_IRQ_Handler                                 .pio/build/lptm4c1294ncpdt/src/Drivers/W-Link/Driver/GPIO/GPIO_TM4C1294.o
GPIOF_IRQ_Handler                                 .pio/build/lptm4c1294ncpdt/src/Drivers/W-Link/Driver/GPIO/GPIO_TM4C1294.o
GPIOG_IRQ_Handler                                 .pio/build/lptm4c1294ncpdt/src/Drivers/W-Link/Driver/GPIO/GPIO_TM4C1294.o
GPIOH_IRQ_Handler                                 .pio/build/lptm4c1294ncpdt/src/Drivers/W-Link/Driver/GPIO/GPIO_TM4C1294.o
GPIOIntClear                                      .pio/build/lptm4c1294ncpdt/src/Drivers/soc/driverlib/gpio.o
                                                  .pio/build/lptm4c1294ncpdt/src/Drivers/W-Link/Driver/GPIO/GPIO_TM4C1294.o
GPIOIntDisable                                    .pio/build/lptm4c1294ncpdt/src/Drivers/soc/driverlib/gpio.o
GPIOIntEnable                                     .pio/build/lptm4c1294ncpdt/src/Drivers/soc/driverlib/gpio.o
GPIOIntRegister                                   .pio/build/lptm4c1294ncpdt/src/Drivers/soc/driverlib/gpio.o
                                                  .pio/build/lptm4c1294ncpdt/src/Drivers/W-Link/Driver/GPIO/GPIO_TM4C1294.o
GPIOIntRegisterPin                                .pio/build/lptm4c1294ncpdt/src/Drivers/soc/driverlib/gpio.o
GPIOIntStatus                                     .pio/build/lptm4c1294ncpdt/src/Drivers/soc/driverlib/gpio.o
                                                  .pio/build/lptm4c1294ncpdt/src/Drivers/W-Link/Driver/GPIO/GPIO_TM4C1294.o
GPIOIntTypeGet                                    .pio/build/lptm4c1294ncpdt/src/Drivers/soc/driverlib/gpio.o
GPIOIntTypeSet                                    .pio/build/lptm4c1294ncpdt/src/Drivers/soc/driverlib/gpio.o
GPIOIntUnregister                                 .pio/build/lptm4c1294ncpdt/src/Drivers/soc/driverlib/gpio.o
                                                  .pio/build/lptm4c1294ncpdt/src/Drivers/W-Link/Driver/GPIO/GPIO_TM4C1294.o
GPIOIntUnregisterPin                              .pio/build/lptm4c1294ncpdt/src/Drivers/soc/driverlib/gpio.o
GPIOJ_IRQ_Handler                                 .pio/build/lptm4c1294ncpdt/src/Drivers/W-Link/Driver/GPIO/GPIO_TM4C1294.o
GPIOK_IRQ_Handler                                 .pio/build/lptm4c1294ncpdt/src/Drivers/W-Link/Driver/GPIO/GPIO_TM4C1294.o
GPIOL_IRQ_Handler                                 .pio/build/lptm4c1294ncpdt/src/Drivers/W-Link/Driver/GPIO/GPIO_TM4C1294.o
GPIOM_IRQ_Handler                                 .pio/build/lptm4c1294ncpdt/src/Drivers/W-Link/Driver/GPIO/GPIO_TM4C1294.o
GPION_IRQ_Handler                                 .pio/build/lptm4c1294ncpdt/src/Drivers/W-Link/Driver/GPIO/GPIO_TM4C1294.o
GPIOP_IRQ_Handler                                 .pio/build/lptm4c1294ncpdt/src/Drivers/W-Link/Driver/GPIO/GPIO_TM4C1294.o
GPIOPadConfigGet                                  .pio/build/lptm4c1294ncpdt/src/Drivers/soc/driverlib/gpio.o
GPIOPadConfigSet                                  .pio/build/lptm4c1294ncpdt/src/Drivers/soc/driverlib/gpio.o
                                                  .pio/build/lptm4c1294ncpdt/src/Drivers/W-Link/Driver/GPIO/GPIO_TM4C1294.o
GPIOPinConfigure                                  .pio/build/lptm4c1294ncpdt/src/Drivers/soc/driverlib/gpio.o
GPIOPinRead                                       .pio/build/lptm4c1294ncpdt/src/Drivers/soc/driverlib/gpio.o
GPIOPinTypeADC                                    .pio/build/lptm4c1294ncpdt/src/Drivers/soc/driverlib/gpio.o
GPIOPinTypeCAN                                    .pio/build/lptm4c1294ncpdt/src/Drivers/soc/driverlib/gpio.o
GPIOPinTypeComparator                             .pio/build/lptm4c1294ncpdt/src/Drivers/soc/driverlib/gpio.o
GPIOPinTypeComparatorOutput                       .pio/build/lptm4c1294ncpdt/src/Drivers/soc/driverlib/gpio.o
GPIOPinTypeDIVSCLK                                .pio/build/lptm4c1294ncpdt/src/Drivers/soc/driverlib/gpio.o
GPIOPinTypeEPI                                    .pio/build/lptm4c1294ncpdt/src/Drivers/soc/driverlib/gpio.o
GPIOPinTypeEthernetLED                            .pio/build/lptm4c1294ncpdt/src/Drivers/soc/driverlib/gpio.o
                                                  .pio/build/lptm4c1294ncpdt/src/Drivers/ethernetif/ethernetif_tm4c1294.o
GPIOPinTypeEthernetMII                            .pio/build/lptm4c1294ncpdt/src/Drivers/soc/driverlib/gpio.o
GPIOPinTypeGPIOInput                              .pio/build/lptm4c1294ncpdt/src/Drivers/soc/driverlib/gpio.o
GPIOPinTypeGPIOOutput                             .pio/build/lptm4c1294ncpdt/src/Drivers/soc/driverlib/gpio.o
GPIOPinTypeGPIOOutputOD                           .pio/build/lptm4c1294ncpdt/src/Drivers/soc/driverlib/gpio.o
GPIOPinTypeHibernateRTCCLK                        .pio/build/lptm4c1294ncpdt/src/Drivers/soc/driverlib/gpio.o
GPIOPinTypeI2C                                    .pio/build/lptm4c1294ncpdt/src/Drivers/soc/driverlib/gpio.o
GPIOPinTypeI2CSCL                                 .pio/build/lptm4c1294ncpdt/src/Drivers/soc/driverlib/gpio.o
GPIOPinTypeLCD                                    .pio/build/lptm4c1294ncpdt/src/Drivers/soc/driverlib/gpio.o
GPIOPinTypeOneWire                                .pio/build/lptm4c1294ncpdt/src/Drivers/soc/driverlib/gpio.o
GPIOPinTypePWM                                    .pio/build/lptm4c1294ncpdt/src/Drivers/soc/driverlib/gpio.o
GPIOPinTypeQEI                                    .pio/build/lptm4c1294ncpdt/src/Drivers/soc/driverlib/gpio.o
GPIOPinTypeSSI                                    .pio/build/lptm4c1294ncpdt/src/Drivers/soc/driverlib/gpio.o
GPIOPinTypeTimer                                  .pio/build/lptm4c1294ncpdt/src/Drivers/soc/driverlib/gpio.o
GPIOPinTypeTrace                                  .pio/build/lptm4c1294ncpdt/src/Drivers/soc/driverlib/gpio.o
GPIOPinTypeUART                                   .pio/build/lptm4c1294ncpdt/src/Drivers/soc/driverlib/gpio.o
GPIOPinTypeUSBAnalog                              .pio/build/lptm4c1294ncpdt/src/Drivers/soc/driverlib/gpio.o
GPIOPinTypeUSBDigital                             .pio/build/lptm4c1294ncpdt/src/Drivers/soc/driverlib/gpio.o
GPIOPinTypeWakeHigh                               .pio/build/lptm4c1294ncpdt/src/Drivers/soc/driverlib/gpio.o
GPIOPinTypeWakeLow                                .pio/build/lptm4c1294ncpdt/src/Drivers/soc/driverlib/gpio.o
GPIOPinWakeStatus                                 .pio/build/lptm4c1294ncpdt/src/Drivers/soc/driverlib/gpio.o
GPIOPinWrite                                      .pio/build/lptm4c1294ncpdt/src/Drivers/soc/driverlib/gpio.o
GPIOQ_IRQ_Handler                                 .pio/build/lptm4c1294ncpdt/src/Drivers/W-Link/Driver/GPIO/GPIO_TM4C1294.o
GPIOUnlockPin                                     .pio/build/lptm4c1294ncpdt/src/Drivers/soc/driverlib/gpio.o
GPIO_Config_Interrupt_Mode                        .pio/build/lptm4c1294ncpdt/src/Drivers/W-Link/Driver/GPIO/GPIO_TM4C1294.o
GPIO_Enable_Port_Clock                            .pio/build/lptm4c1294ncpdt/src/Drivers/W-Link/Driver/GPIO/Pin/GPIO_Pin_TM4C1294.o
                                                  .pio/build/lptm4c1294ncpdt/src/Drivers/W-Link/Driver/UART/UART_TM4C1294.o
                                                  .pio/build/lptm4c1294ncpdt/src/Drivers/W-Link/Driver/PWM/PWM_TM4C1294.o
                                                  .pio/build/lptm4c1294ncpdt/src/Drivers/W-Link/Driver/GPIO/GPIO_TM4C1294.o
GPIO_IRQ_Handler                                  .pio/build/lptm4c1294ncpdt/src/Drivers/W-Link/Driver/GPIO/GPIO_TM4C1294.o
GPIO_Interrupt_DeInit                             .pio/build/lptm4c1294ncpdt/src/Drivers/W-Link/Driver/GPIO/GPIO_TM4C1294.o
GPIO_Interrupt_Disable                            .pio/build/lptm4c1294ncpdt/src/Drivers/W-Link/Driver/GPIO/GPIO_TM4C1294.o
GPIO_Interrupt_Enable                             .pio/build/lptm4c1294ncpdt/src/Drivers/W-Link/Driver/GPIO/GPIO_TM4C1294.o
GPIO_Interrupt_Init                               .pio/build/lptm4c1294ncpdt/src/Drivers/W-Link/Driver/GPIO/GPIO_TM4C1294.o
GPIO_Interrupt_Pin_Read                           .pio/build/lptm4c1294ncpdt/src/Drivers/W-Link/Driver/GPIO/GPIO_TM4C1294.o
GPIO_Map_Int_Pin_By_Mask                          .pio/build/lptm4c1294ncpdt/src/Drivers/W-Link/Driver/GPIO/Pin/GPIO_Pin_TM4C1294.o
                                                  .pio/build/lptm4c1294ncpdt/src/Drivers/W-Link/Driver/GPIO/GPIO_TM4C1294.o
GPIO_Map_Pin_Int_Mask                             .pio/build/lptm4c1294ncpdt/src/Drivers/W-Link/Driver/GPIO/Pin/GPIO_Pin_TM4C1294.o
                                                  .pio/build/lptm4c1294ncpdt/src/Drivers/W-Link/Driver/GPIO/GPIO_TM4C1294.o
GPIO_Map_Soc_Int_Pin_Mask                         .pio/build/lptm4c1294ncpdt/src/Drivers/W-Link/Driver/GPIO/Pin/GPIO_Pin_TM4C1294.o
                                                  .pio/build/lptm4c1294ncpdt/src/Drivers/W-Link/Driver/GPIO/GPIO_TM4C1294.o
GPIO_Map_Soc_Int_Port_Base                        .pio/build/lptm4c1294ncpdt/src/Drivers/W-Link/Driver/GPIO/Pin/GPIO_Pin_TM4C1294.o
                                                  .pio/build/lptm4c1294ncpdt/src/Drivers/W-Link/Driver/GPIO/GPIO_TM4C1294.o
GPIO_Map_Soc_Int_Port_HighSpeed_Base              .pio/build/lptm4c1294ncpdt/src/Drivers/W-Link/Driver/GPIO/Pin/GPIO_Pin_TM4C1294.o
GPIO_Map_Soc_Pin_Mask                             .pio/build/lptm4c1294ncpdt/src/Drivers/W-Link/Driver/GPIO/Pin/GPIO_Pin_TM4C1294.o
                                                  .pio/build/lptm4c1294ncpdt/src/Drivers/W-Link/Driver/UART/UART_TM4C1294.o
                                                  .pio/build/lptm4c1294ncpdt/src/Drivers/W-Link/Driver/PWM/PWM_TM4C1294.o
                                                  .pio/build/lptm4c1294ncpdt/src/Drivers/W-Link/Driver/GPIO/GPIO_TM4C1294.o
GPIO_Map_Soc_Port_Base                            .pio/build/lptm4c1294ncpdt/src/Drivers/W-Link/Driver/GPIO/Pin/GPIO_Pin_TM4C1294.o
                                                  .pio/build/lptm4c1294ncpdt/src/Drivers/W-Link/Driver/UART/UART_TM4C1294.o
                                                  .pio/build/lptm4c1294ncpdt/src/Drivers/W-Link/Driver/PWM/PWM_TM4C1294.o
                                                  .pio/build/lptm4c1294ncpdt/src/Drivers/W-Link/Driver/GPIO/GPIO_TM4C1294.o
GPIO_Map_Soc_Port_HighSpeed_Base                  .pio/build/lptm4c1294ncpdt/src/Drivers/W-Link/Driver/GPIO/Pin/GPIO_Pin_TM4C1294.o
GPIO_Pin_DeInit                                   .pio/build/lptm4c1294ncpdt/src/Drivers/W-Link/Driver/GPIO/GPIO_TM4C1294.o
GPIO_Pin_Get_Direction                            .pio/build/lptm4c1294ncpdt/src/Drivers/W-Link/Driver/GPIO/GPIO_TM4C1294.o
GPIO_Pin_Get_PullMode                             .pio/build/lptm4c1294ncpdt/src/Drivers/W-Link/Driver/GPIO/GPIO_TM4C1294.o
GPIO_Pin_Init                                     .pio/build/lptm4c1294ncpdt/src/Drivers/W-Link/Driver/GPIO/GPIO_TM4C1294.o
                                                  .pio/build/lptm4c1294ncpdt/src/NeonRTOS/NeonAppInterface.o
GPIO_Pin_Read                                     .pio/build/lptm4c1294ncpdt/src/Drivers/W-Link/Driver/GPIO/GPIO_TM4C1294.o
GPIO_Pin_Set_Direction                            .pio/build/lptm4c1294ncpdt/src/Drivers/W-Link/Driver/GPIO/GPIO_TM4C1294.o
GPIO_Pin_Set_PullMode                             .pio/build/lptm4c1294ncpdt/src/Drivers/W-Link/Driver/GPIO/GPIO_TM4C1294.o
GPIO_Pin_Toggle                                   .pio/build/lptm4c1294ncpdt/src/Drivers/W-Link/Driver/GPIO/GPIO_TM4C1294.o
GPIO_Pin_Write                                    .pio/build/lptm4c1294ncpdt/src/Drivers/W-Link/Driver/GPIO/GPIO_TM4C1294.o
                                                  .pio/build/lptm4c1294ncpdt/src/NeonRTOS/NeonAppInterface.o
GPIO_Pin_is_Init                                  .pio/build/lptm4c1294ncpdt/src/Drivers/W-Link/Driver/GPIO/GPIO_TM4C1294.o
GPIO_Register_Interrupt_Handler                   .pio/build/lptm4c1294ncpdt/src/Drivers/W-Link/Driver/GPIO/GPIO_TM4C1294.o
GPIO_Unregister_Interrupt_Handler                 .pio/build/lptm4c1294ncpdt/src/Drivers/W-Link/Driver/GPIO/GPIO_TM4C1294.o
HTTP_API_Debug_Tool_Page_HTML                     .pio/build/lptm4c1294ncpdt/src/NeonRTOS/HTTPd/HTTPd.o
HTTP_Accept_Encoding                              .pio/build/lptm4c1294ncpdt/src/NeonRTOS/HTTPd/HTTPd_def.o
                                                  .pio/build/lptm4c1294ncpdt/src/NeonRTOS/HTTPd/HTTPd.o
HTTP_Access_Control_Allow_Origin                  .pio/build/lptm4c1294ncpdt/src/NeonRTOS/HTTPd/HTTPd_def.o
                                                  .pio/build/lptm4c1294ncpdt/src/NeonRTOS/HTTPd/HTTPd.o
HTTP_Authorization                                .pio/build/lptm4c1294ncpdt/src/NeonRTOS/HTTPd/HTTPd_def.o
HTTP_Close                                        .pio/build/lptm4c1294ncpdt/src/NeonRTOS/HTTPd/HTTPd_def.o
                                                  .pio/build/lptm4c1294ncpdt/src/NeonRTOS/HTTPd/HTTPd.o
HTTP_Close_LowerCase                              .pio/build/lptm4c1294ncpdt/src/NeonRTOS/HTTPd/HTTPd_def.o
HTTP_Connection                                   .pio/build/lptm4c1294ncpdt/src/NeonRTOS/HTTPd/HTTPd_def.o
                                                  .pio/build/lptm4c1294ncpdt/src/NeonRTOS/HTTPd/HTTPd.o
HTTP_Content_Disposition                          .pio/build/lptm4c1294ncpdt/src/NeonRTOS/HTTPd/HTTPd_def.o
HTTP_Content_Encoding                             .pio/build/lptm4c1294ncpdt/src/NeonRTOS/HTTPd/HTTPd_def.o
                                                  .pio/build/lptm4c1294ncpdt/src/NeonRTOS/HTTPd/HTTPd.o
HTTP_Content_Length                               .pio/build/lptm4c1294ncpdt/src/NeonRTOS/HTTPd/HTTPd_def.o
                                                  .pio/build/lptm4c1294ncpdt/src/NeonRTOS/HTTPd/HTTPd.o
HTTP_Content_Type                                 .pio/build/lptm4c1294ncpdt/src/NeonRTOS/HTTPd/HTTPd_def.o
                                                  .pio/build/lptm4c1294ncpdt/src/NeonRTOS/HTTPd/HTTPd.o
HTTP_Gzip                                         .pio/build/lptm4c1294ncpdt/src/NeonRTOS/HTTPd/HTTPd_def.o
HTTP_Host                                         .pio/build/lptm4c1294ncpdt/src/NeonRTOS/HTTPd/HTTPd_def.o
                                                  .pio/build/lptm4c1294ncpdt/src/NeonRTOS/HTTPd/HTTPd_Utils.o
HTTP_Host_Name                                    .pio/build/lptm4c1294ncpdt/src/NeonRTOS/HTTPd/HTTPd_def.o
HTTP_Keep_Alive                                   .pio/build/lptm4c1294ncpdt/src/NeonRTOS/HTTPd/HTTPd_def.o
                                                  .pio/build/lptm4c1294ncpdt/src/NeonRTOS/HTTPd/HTTPd.o
HTTP_Keep_Alive_LowerCase                         .pio/build/lptm4c1294ncpdt/src/NeonRTOS/HTTPd/HTTPd_def.o
                                                  .pio/build/lptm4c1294ncpdt/src/NeonRTOS/HTTPd/HTTPd.o
HTTP_Location                                     .pio/build/lptm4c1294ncpdt/src/NeonRTOS/HTTPd/HTTPd_def.o
                                                  .pio/build/lptm4c1294ncpdt/src/NeonRTOS/HTTPd/HTTPd.o
HTTP_Method_DELETE                                .pio/build/lptm4c1294ncpdt/src/NeonRTOS/HTTPd/HTTPd_def.o
                                                  .pio/build/lptm4c1294ncpdt/src/NeonRTOS/HTTPd/HTTPd_Utils.o
HTTP_Method_GET                                   .pio/build/lptm4c1294ncpdt/src/NeonRTOS/HTTPd/HTTPd_def.o
                                                  .pio/build/lptm4c1294ncpdt/src/NeonRTOS/HTTPd/HTTPd_Utils.o
HTTP_Method_POST                                  .pio/build/lptm4c1294ncpdt/src/NeonRTOS/HTTPd/HTTPd_def.o
                                                  .pio/build/lptm4c1294ncpdt/src/NeonRTOS/HTTPd/HTTPd_Utils.o
HTTP_Method_PUT                                   .pio/build/lptm4c1294ncpdt/src/NeonRTOS/HTTPd/HTTPd_def.o
                                                  .pio/build/lptm4c1294ncpdt/src/NeonRTOS/HTTPd/HTTPd_Utils.o
HTTP_Server                                       .pio/build/lptm4c1294ncpdt/src/NeonRTOS/HTTPd/HTTPd_def.o
                                                  .pio/build/lptm4c1294ncpdt/src/NeonRTOS/HTTPd/HTTPd.o
HTTP_Server_Task                                  .pio/build/lptm4c1294ncpdt/src/NeonRTOS/HTTPd/HTTPd.o
HTTP_Status_100                                   .pio/build/lptm4c1294ncpdt/src/NeonRTOS/HTTPd/HTTPd_def.o
                                                  .pio/build/lptm4c1294ncpdt/src/NeonRTOS/HTTPd/HTTPd_Utils.o
HTTP_Status_101                                   .pio/build/lptm4c1294ncpdt/src/NeonRTOS/HTTPd/HTTPd_def.o
                                                  .pio/build/lptm4c1294ncpdt/src/NeonRTOS/HTTPd/HTTPd_Utils.o
HTTP_Status_102                                   .pio/build/lptm4c1294ncpdt/src/NeonRTOS/HTTPd/HTTPd_def.o
                                                  .pio/build/lptm4c1294ncpdt/src/NeonRTOS/HTTPd/HTTPd_Utils.o
HTTP_Status_200                                   .pio/build/lptm4c1294ncpdt/src/NeonRTOS/HTTPd/HTTPd_def.o
                                                  .pio/build/lptm4c1294ncpdt/src/NeonRTOS/HTTPd/HTTPd_Utils.o
HTTP_Status_201                                   .pio/build/lptm4c1294ncpdt/src/NeonRTOS/HTTPd/HTTPd_def.o
                                                  .pio/build/lptm4c1294ncpdt/src/NeonRTOS/HTTPd/HTTPd_Utils.o
HTTP_Status_202                                   .pio/build/lptm4c1294ncpdt/src/NeonRTOS/HTTPd/HTTPd_def.o
                                                  .pio/build/lptm4c1294ncpdt/src/NeonRTOS/HTTPd/HTTPd_Utils.o
HTTP_Status_203                                   .pio/build/lptm4c1294ncpdt/src/NeonRTOS/HTTPd/HTTPd_def.o
                                                  .pio/build/lptm4c1294ncpdt/src/NeonRTOS/HTTPd/HTTPd_Utils.o
HTTP_Status_204                                   .pio/build/lptm4c1294ncpdt/src/NeonRTOS/HTTPd/HTTPd_def.o
                                                  .pio/build/lptm4c1294ncpdt/src/NeonRTOS/HTTPd/HTTPd_Utils.o
HTTP_Status_205                                   .pio/build/lptm4c1294ncpdt/src/NeonRTOS/HTTPd/HTTPd_def.o
                                                  .pio/build/lptm4c1294ncpdt/src/NeonRTOS/HTTPd/HTTPd_Utils.o
HTTP_Status_206                                   .pio/build/lptm4c1294ncpdt/src/NeonRTOS/HTTPd/HTTPd_def.o
                                                  .pio/build/lptm4c1294ncpdt/src/NeonRTOS/HTTPd/HTTPd_Utils.o
HTTP_Status_207                                   .pio/build/lptm4c1294ncpdt/src/NeonRTOS/HTTPd/HTTPd_def.o
                                                  .pio/build/lptm4c1294ncpdt/src/NeonRTOS/HTTPd/HTTPd_Utils.o
HTTP_Status_300                                   .pio/build/lptm4c1294ncpdt/src/NeonRTOS/HTTPd/HTTPd_def.o
                                                  .pio/build/lptm4c1294ncpdt/src/NeonRTOS/HTTPd/HTTPd_Utils.o
HTTP_Status_301                                   .pio/build/lptm4c1294ncpdt/src/NeonRTOS/HTTPd/HTTPd_def.o
                                                  .pio/build/lptm4c1294ncpdt/src/NeonRTOS/HTTPd/HTTPd_Utils.o
HTTP_Status_302                                   .pio/build/lptm4c1294ncpdt/src/NeonRTOS/HTTPd/HTTPd_def.o
                                                  .pio/build/lptm4c1294ncpdt/src/NeonRTOS/HTTPd/HTTPd_Utils.o
HTTP_Status_303                                   .pio/build/lptm4c1294ncpdt/src/NeonRTOS/HTTPd/HTTPd_def.o
                                                  .pio/build/lptm4c1294ncpdt/src/NeonRTOS/HTTPd/HTTPd_Utils.o
HTTP_Status_304                                   .pio/build/lptm4c1294ncpdt/src/NeonRTOS/HTTPd/HTTPd_def.o
                                                  .pio/build/lptm4c1294ncpdt/src/NeonRTOS/HTTPd/HTTPd_Utils.o
HTTP_Status_305                                   .pio/build/lptm4c1294ncpdt/src/NeonRTOS/HTTPd/HTTPd_def.o
                                                  .pio/build/lptm4c1294ncpdt/src/NeonRTOS/HTTPd/HTTPd_Utils.o
HTTP_Status_306                                   .pio/build/lptm4c1294ncpdt/src/NeonRTOS/HTTPd/HTTPd_def.o
                                                  .pio/build/lptm4c1294ncpdt/src/NeonRTOS/HTTPd/HTTPd_Utils.o
HTTP_Status_307                                   .pio/build/lptm4c1294ncpdt/src/NeonRTOS/HTTPd/HTTPd_def.o
                                                  .pio/build/lptm4c1294ncpdt/src/NeonRTOS/HTTPd/HTTPd_Utils.o
HTTP_Status_400                                   .pio/build/lptm4c1294ncpdt/src/NeonRTOS/HTTPd/HTTPd_def.o
                                                  .pio/build/lptm4c1294ncpdt/src/NeonRTOS/HTTPd/HTTPd_Utils.o
HTTP_Status_401                                   .pio/build/lptm4c1294ncpdt/src/NeonRTOS/HTTPd/HTTPd_def.o
                                                  .pio/build/lptm4c1294ncpdt/src/NeonRTOS/HTTPd/HTTPd_Utils.o
HTTP_Status_402                                   .pio/build/lptm4c1294ncpdt/src/NeonRTOS/HTTPd/HTTPd_def.o
                                                  .pio/build/lptm4c1294ncpdt/src/NeonRTOS/HTTPd/HTTPd_Utils.o
HTTP_Status_403                                   .pio/build/lptm4c1294ncpdt/src/NeonRTOS/HTTPd/HTTPd_def.o
                                                  .pio/build/lptm4c1294ncpdt/src/NeonRTOS/HTTPd/HTTPd_Utils.o
HTTP_Status_404                                   .pio/build/lptm4c1294ncpdt/src/NeonRTOS/HTTPd/HTTPd_def.o
                                                  .pio/build/lptm4c1294ncpdt/src/NeonRTOS/HTTPd/HTTPd_Utils.o
HTTP_Status_405                                   .pio/build/lptm4c1294ncpdt/src/NeonRTOS/HTTPd/HTTPd_def.o
                                                  .pio/build/lptm4c1294ncpdt/src/NeonRTOS/HTTPd/HTTPd_Utils.o
HTTP_Status_406                                   .pio/build/lptm4c1294ncpdt/src/NeonRTOS/HTTPd/HTTPd_def.o
                                                  .pio/build/lptm4c1294ncpdt/src/NeonRTOS/HTTPd/HTTPd_Utils.o
HTTP_Status_407                                   .pio/build/lptm4c1294ncpdt/src/NeonRTOS/HTTPd/HTTPd_def.o
                                                  .pio/build/lptm4c1294ncpdt/src/NeonRTOS/HTTPd/HTTPd_Utils.o
HTTP_Status_408                                   .pio/build/lptm4c1294ncpdt/src/NeonRTOS/HTTPd/HTTPd_def.o
                                                  .pio/build/lptm4c1294ncpdt/src/NeonRTOS/HTTPd/HTTPd_Utils.o
HTTP_Status_409                                   .pio/build/lptm4c1294ncpdt/src/NeonRTOS/HTTPd/HTTPd_def.o
                                                  .pio/build/lptm4c1294ncpdt/src/NeonRTOS/HTTPd/HTTPd_Utils.o
HTTP_Status_410                                   .pio/build/lptm4c1294ncpdt/src/NeonRTOS/HTTPd/HTTPd_def.o
                                                  .pio/build/lptm4c1294ncpdt/src/NeonRTOS/HTTPd/HTTPd_Utils.o
HTTP_Status_411                                   .pio/build/lptm4c1294ncpdt/src/NeonRTOS/HTTPd/HTTPd_def.o
                                                  .pio/build/lptm4c1294ncpdt/src/NeonRTOS/HTTPd/HTTPd_Utils.o
HTTP_Status_412                                   .pio/build/lptm4c1294ncpdt/src/NeonRTOS/HTTPd/HTTPd_def.o
                                                  .pio/build/lptm4c1294ncpdt/src/NeonRTOS/HTTPd/HTTPd_Utils.o
HTTP_Status_413                                   .pio/build/lptm4c1294ncpdt/src/NeonRTOS/HTTPd/HTTPd_def.o
                                                  .pio/build/lptm4c1294ncpdt/src/NeonRTOS/HTTPd/HTTPd_Utils.o
HTTP_Status_414                                   .pio/build/lptm4c1294ncpdt/src/NeonRTOS/HTTPd/HTTPd_def.o
                                                  .pio/build/lptm4c1294ncpdt/src/NeonRTOS/HTTPd/HTTPd_Utils.o
HTTP_Status_415                                   .pio/build/lptm4c1294ncpdt/src/NeonRTOS/HTTPd/HTTPd_def.o
                                                  .pio/build/lptm4c1294ncpdt/src/NeonRTOS/HTTPd/HTTPd_Utils.o
HTTP_Status_416                                   .pio/build/lptm4c1294ncpdt/src/NeonRTOS/HTTPd/HTTPd_def.o
                                                  .pio/build/lptm4c1294ncpdt/src/NeonRTOS/HTTPd/HTTPd_Utils.o
HTTP_Status_417                                   .pio/build/lptm4c1294ncpdt/src/NeonRTOS/HTTPd/HTTPd_def.o
                                                  .pio/build/lptm4c1294ncpdt/src/NeonRTOS/HTTPd/HTTPd_Utils.o
HTTP_Status_418                                   .pio/build/lptm4c1294ncpdt/src/NeonRTOS/HTTPd/HTTPd_def.o
                                                  .pio/build/lptm4c1294ncpdt/src/NeonRTOS/HTTPd/HTTPd_Utils.o
HTTP_Status_421                                   .pio/build/lptm4c1294ncpdt/src/NeonRTOS/HTTPd/HTTPd_def.o
                                                  .pio/build/lptm4c1294ncpdt/src/NeonRTOS/HTTPd/HTTPd_Utils.o
HTTP_Status_422                                   .pio/build/lptm4c1294ncpdt/src/NeonRTOS/HTTPd/HTTPd_def.o
                                                  .pio/build/lptm4c1294ncpdt/src/NeonRTOS/HTTPd/HTTPd_Utils.o
HTTP_Status_423                                   .pio/build/lptm4c1294ncpdt/src/NeonRTOS/HTTPd/HTTPd_def.o
                                                  .pio/build/lptm4c1294ncpdt/src/NeonRTOS/HTTPd/HTTPd_Utils.o
HTTP_Status_424                                   .pio/build/lptm4c1294ncpdt/src/NeonRTOS/HTTPd/HTTPd_def.o
                                                  .pio/build/lptm4c1294ncpdt/src/NeonRTOS/HTTPd/HTTPd_Utils.o
HTTP_Status_425                                   .pio/build/lptm4c1294ncpdt/src/NeonRTOS/HTTPd/HTTPd_def.o
                                                  .pio/build/lptm4c1294ncpdt/src/NeonRTOS/HTTPd/HTTPd_Utils.o
HTTP_Status_426                                   .pio/build/lptm4c1294ncpdt/src/NeonRTOS/HTTPd/HTTPd_def.o
                                                  .pio/build/lptm4c1294ncpdt/src/NeonRTOS/HTTPd/HTTPd_Utils.o
HTTP_Status_449                                   .pio/build/lptm4c1294ncpdt/src/NeonRTOS/HTTPd/HTTPd_def.o
                                                  .pio/build/lptm4c1294ncpdt/src/NeonRTOS/HTTPd/HTTPd_Utils.o
HTTP_Status_451                                   .pio/build/lptm4c1294ncpdt/src/NeonRTOS/HTTPd/HTTPd_def.o
                                                  .pio/build/lptm4c1294ncpdt/src/NeonRTOS/HTTPd/HTTPd_Utils.o
HTTP_Status_500                                   .pio/build/lptm4c1294ncpdt/src/NeonRTOS/HTTPd/HTTPd_def.o
                                                  .pio/build/lptm4c1294ncpdt/src/NeonRTOS/HTTPd/HTTPd_Utils.o
HTTP_Status_501                                   .pio/build/lptm4c1294ncpdt/src/NeonRTOS/HTTPd/HTTPd_def.o
                                                  .pio/build/lptm4c1294ncpdt/src/NeonRTOS/HTTPd/HTTPd_Utils.o
HTTP_Status_502                                   .pio/build/lptm4c1294ncpdt/src/NeonRTOS/HTTPd/HTTPd_def.o
                                                  .pio/build/lptm4c1294ncpdt/src/NeonRTOS/HTTPd/HTTPd_Utils.o
HTTP_Status_503                                   .pio/build/lptm4c1294ncpdt/src/NeonRTOS/HTTPd/HTTPd_def.o
                                                  .pio/build/lptm4c1294ncpdt/src/NeonRTOS/HTTPd/HTTPd_Utils.o
HTTP_Status_504                                   .pio/build/lptm4c1294ncpdt/src/NeonRTOS/HTTPd/HTTPd_def.o
                                                  .pio/build/lptm4c1294ncpdt/src/NeonRTOS/HTTPd/HTTPd_Utils.o
HTTP_Status_505                                   .pio/build/lptm4c1294ncpdt/src/NeonRTOS/HTTPd/HTTPd_def.o
                                                  .pio/build/lptm4c1294ncpdt/src/NeonRTOS/HTTPd/HTTPd_Utils.o
HTTP_Status_506                                   .pio/build/lptm4c1294ncpdt/src/NeonRTOS/HTTPd/HTTPd_def.o
                                                  .pio/build/lptm4c1294ncpdt/src/NeonRTOS/HTTPd/HTTPd_Utils.o
HTTP_Status_507                                   .pio/build/lptm4c1294ncpdt/src/NeonRTOS/HTTPd/HTTPd_def.o
                                                  .pio/build/lptm4c1294ncpdt/src/NeonRTOS/HTTPd/HTTPd_Utils.o
HTTP_Status_509                                   .pio/build/lptm4c1294ncpdt/src/NeonRTOS/HTTPd/HTTPd_def.o
                                                  .pio/build/lptm4c1294ncpdt/src/NeonRTOS/HTTPd/HTTPd_Utils.o
HTTP_Status_510                                   .pio/build/lptm4c1294ncpdt/src/NeonRTOS/HTTPd/HTTPd_def.o
                                                  .pio/build/lptm4c1294ncpdt/src/NeonRTOS/HTTPd/HTTPd_Utils.o
HTTP_Upgrade                                      .pio/build/lptm4c1294ncpdt/src/NeonRTOS/HTTPd/HTTPd_def.o
                                                  .pio/build/lptm4c1294ncpdt/src/NeonRTOS/HTTPd/HTTPd.o
HTTP_Upgrade_Increase_Request                     .pio/build/lptm4c1294ncpdt/src/NeonRTOS/HTTPd/HTTPd_def.o
HTTP_Upgrade_LowerCase                            .pio/build/lptm4c1294ncpdt/src/NeonRTOS/HTTPd/HTTPd_def.o
                                                  .pio/build/lptm4c1294ncpdt/src/NeonRTOS/HTTPd/HTTPd.o
HTTP_Version_1P0                                  .pio/build/lptm4c1294ncpdt/src/NeonRTOS/HTTPd/HTTPd_def.o
                                                  .pio/build/lptm4c1294ncpdt/src/NeonRTOS/HTTPd/HTTPd_Utils.o
HTTP_Version_1P1                                  .pio/build/lptm4c1294ncpdt/src/NeonRTOS/HTTPd/HTTPd_def.o
                                                  .pio/build/lptm4c1294ncpdt/src/NeonRTOS/HTTPd/HTTPd_Utils.o
HTTP_WebSocket_Server_Socket                      .pio/build/lptm4c1294ncpdt/src/NeonRTOS/HTTPd/HTTPd.o
HTTPdGetMimetype                                  .pio/build/lptm4c1294ncpdt/src/NeonRTOS/HTTPd/HTTPd.o
HTTPdSendApiDebugToolPage                         .pio/build/lptm4c1294ncpdt/src/NeonRTOS/HTTPd/HTTPd.o
HTTPd_CGI_ParseUint                               .pio/build/lptm4c1294ncpdt/src/NeonRTOS/HTTPd/HTTPd.o
                                                  .pio/build/lptm4c1294ncpdt/src/APP/LED_PWM_APP.o
HTTPd_CGI_PathStartsWith                          .pio/build/lptm4c1294ncpdt/src/NeonRTOS/HTTPd/HTTPd.o
                                                  .pio/build/lptm4c1294ncpdt/src/APP/LED_PWM_APP.o
HTTPd_Get_CGI_Request_Data                        .pio/build/lptm4c1294ncpdt/src/NeonRTOS/HTTPd/HTTPd.o
                                                  .pio/build/lptm4c1294ncpdt/src/NeonRTOS/NeonAppInterface.o
                                                  .pio/build/lptm4c1294ncpdt/src/APP/LED_PWM_APP.o
HTTPd_Get_CGI_Request_Type                        .pio/build/lptm4c1294ncpdt/src/NeonRTOS/HTTPd/HTTPd.o
                                                  .pio/build/lptm4c1294ncpdt/src/NeonRTOS/NeonAppInterface.o
                                                  .pio/build/lptm4c1294ncpdt/src/APP/LED_PWM_APP.o
HTTPd_Get_CGI_Request_URL                         .pio/build/lptm4c1294ncpdt/src/NeonRTOS/HTTPd/HTTPd.o
                                                  .pio/build/lptm4c1294ncpdt/src/APP/LED_PWM_APP.o
HTTPd_Get_Header_Method                           .pio/build/lptm4c1294ncpdt/src/NeonRTOS/HTTPd/HTTPd_Utils.o
                                                  .pio/build/lptm4c1294ncpdt/src/NeonRTOS/HTTPd/HTTPd.o
HTTPd_Get_Header_Path                             .pio/build/lptm4c1294ncpdt/src/NeonRTOS/HTTPd/HTTPd_Utils.o
                                                  .pio/build/lptm4c1294ncpdt/src/NeonRTOS/HTTPd/HTTPd.o
HTTPd_Get_Header_Value                            .pio/build/lptm4c1294ncpdt/src/NeonRTOS/HTTPd/HTTPd_Utils.o
                                                  .pio/build/lptm4c1294ncpdt/src/NeonRTOS/HTTPd/HTTPd.o
HTTPd_Get_Host                                    .pio/build/lptm4c1294ncpdt/src/NeonRTOS/HTTPd/HTTPd_Utils.o
                                                  .pio/build/lptm4c1294ncpdt/src/NeonRTOS/HTTPd/HTTPd.o
HTTPd_Init                                        .pio/build/lptm4c1294ncpdt/src/NeonRTOS/HTTPd/HTTPd.o
                                                  .pio/build/lptm4c1294ncpdt/src/NeonRTOS/NeonAppInterface.o
HTTPd_NotFound                                    .pio/build/lptm4c1294ncpdt/src/NeonRTOS/HTTPd/HTTPd.o
HTTPd_Parse_End_Of_Headers                        .pio/build/lptm4c1294ncpdt/src/NeonRTOS/HTTPd/HTTPd_Utils.o
                                                  .pio/build/lptm4c1294ncpdt/src/NeonRTOS/HTTPd/HTTPd.o
HTTPd_Parse_Headers                               .pio/build/lptm4c1294ncpdt/src/NeonRTOS/HTTPd/HTTPd_Utils.o
                                                  .pio/build/lptm4c1294ncpdt/src/NeonRTOS/HTTPd/HTTPd.o
HTTPd_Parse_InMsg_Headers                         .pio/build/lptm4c1294ncpdt/src/NeonRTOS/HTTPd/HTTPd.o
HTTPd_Parse_Reguest_Method                        .pio/build/lptm4c1294ncpdt/src/NeonRTOS/HTTPd/HTTPd_Utils.o
HTTPd_Parse_Status_Code                           .pio/build/lptm4c1294ncpdt/src/NeonRTOS/HTTPd/HTTPd_Utils.o
                                                  .pio/build/lptm4c1294ncpdt/src/NeonRTOS/HTTPd/HTTPd.o
HTTPd_Process_DELETE_Request                      .pio/build/lptm4c1294ncpdt/src/NeonRTOS/HTTPd/HTTPd.o
HTTPd_Process_GET_Request                         .pio/build/lptm4c1294ncpdt/src/NeonRTOS/HTTPd/HTTPd.o
HTTPd_Process_POST_Request                        .pio/build/lptm4c1294ncpdt/src/NeonRTOS/HTTPd/HTTPd.o
HTTPd_Process_PUT_Request                         .pio/build/lptm4c1294ncpdt/src/NeonRTOS/HTTPd/HTTPd.o
HTTPd_Redirect                                    .pio/build/lptm4c1294ncpdt/src/NeonRTOS/HTTPd/HTTPd.o
HTTPd_Register_CGI_URL_Callback                   .pio/build/lptm4c1294ncpdt/src/NeonRTOS/HTTPd/HTTPd.o
                                                  .pio/build/lptm4c1294ncpdt/src/NeonRTOS/NeonAppInterface.o
                                                  .pio/build/lptm4c1294ncpdt/src/APP/LED_PWM_APP.o
HTTPd_SendWebFile                                 .pio/build/lptm4c1294ncpdt/src/NeonRTOS/HTTPd/HTTPd.o
HTTPd_Send_CGI_JSON_Response                      .pio/build/lptm4c1294ncpdt/src/NeonRTOS/HTTPd/HTTPd.o
                                                  .pio/build/lptm4c1294ncpdt/src/NeonRTOS/NeonAppInterface.o
                                                  .pio/build/lptm4c1294ncpdt/src/APP/LED_PWM_APP.o
HTTPd_Send_CGI_Response                           .pio/build/lptm4c1294ncpdt/src/NeonRTOS/HTTPd/HTTPd.o
                                                  .pio/build/lptm4c1294ncpdt/src/NeonRTOS/NeonAppInterface.o
                                                  .pio/build/lptm4c1294ncpdt/src/APP/LED_PWM_APP.o
HTTPd_UnRegister_CGI_URL_Callback                 .pio/build/lptm4c1294ncpdt/src/NeonRTOS/HTTPd/HTTPd.o
HTTPd_WebSocketd_Client_List                      .pio/build/lptm4c1294ncpdt/src/NeonRTOS/HTTPd/HTTPd.o
HibernateBatCheckDone                             .pio/build/lptm4c1294ncpdt/src/Drivers/soc/driverlib/hibernate.o
HibernateBatCheckStart                            .pio/build/lptm4c1294ncpdt/src/Drivers/soc/driverlib/hibernate.o
HibernateCalendarGet                              .pio/build/lptm4c1294ncpdt/src/Drivers/soc/driverlib/hibernate.o
HibernateCalendarMatchGet                         .pio/build/lptm4c1294ncpdt/src/Drivers/soc/driverlib/hibernate.o
HibernateCalendarMatchSet                         .pio/build/lptm4c1294ncpdt/src/Drivers/soc/driverlib/hibernate.o
HibernateCalendarSet                              .pio/build/lptm4c1294ncpdt/src/Drivers/soc/driverlib/hibernate.o
HibernateClockConfig                              .pio/build/lptm4c1294ncpdt/src/Drivers/soc/driverlib/hibernate.o
HibernateCounterMode                              .pio/build/lptm4c1294ncpdt/src/Drivers/soc/driverlib/hibernate.o
HibernateDataGet                                  .pio/build/lptm4c1294ncpdt/src/Drivers/soc/driverlib/hibernate.o
HibernateDataSet                                  .pio/build/lptm4c1294ncpdt/src/Drivers/soc/driverlib/hibernate.o
HibernateDisable                                  .pio/build/lptm4c1294ncpdt/src/Drivers/soc/driverlib/hibernate.o
HibernateEnableExpClk                             .pio/build/lptm4c1294ncpdt/src/Drivers/soc/driverlib/hibernate.o
HibernateGPIORetentionDisable                     .pio/build/lptm4c1294ncpdt/src/Drivers/soc/driverlib/hibernate.o
HibernateGPIORetentionEnable                      .pio/build/lptm4c1294ncpdt/src/Drivers/soc/driverlib/hibernate.o
HibernateGPIORetentionGet                         .pio/build/lptm4c1294ncpdt/src/Drivers/soc/driverlib/hibernate.o
HibernateIntClear                                 .pio/build/lptm4c1294ncpdt/src/Drivers/soc/driverlib/hibernate.o
HibernateIntDisable                               .pio/build/lptm4c1294ncpdt/src/Drivers/soc/driverlib/hibernate.o
HibernateIntEnable                                .pio/build/lptm4c1294ncpdt/src/Drivers/soc/driverlib/hibernate.o
HibernateIntRegister                              .pio/build/lptm4c1294ncpdt/src/Drivers/soc/driverlib/hibernate.o
HibernateIntStatus                                .pio/build/lptm4c1294ncpdt/src/Drivers/soc/driverlib/hibernate.o
HibernateIntUnregister                            .pio/build/lptm4c1294ncpdt/src/Drivers/soc/driverlib/hibernate.o
HibernateIsActive                                 .pio/build/lptm4c1294ncpdt/src/Drivers/soc/driverlib/hibernate.o
HibernateLowBatGet                                .pio/build/lptm4c1294ncpdt/src/Drivers/soc/driverlib/hibernate.o
HibernateLowBatSet                                .pio/build/lptm4c1294ncpdt/src/Drivers/soc/driverlib/hibernate.o
HibernateRTCDisable                               .pio/build/lptm4c1294ncpdt/src/Drivers/soc/driverlib/hibernate.o
HibernateRTCEnable                                .pio/build/lptm4c1294ncpdt/src/Drivers/soc/driverlib/hibernate.o
HibernateRTCGet                                   .pio/build/lptm4c1294ncpdt/src/Drivers/soc/driverlib/hibernate.o
HibernateRTCMatchGet                              .pio/build/lptm4c1294ncpdt/src/Drivers/soc/driverlib/hibernate.o
HibernateRTCMatchSet                              .pio/build/lptm4c1294ncpdt/src/Drivers/soc/driverlib/hibernate.o
HibernateRTCSSGet                                 .pio/build/lptm4c1294ncpdt/src/Drivers/soc/driverlib/hibernate.o
HibernateRTCSSMatchGet                            .pio/build/lptm4c1294ncpdt/src/Drivers/soc/driverlib/hibernate.o
HibernateRTCSSMatchSet                            .pio/build/lptm4c1294ncpdt/src/Drivers/soc/driverlib/hibernate.o
HibernateRTCSet                                   .pio/build/lptm4c1294ncpdt/src/Drivers/soc/driverlib/hibernate.o
HibernateRTCTrimGet                               .pio/build/lptm4c1294ncpdt/src/Drivers/soc/driverlib/hibernate.o
HibernateRTCTrimSet                               .pio/build/lptm4c1294ncpdt/src/Drivers/soc/driverlib/hibernate.o
HibernateRequest                                  .pio/build/lptm4c1294ncpdt/src/Drivers/soc/driverlib/hibernate.o
HibernateTamperDisable                            .pio/build/lptm4c1294ncpdt/src/Drivers/soc/driverlib/hibernate.o
HibernateTamperEnable                             .pio/build/lptm4c1294ncpdt/src/Drivers/soc/driverlib/hibernate.o
HibernateTamperEventsClear                        .pio/build/lptm4c1294ncpdt/src/Drivers/soc/driverlib/hibernate.o
HibernateTamperEventsClearNoLock                  .pio/build/lptm4c1294ncpdt/src/Drivers/soc/driverlib/hibernate.o
HibernateTamperEventsConfig                       .pio/build/lptm4c1294ncpdt/src/Drivers/soc/driverlib/hibernate.o
HibernateTamperEventsGet                          .pio/build/lptm4c1294ncpdt/src/Drivers/soc/driverlib/hibernate.o
HibernateTamperExtOscRecover                      .pio/build/lptm4c1294ncpdt/src/Drivers/soc/driverlib/hibernate.o
HibernateTamperExtOscValid                        .pio/build/lptm4c1294ncpdt/src/Drivers/soc/driverlib/hibernate.o
HibernateTamperIODisable                          .pio/build/lptm4c1294ncpdt/src/Drivers/soc/driverlib/hibernate.o
HibernateTamperIOEnable                           .pio/build/lptm4c1294ncpdt/src/Drivers/soc/driverlib/hibernate.o
HibernateTamperLock                               .pio/build/lptm4c1294ncpdt/src/Drivers/soc/driverlib/hibernate.o
HibernateTamperStatusGet                          .pio/build/lptm4c1294ncpdt/src/Drivers/soc/driverlib/hibernate.o
HibernateTamperUnLock                             .pio/build/lptm4c1294ncpdt/src/Drivers/soc/driverlib/hibernate.o
HibernateWakeGet                                  .pio/build/lptm4c1294ncpdt/src/Drivers/soc/driverlib/hibernate.o
HibernateWakeSet                                  .pio/build/lptm4c1294ncpdt/src/Drivers/soc/driverlib/hibernate.o
I2CFIFODataGet                                    .pio/build/lptm4c1294ncpdt/src/Drivers/soc/driverlib/i2c.o
I2CFIFODataGetNonBlocking                         .pio/build/lptm4c1294ncpdt/src/Drivers/soc/driverlib/i2c.o
I2CFIFODataPut                                    .pio/build/lptm4c1294ncpdt/src/Drivers/soc/driverlib/i2c.o
I2CFIFODataPutNonBlocking                         .pio/build/lptm4c1294ncpdt/src/Drivers/soc/driverlib/i2c.o
I2CFIFOStatus                                     .pio/build/lptm4c1294ncpdt/src/Drivers/soc/driverlib/i2c.o
I2CIntRegister                                    .pio/build/lptm4c1294ncpdt/src/Drivers/soc/driverlib/i2c.o
I2CIntUnregister                                  .pio/build/lptm4c1294ncpdt/src/Drivers/soc/driverlib/i2c.o
I2CLoopbackEnable                                 .pio/build/lptm4c1294ncpdt/src/Drivers/soc/driverlib/i2c.o
I2CMasterBurstCountGet                            .pio/build/lptm4c1294ncpdt/src/Drivers/soc/driverlib/i2c.o
I2CMasterBurstLengthSet                           .pio/build/lptm4c1294ncpdt/src/Drivers/soc/driverlib/i2c.o
I2CMasterBusBusy                                  .pio/build/lptm4c1294ncpdt/src/Drivers/soc/driverlib/i2c.o
I2CMasterBusy                                     .pio/build/lptm4c1294ncpdt/src/Drivers/soc/driverlib/i2c.o
I2CMasterControl                                  .pio/build/lptm4c1294ncpdt/src/Drivers/soc/driverlib/i2c.o
I2CMasterDataGet                                  .pio/build/lptm4c1294ncpdt/src/Drivers/soc/driverlib/i2c.o
I2CMasterDataPut                                  .pio/build/lptm4c1294ncpdt/src/Drivers/soc/driverlib/i2c.o
I2CMasterDisable                                  .pio/build/lptm4c1294ncpdt/src/Drivers/soc/driverlib/i2c.o
I2CMasterEnable                                   .pio/build/lptm4c1294ncpdt/src/Drivers/soc/driverlib/i2c.o
I2CMasterErr                                      .pio/build/lptm4c1294ncpdt/src/Drivers/soc/driverlib/i2c.o
I2CMasterGlitchFilterConfigSet                    .pio/build/lptm4c1294ncpdt/src/Drivers/soc/driverlib/i2c.o
I2CMasterInitExpClk                               .pio/build/lptm4c1294ncpdt/src/Drivers/soc/driverlib/i2c.o
I2CMasterIntClear                                 .pio/build/lptm4c1294ncpdt/src/Drivers/soc/driverlib/i2c.o
I2CMasterIntClearEx                               .pio/build/lptm4c1294ncpdt/src/Drivers/soc/driverlib/i2c.o
I2CMasterIntDisable                               .pio/build/lptm4c1294ncpdt/src/Drivers/soc/driverlib/i2c.o
I2CMasterIntDisableEx                             .pio/build/lptm4c1294ncpdt/src/Drivers/soc/driverlib/i2c.o
I2CMasterIntEnable                                .pio/build/lptm4c1294ncpdt/src/Drivers/soc/driverlib/i2c.o
I2CMasterIntEnableEx                              .pio/build/lptm4c1294ncpdt/src/Drivers/soc/driverlib/i2c.o
I2CMasterIntStatus                                .pio/build/lptm4c1294ncpdt/src/Drivers/soc/driverlib/i2c.o
I2CMasterIntStatusEx                              .pio/build/lptm4c1294ncpdt/src/Drivers/soc/driverlib/i2c.o
I2CMasterLineStateGet                             .pio/build/lptm4c1294ncpdt/src/Drivers/soc/driverlib/i2c.o
I2CMasterSlaveAddrSet                             .pio/build/lptm4c1294ncpdt/src/Drivers/soc/driverlib/i2c.o
I2CMasterTimeoutSet                               .pio/build/lptm4c1294ncpdt/src/Drivers/soc/driverlib/i2c.o
I2CRxFIFOConfigSet                                .pio/build/lptm4c1294ncpdt/src/Drivers/soc/driverlib/i2c.o
I2CRxFIFOFlush                                    .pio/build/lptm4c1294ncpdt/src/Drivers/soc/driverlib/i2c.o
I2CSlaveACKOverride                               .pio/build/lptm4c1294ncpdt/src/Drivers/soc/driverlib/i2c.o
I2CSlaveACKValueSet                               .pio/build/lptm4c1294ncpdt/src/Drivers/soc/driverlib/i2c.o
I2CSlaveAddressSet                                .pio/build/lptm4c1294ncpdt/src/Drivers/soc/driverlib/i2c.o
I2CSlaveDataGet                                   .pio/build/lptm4c1294ncpdt/src/Drivers/soc/driverlib/i2c.o
I2CSlaveDataPut                                   .pio/build/lptm4c1294ncpdt/src/Drivers/soc/driverlib/i2c.o
I2CSlaveDisable                                   .pio/build/lptm4c1294ncpdt/src/Drivers/soc/driverlib/i2c.o
I2CSlaveEnable                                    .pio/build/lptm4c1294ncpdt/src/Drivers/soc/driverlib/i2c.o
I2CSlaveFIFODisable                               .pio/build/lptm4c1294ncpdt/src/Drivers/soc/driverlib/i2c.o
I2CSlaveFIFOEnable                                .pio/build/lptm4c1294ncpdt/src/Drivers/soc/driverlib/i2c.o
I2CSlaveInit                                      .pio/build/lptm4c1294ncpdt/src/Drivers/soc/driverlib/i2c.o
I2CSlaveIntClear                                  .pio/build/lptm4c1294ncpdt/src/Drivers/soc/driverlib/i2c.o
I2CSlaveIntClearEx                                .pio/build/lptm4c1294ncpdt/src/Drivers/soc/driverlib/i2c.o
I2CSlaveIntDisable                                .pio/build/lptm4c1294ncpdt/src/Drivers/soc/driverlib/i2c.o
I2CSlaveIntDisableEx                              .pio/build/lptm4c1294ncpdt/src/Drivers/soc/driverlib/i2c.o
I2CSlaveIntEnable                                 .pio/build/lptm4c1294ncpdt/src/Drivers/soc/driverlib/i2c.o
I2CSlaveIntEnableEx                               .pio/build/lptm4c1294ncpdt/src/Drivers/soc/driverlib/i2c.o
I2CSlaveIntStatus                                 .pio/build/lptm4c1294ncpdt/src/Drivers/soc/driverlib/i2c.o
I2CSlaveIntStatusEx                               .pio/build/lptm4c1294ncpdt/src/Drivers/soc/driverlib/i2c.o
I2CSlaveStatus                                    .pio/build/lptm4c1294ncpdt/src/Drivers/soc/driverlib/i2c.o
I2CTxFIFOConfigSet                                .pio/build/lptm4c1294ncpdt/src/Drivers/soc/driverlib/i2c.o
I2CTxFIFOFlush                                    .pio/build/lptm4c1294ncpdt/src/Drivers/soc/driverlib/i2c.o
Init_Thread                                       .pio/build/lptm4c1294ncpdt/src/NeonRTOS/NeonAppInterface.o
IntDisable                                        .pio/build/lptm4c1294ncpdt/src/Drivers/soc/driverlib/interrupt.o
                                                  .pio/build/lptm4c1294ncpdt/src/Drivers/soc/driverlib/watchdog.o
                                                  .pio/build/lptm4c1294ncpdt/src/Drivers/soc/driverlib/usb.o
                                                  .pio/build/lptm4c1294ncpdt/src/Drivers/soc/driverlib/udma.o
                                                  .pio/build/lptm4c1294ncpdt/src/Drivers/soc/driverlib/uart.o
                                                  .pio/build/lptm4c1294ncpdt/src/Drivers/soc/driverlib/timer.o
                                                  .pio/build/lptm4c1294ncpdt/src/Drivers/soc/driverlib/sysexc.o
                                                  .pio/build/lptm4c1294ncpdt/src/Drivers/soc/driverlib/sysctl.o
                                                  .pio/build/lptm4c1294ncpdt/src/Drivers/soc/driverlib/ssi.o
                                                  .pio/build/lptm4c1294ncpdt/src/Drivers/soc/driverlib/shamd5.o
                                                  .pio/build/lptm4c1294ncpdt/src/Drivers/soc/driverlib/qei.o
                                                  .pio/build/lptm4c1294ncpdt/src/Drivers/soc/driverlib/pwm.o
                                                  .pio/build/lptm4c1294ncpdt/src/Drivers/soc/driverlib/onewire.o
                                                  .pio/build/lptm4c1294ncpdt/src/Drivers/soc/driverlib/mpu.o
                                                  .pio/build/lptm4c1294ncpdt/src/Drivers/soc/driverlib/lcd.o
                                                  .pio/build/lptm4c1294ncpdt/src/Drivers/soc/driverlib/i2c.o
                                                  .pio/build/lptm4c1294ncpdt/src/Drivers/soc/driverlib/hibernate.o
                                                  .pio/build/lptm4c1294ncpdt/src/Drivers/soc/driverlib/gpio.o
                                                  .pio/build/lptm4c1294ncpdt/src/Drivers/soc/driverlib/flash.o
                                                  .pio/build/lptm4c1294ncpdt/src/Drivers/soc/driverlib/epi.o
                                                  .pio/build/lptm4c1294ncpdt/src/Drivers/soc/driverlib/emac.o
                                                  .pio/build/lptm4c1294ncpdt/src/Drivers/soc/driverlib/des.o
                                                  .pio/build/lptm4c1294ncpdt/src/Drivers/soc/driverlib/comp.o
                                                  .pio/build/lptm4c1294ncpdt/src/Drivers/soc/driverlib/can.o
                                                  .pio/build/lptm4c1294ncpdt/src/Drivers/soc/driverlib/aes.o
                                                  .pio/build/lptm4c1294ncpdt/src/Drivers/soc/driverlib/adc.o
IntEnable                                         .pio/build/lptm4c1294ncpdt/src/Drivers/soc/driverlib/interrupt.o
                                                  .pio/build/lptm4c1294ncpdt/src/Drivers/soc/driverlib/watchdog.o
                                                  .pio/build/lptm4c1294ncpdt/src/Drivers/soc/driverlib/usb.o
                                                  .pio/build/lptm4c1294ncpdt/src/Drivers/soc/driverlib/udma.o
                                                  .pio/build/lptm4c1294ncpdt/src/Drivers/soc/driverlib/uart.o
                                                  .pio/build/lptm4c1294ncpdt/src/Drivers/soc/driverlib/timer.o
                                                  .pio/build/lptm4c1294ncpdt/src/Drivers/soc/driverlib/sysexc.o
                                                  .pio/build/lptm4c1294ncpdt/src/Drivers/soc/driverlib/sysctl.o
                                                  .pio/build/lptm4c1294ncpdt/src/Drivers/soc/driverlib/ssi.o
                                                  .pio/build/lptm4c1294ncpdt/src/Drivers/soc/driverlib/shamd5.o
                                                  .pio/build/lptm4c1294ncpdt/src/Drivers/soc/driverlib/qei.o
                                                  .pio/build/lptm4c1294ncpdt/src/Drivers/soc/driverlib/pwm.o
                                                  .pio/build/lptm4c1294ncpdt/src/Drivers/soc/driverlib/onewire.o
                                                  .pio/build/lptm4c1294ncpdt/src/Drivers/soc/driverlib/mpu.o
                                                  .pio/build/lptm4c1294ncpdt/src/Drivers/soc/driverlib/lcd.o
                                                  .pio/build/lptm4c1294ncpdt/src/Drivers/soc/driverlib/i2c.o
                                                  .pio/build/lptm4c1294ncpdt/src/Drivers/soc/driverlib/hibernate.o
                                                  .pio/build/lptm4c1294ncpdt/src/Drivers/soc/driverlib/gpio.o
                                                  .pio/build/lptm4c1294ncpdt/src/Drivers/soc/driverlib/flash.o
                                                  .pio/build/lptm4c1294ncpdt/src/Drivers/soc/driverlib/epi.o
                                                  .pio/build/lptm4c1294ncpdt/src/Drivers/soc/driverlib/emac.o
                                                  .pio/build/lptm4c1294ncpdt/src/Drivers/soc/driverlib/des.o
                                                  .pio/build/lptm4c1294ncpdt/src/Drivers/soc/driverlib/comp.o
                                                  .pio/build/lptm4c1294ncpdt/src/Drivers/soc/driverlib/can.o
                                                  .pio/build/lptm4c1294ncpdt/src/Drivers/soc/driverlib/aes.o
                                                  .pio/build/lptm4c1294ncpdt/src/Drivers/soc/driverlib/adc.o
IntIsEnabled                                      .pio/build/lptm4c1294ncpdt/src/Drivers/soc/driverlib/interrupt.o
IntMasterDisable                                  .pio/build/lptm4c1294ncpdt/src/Drivers/soc/driverlib/interrupt.o
IntMasterEnable                                   .pio/build/lptm4c1294ncpdt/src/Drivers/soc/driverlib/interrupt.o
                                                  .pio/build/lptm4c1294ncpdt/src/main.o
IntPendClear                                      .pio/build/lptm4c1294ncpdt/src/Drivers/soc/driverlib/interrupt.o
IntPendSet                                        .pio/build/lptm4c1294ncpdt/src/Drivers/soc/driverlib/interrupt.o
IntPriorityGet                                    .pio/build/lptm4c1294ncpdt/src/Drivers/soc/driverlib/interrupt.o
IntPriorityGroupingGet                            .pio/build/lptm4c1294ncpdt/src/Drivers/soc/driverlib/interrupt.o
IntPriorityGroupingSet                            .pio/build/lptm4c1294ncpdt/src/Drivers/soc/driverlib/interrupt.o
IntPriorityMaskGet                                .pio/build/lptm4c1294ncpdt/src/Drivers/soc/driverlib/interrupt.o
IntPriorityMaskSet                                .pio/build/lptm4c1294ncpdt/src/Drivers/soc/driverlib/interrupt.o
IntPrioritySet                                    .pio/build/lptm4c1294ncpdt/src/Drivers/soc/driverlib/interrupt.o
IntRegister                                       .pio/build/lptm4c1294ncpdt/src/Drivers/soc/driverlib/interrupt.o
                                                  .pio/build/lptm4c1294ncpdt/src/Drivers/soc/driverlib/watchdog.o
                                                  .pio/build/lptm4c1294ncpdt/src/Drivers/soc/driverlib/usb.o
                                                  .pio/build/lptm4c1294ncpdt/src/Drivers/soc/driverlib/udma.o
                                                  .pio/build/lptm4c1294ncpdt/src/Drivers/soc/driverlib/uart.o
                                                  .pio/build/lptm4c1294ncpdt/src/Drivers/soc/driverlib/timer.o
                                                  .pio/build/lptm4c1294ncpdt/src/Drivers/soc/driverlib/systick.o
                                                  .pio/build/lptm4c1294ncpdt/src/Drivers/soc/driverlib/sysexc.o
                                                  .pio/build/lptm4c1294ncpdt/src/Drivers/soc/driverlib/sysctl.o
                                                  .pio/build/lptm4c1294ncpdt/src/Drivers/soc/driverlib/ssi.o
                                                  .pio/build/lptm4c1294ncpdt/src/Drivers/soc/driverlib/shamd5.o
                                                  .pio/build/lptm4c1294ncpdt/src/Drivers/soc/driverlib/qei.o
                                                  .pio/build/lptm4c1294ncpdt/src/Drivers/soc/driverlib/pwm.o
                                                  .pio/build/lptm4c1294ncpdt/src/Drivers/soc/driverlib/onewire.o
                                                  .pio/build/lptm4c1294ncpdt/src/Drivers/soc/driverlib/mpu.o
                                                  .pio/build/lptm4c1294ncpdt/src/Drivers/soc/driverlib/lcd.o
                                                  .pio/build/lptm4c1294ncpdt/src/Drivers/soc/driverlib/i2c.o
                                                  .pio/build/lptm4c1294ncpdt/src/Drivers/soc/driverlib/hibernate.o
                                                  .pio/build/lptm4c1294ncpdt/src/Drivers/soc/driverlib/gpio.o
                                                  .pio/build/lptm4c1294ncpdt/src/Drivers/soc/driverlib/flash.o
                                                  .pio/build/lptm4c1294ncpdt/src/Drivers/soc/driverlib/epi.o
                                                  .pio/build/lptm4c1294ncpdt/src/Drivers/soc/driverlib/emac.o
                                                  .pio/build/lptm4c1294ncpdt/src/Drivers/soc/driverlib/des.o
                                                  .pio/build/lptm4c1294ncpdt/src/Drivers/soc/driverlib/comp.o
                                                  .pio/build/lptm4c1294ncpdt/src/Drivers/soc/driverlib/can.o
                                                  .pio/build/lptm4c1294ncpdt/src/Drivers/soc/driverlib/aes.o
                                                  .pio/build/lptm4c1294ncpdt/src/Drivers/soc/driverlib/adc.o
IntTrigger                                        .pio/build/lptm4c1294ncpdt/src/Drivers/soc/driverlib/interrupt.o
IntUnregister                                     .pio/build/lptm4c1294ncpdt/src/Drivers/soc/driverlib/interrupt.o
                                                  .pio/build/lptm4c1294ncpdt/src/Drivers/soc/driverlib/watchdog.o
                                                  .pio/build/lptm4c1294ncpdt/src/Drivers/soc/driverlib/usb.o
                                                  .pio/build/lptm4c1294ncpdt/src/Drivers/soc/driverlib/udma.o
                                                  .pio/build/lptm4c1294ncpdt/src/Drivers/soc/driverlib/uart.o
                                                  .pio/build/lptm4c1294ncpdt/src/Drivers/soc/driverlib/timer.o
                                                  .pio/build/lptm4c1294ncpdt/src/Drivers/soc/driverlib/systick.o
                                                  .pio/build/lptm4c1294ncpdt/src/Drivers/soc/driverlib/sysexc.o
                                                  .pio/build/lptm4c1294ncpdt/src/Drivers/soc/driverlib/sysctl.o
                                                  .pio/build/lptm4c1294ncpdt/src/Drivers/soc/driverlib/ssi.o
                                                  .pio/build/lptm4c1294ncpdt/src/Drivers/soc/driverlib/shamd5.o
                                                  .pio/build/lptm4c1294ncpdt/src/Drivers/soc/driverlib/qei.o
                                                  .pio/build/lptm4c1294ncpdt/src/Drivers/soc/driverlib/pwm.o
                                                  .pio/build/lptm4c1294ncpdt/src/Drivers/soc/driverlib/onewire.o
                                                  .pio/build/lptm4c1294ncpdt/src/Drivers/soc/driverlib/mpu.o
                                                  .pio/build/lptm4c1294ncpdt/src/Drivers/soc/driverlib/lcd.o
                                                  .pio/build/lptm4c1294ncpdt/src/Drivers/soc/driverlib/i2c.o
                                                  .pio/build/lptm4c1294ncpdt/src/Drivers/soc/driverlib/hibernate.o
                                                  .pio/build/lptm4c1294ncpdt/src/Drivers/soc/driverlib/gpio.o
                                                  .pio/build/lptm4c1294ncpdt/src/Drivers/soc/driverlib/flash.o
                                                  .pio/build/lptm4c1294ncpdt/src/Drivers/soc/driverlib/epi.o
                                                  .pio/build/lptm4c1294ncpdt/src/Drivers/soc/driverlib/emac.o
                                                  .pio/build/lptm4c1294ncpdt/src/Drivers/soc/driverlib/des.o
                                                  .pio/build/lptm4c1294ncpdt/src/Drivers/soc/driverlib/comp.o
                                                  .pio/build/lptm4c1294ncpdt/src/Drivers/soc/driverlib/can.o
                                                  .pio/build/lptm4c1294ncpdt/src/Drivers/soc/driverlib/aes.o
                                                  .pio/build/lptm4c1294ncpdt/src/Drivers/soc/driverlib/adc.o
LCDClockReset                                     .pio/build/lptm4c1294ncpdt/src/Drivers/soc/driverlib/lcd.o
LCDDMAConfigSet                                   .pio/build/lptm4c1294ncpdt/src/Drivers/soc/driverlib/lcd.o
LCDIDDCommandWrite                                .pio/build/lptm4c1294ncpdt/src/Drivers/soc/driverlib/lcd.o
LCDIDDConfigSet                                   .pio/build/lptm4c1294ncpdt/src/Drivers/soc/driverlib/lcd.o
LCDIDDDMADisable                                  .pio/build/lptm4c1294ncpdt/src/Drivers/soc/driverlib/lcd.o
LCDIDDDMAWrite                                    .pio/build/lptm4c1294ncpdt/src/Drivers/soc/driverlib/lcd.o
LCDIDDDataRead                                    .pio/build/lptm4c1294ncpdt/src/Drivers/soc/driverlib/lcd.o
LCDIDDDataWrite                                   .pio/build/lptm4c1294ncpdt/src/Drivers/soc/driverlib/lcd.o
LCDIDDIndexedRead                                 .pio/build/lptm4c1294ncpdt/src/Drivers/soc/driverlib/lcd.o
LCDIDDIndexedWrite                                .pio/build/lptm4c1294ncpdt/src/Drivers/soc/driverlib/lcd.o
LCDIDDStatusRead                                  .pio/build/lptm4c1294ncpdt/src/Drivers/soc/driverlib/lcd.o
LCDIDDTimingSet                                   .pio/build/lptm4c1294ncpdt/src/Drivers/soc/driverlib/lcd.o
LCDIntClear                                       .pio/build/lptm4c1294ncpdt/src/Drivers/soc/driverlib/lcd.o
LCDIntDisable                                     .pio/build/lptm4c1294ncpdt/src/Drivers/soc/driverlib/lcd.o
LCDIntEnable                                      .pio/build/lptm4c1294ncpdt/src/Drivers/soc/driverlib/lcd.o
LCDIntRegister                                    .pio/build/lptm4c1294ncpdt/src/Drivers/soc/driverlib/lcd.o
LCDIntStatus                                      .pio/build/lptm4c1294ncpdt/src/Drivers/soc/driverlib/lcd.o
LCDIntUnregister                                  .pio/build/lptm4c1294ncpdt/src/Drivers/soc/driverlib/lcd.o
LCDModeSet                                        .pio/build/lptm4c1294ncpdt/src/Drivers/soc/driverlib/lcd.o
LCDRasterACBiasIntCountSet                        .pio/build/lptm4c1294ncpdt/src/Drivers/soc/driverlib/lcd.o
LCDRasterConfigSet                                .pio/build/lptm4c1294ncpdt/src/Drivers/soc/driverlib/lcd.o
LCDRasterDisable                                  .pio/build/lptm4c1294ncpdt/src/Drivers/soc/driverlib/lcd.o
LCDRasterEnable                                   .pio/build/lptm4c1294ncpdt/src/Drivers/soc/driverlib/lcd.o
LCDRasterEnabled                                  .pio/build/lptm4c1294ncpdt/src/Drivers/soc/driverlib/lcd.o
LCDRasterFrameBufferSet                           .pio/build/lptm4c1294ncpdt/src/Drivers/soc/driverlib/lcd.o
LCDRasterPaletteSet                               .pio/build/lptm4c1294ncpdt/src/Drivers/soc/driverlib/lcd.o
LCDRasterSubPanelConfigSet                        .pio/build/lptm4c1294ncpdt/src/Drivers/soc/driverlib/lcd.o
LCDRasterSubPanelDisable                          .pio/build/lptm4c1294ncpdt/src/Drivers/soc/driverlib/lcd.o
LCDRasterSubPanelEnable                           .pio/build/lptm4c1294ncpdt/src/Drivers/soc/driverlib/lcd.o
LCDRasterTimingSet                                .pio/build/lptm4c1294ncpdt/src/Drivers/soc/driverlib/lcd.o
LED_PWM_CGI_LED_Any_Number                        .pio/build/lptm4c1294ncpdt/src/APP/LED_PWM_APP.o
LED_PWM_CGI_LED_Level_Any_Number                  .pio/build/lptm4c1294ncpdt/src/APP/LED_PWM_APP.o
LED_PWM_CGI_LED_Num                               .pio/build/lptm4c1294ncpdt/src/APP/LED_PWM_APP.o
LED_PWM_CGI_LED_OnOff_Any_Number                  .pio/build/lptm4c1294ncpdt/src/APP/LED_PWM_APP.o
LED_PWM_CGI_Root                                  .pio/build/lptm4c1294ncpdt/src/APP/LED_PWM_APP.o
LED_PWM_Do_Report                                 .pio/build/lptm4c1294ncpdt/src/APP/LED_PWM_APP.o
LED_PWM_Get_All_LED_Status                        .pio/build/lptm4c1294ncpdt/src/APP/LED_PWM_APP.o
LED_PWM_Get_Num_Of_LED                            .pio/build/lptm4c1294ncpdt/src/APP/LED_PWM_API.o
LED_PWM_Init                                      .pio/build/lptm4c1294ncpdt/src/APP/LED_PWM_API.o
                                                  .pio/build/lptm4c1294ncpdt/src/APP/LED_PWM_APP.o
LED_PWM_Set_LED_Level_Status                      .pio/build/lptm4c1294ncpdt/src/APP/LED_PWM_API.o
                                                  .pio/build/lptm4c1294ncpdt/src/APP/LED_PWM_APP.o
LED_PWM_Set_LED_On_Off_Status                     .pio/build/lptm4c1294ncpdt/src/APP/LED_PWM_API.o
                                                  .pio/build/lptm4c1294ncpdt/src/APP/LED_PWM_APP.o
LED_PWM_Set_Selected_LED_Level_Status             .pio/build/lptm4c1294ncpdt/src/APP/LED_PWM_API.o
LED_PWM_Set_Selected_LED_On_Off_Status            .pio/build/lptm4c1294ncpdt/src/APP/LED_PWM_API.o
LED_PWM_Toggle_LED_On_Off_Status                  .pio/build/lptm4c1294ncpdt/src/APP/LED_PWM_API.o
                                                  .pio/build/lptm4c1294ncpdt/src/APP/LED_PWM_APP.o
LED_PWM_Toggle_Selected_LED_On_Off_Status         .pio/build/lptm4c1294ncpdt/src/APP/LED_PWM_API.o
MPUDisable                                        .pio/build/lptm4c1294ncpdt/src/Drivers/soc/driverlib/mpu.o
MPUEnable                                         .pio/build/lptm4c1294ncpdt/src/Drivers/soc/driverlib/mpu.o
MPUIntRegister                                    .pio/build/lptm4c1294ncpdt/src/Drivers/soc/driverlib/mpu.o
MPUIntUnregister                                  .pio/build/lptm4c1294ncpdt/src/Drivers/soc/driverlib/mpu.o
MPURegionCountGet                                 .pio/build/lptm4c1294ncpdt/src/Drivers/soc/driverlib/mpu.o
MPURegionDisable                                  .pio/build/lptm4c1294ncpdt/src/Drivers/soc/driverlib/mpu.o
MPURegionEnable                                   .pio/build/lptm4c1294ncpdt/src/Drivers/soc/driverlib/mpu.o
MPURegionGet                                      .pio/build/lptm4c1294ncpdt/src/Drivers/soc/driverlib/mpu.o
MPURegionSet                                      .pio/build/lptm4c1294ncpdt/src/Drivers/soc/driverlib/mpu.o
Map_Soc_PWM_Gen                                   .pio/build/lptm4c1294ncpdt/src/Drivers/W-Link/Driver/PWM/PWM_TM4C1294.o
Map_Soc_PWM_Gen_Mask                              .pio/build/lptm4c1294ncpdt/src/Drivers/W-Link/Driver/PWM/PWM_TM4C1294.o
Map_Soc_PWM_Out                                   .pio/build/lptm4c1294ncpdt/src/Drivers/W-Link/Driver/PWM/PWM_TM4C1294.o
Map_Soc_PWM_Out_Mask                              .pio/build/lptm4c1294ncpdt/src/Drivers/W-Link/Driver/PWM/PWM_TM4C1294.o
Map_Soc_PWM_Pin_Cfg                               .pio/build/lptm4c1294ncpdt/src/Drivers/W-Link/Driver/PWM/PWM_TM4C1294.o
Map_Soc_UART_Base                                 .pio/build/lptm4c1294ncpdt/src/Drivers/W-Link/Driver/UART/UART_TM4C1294.o
Map_Soc_UART_RxPin_Cfg                            .pio/build/lptm4c1294ncpdt/src/Drivers/W-Link/Driver/UART/UART_TM4C1294.o
Map_Soc_UART_SysCtrl_Periph                       .pio/build/lptm4c1294ncpdt/src/Drivers/W-Link/Driver/UART/UART_TM4C1294.o
Map_Soc_UART_TxPin_Cfg                            .pio/build/lptm4c1294ncpdt/src/Drivers/W-Link/Driver/UART/UART_TM4C1294.o
NeonRTOS_CounterObjIncreaseFromISR                .pio/build/lptm4c1294ncpdt/src/NeonRTOS/NeonRTOS.o
NeonRTOS_CountingObjClear                         .pio/build/lptm4c1294ncpdt/src/NeonRTOS/NeonRTOS.o
NeonRTOS_CountingObjCreate                        .pio/build/lptm4c1294ncpdt/src/NeonRTOS/NeonRTOS.o
NeonRTOS_CountingObjDelete                        .pio/build/lptm4c1294ncpdt/src/NeonRTOS/NeonRTOS.o
NeonRTOS_CountingObjGetCount                      .pio/build/lptm4c1294ncpdt/src/NeonRTOS/NeonRTOS.o
NeonRTOS_CountingObjIncrease                      .pio/build/lptm4c1294ncpdt/src/NeonRTOS/NeonRTOS.o
NeonRTOS_CountingObjWait                          .pio/build/lptm4c1294ncpdt/src/NeonRTOS/NeonRTOS.o
NeonRTOS_DisableAllInterrupts                     .pio/build/lptm4c1294ncpdt/src/NeonRTOS/NeonRTOS.o
NeonRTOS_EnableAllInterrupts                      .pio/build/lptm4c1294ncpdt/src/NeonRTOS/NeonRTOS.o
NeonRTOS_EnterCritical                            .pio/build/lptm4c1294ncpdt/src/NeonRTOS/NeonRTOS.o
                                                  .pio/build/lptm4c1294ncpdt/src/Drivers/W-Link/Driver/UART/UART_TM4C1294.o
NeonRTOS_ExitCritical                             .pio/build/lptm4c1294ncpdt/src/NeonRTOS/NeonRTOS.o
                                                  .pio/build/lptm4c1294ncpdt/src/Drivers/W-Link/Driver/UART/UART_TM4C1294.o
NeonRTOS_GetFreeHeapSize                          .pio/build/lptm4c1294ncpdt/src/NeonRTOS/NeonRTOS.o
                                                  .pio/build/lptm4c1294ncpdt/src/NeonRTOS/NeonAppInterface.o
NeonRTOS_GetOsVersion                             .pio/build/lptm4c1294ncpdt/src/NeonRTOS/NeonRTOS.o
NeonRTOS_GetTimerID                               .pio/build/lptm4c1294ncpdt/src/NeonRTOS/NeonRTOS.o
                                                  .pio/build/lptm4c1294ncpdt/src/NeonRTOS/HTTPd/HTTPd.o
NeonRTOS_LockObjCreate                            .pio/build/lptm4c1294ncpdt/src/NeonRTOS/NeonRTOS.o
NeonRTOS_LockObjDelete                            .pio/build/lptm4c1294ncpdt/src/NeonRTOS/NeonRTOS.o
NeonRTOS_LockObjLock                              .pio/build/lptm4c1294ncpdt/src/NeonRTOS/NeonRTOS.o
NeonRTOS_LockObjUnlock                            .pio/build/lptm4c1294ncpdt/src/NeonRTOS/NeonRTOS.o
NeonRTOS_MsgQCreate                               .pio/build/lptm4c1294ncpdt/src/NeonRTOS/NeonRTOS.o
NeonRTOS_MsgQDelete                               .pio/build/lptm4c1294ncpdt/src/NeonRTOS/NeonRTOS.o
NeonRTOS_MsgQRead                                 .pio/build/lptm4c1294ncpdt/src/NeonRTOS/NeonRTOS.o
NeonRTOS_MsgQWrite                                .pio/build/lptm4c1294ncpdt/src/NeonRTOS/NeonRTOS.o
NeonRTOS_PendingFunctionCall                      .pio/build/lptm4c1294ncpdt/src/NeonRTOS/NeonRTOS.o
NeonRTOS_Sleep                                    .pio/build/lptm4c1294ncpdt/src/NeonRTOS/NeonRTOS.o
                                                  .pio/build/lptm4c1294ncpdt/src/NeonRTOS/NeonTCPIP.o
                                                  .pio/build/lptm4c1294ncpdt/src/NeonRTOS/NeonAppInterface.o
                                                  .pio/build/lptm4c1294ncpdt/src/NeonRTOS/HTTPd/HTTPd.o
                                                  .pio/build/lptm4c1294ncpdt/src/Drivers/W-Link/Driver/UART/UART_TM4C1294.o
NeonRTOS_SyncObjClear                             .pio/build/lptm4c1294ncpdt/src/NeonRTOS/NeonRTOS.o
NeonRTOS_SyncObjCreate                            .pio/build/lptm4c1294ncpdt/src/NeonRTOS/NeonRTOS.o
NeonRTOS_SyncObjDelete                            .pio/build/lptm4c1294ncpdt/src/NeonRTOS/NeonRTOS.o
NeonRTOS_SyncObjSignal                            .pio/build/lptm4c1294ncpdt/src/NeonRTOS/NeonRTOS.o
NeonRTOS_SyncObjSignalFromISR                     .pio/build/lptm4c1294ncpdt/src/NeonRTOS/NeonRTOS.o
NeonRTOS_SyncObjWait                              .pio/build/lptm4c1294ncpdt/src/NeonRTOS/NeonRTOS.o
NeonRTOS_TaskCreate                               .pio/build/lptm4c1294ncpdt/src/NeonRTOS/NeonRTOS.o
                                                  .pio/build/lptm4c1294ncpdt/src/NeonRTOS/NeonTCPIP.o
                                                  .pio/build/lptm4c1294ncpdt/src/NeonRTOS/NeonAppInterface.o
                                                  .pio/build/lptm4c1294ncpdt/src/NeonRTOS/HTTPd/HTTPd.o
NeonRTOS_TaskDelete                               .pio/build/lptm4c1294ncpdt/src/NeonRTOS/NeonRTOS.o
                                                  .pio/build/lptm4c1294ncpdt/src/NeonRTOS/HTTPd/HTTPd.o
NeonRTOS_TaskDisable                              .pio/build/lptm4c1294ncpdt/src/NeonRTOS/NeonRTOS.o
NeonRTOS_TaskEnable                               .pio/build/lptm4c1294ncpdt/src/NeonRTOS/NeonRTOS.o
NeonRTOS_TaskGetTickCount                         .pio/build/lptm4c1294ncpdt/src/NeonRTOS/NeonRTOS.o
NeonRTOS_TaskResume                               .pio/build/lptm4c1294ncpdt/src/NeonRTOS/NeonRTOS.o
NeonRTOS_TaskSetPriority                          .pio/build/lptm4c1294ncpdt/src/NeonRTOS/NeonRTOS.o
NeonRTOS_TaskSuspend                              .pio/build/lptm4c1294ncpdt/src/NeonRTOS/NeonRTOS.o
NeonRTOS_TimerChangePeriod                        .pio/build/lptm4c1294ncpdt/src/NeonRTOS/NeonRTOS.o
                                                  .pio/build/lptm4c1294ncpdt/src/NeonRTOS/HTTPd/HTTPd.o
NeonRTOS_TimerCreate                              .pio/build/lptm4c1294ncpdt/src/NeonRTOS/NeonRTOS.o
                                                  .pio/build/lptm4c1294ncpdt/src/NeonRTOS/HTTPd/HTTPd.o
NeonRTOS_TimerDelete                              .pio/build/lptm4c1294ncpdt/src/NeonRTOS/NeonRTOS.o
                                                  .pio/build/lptm4c1294ncpdt/src/NeonRTOS/HTTPd/HTTPd.o
NeonRTOS_TimerReStart                             .pio/build/lptm4c1294ncpdt/src/NeonRTOS/NeonRTOS.o
                                                  .pio/build/lptm4c1294ncpdt/src/NeonRTOS/HTTPd/HTTPd.o
NeonRTOS_TimerStart                               .pio/build/lptm4c1294ncpdt/src/NeonRTOS/NeonRTOS.o
                                                  .pio/build/lptm4c1294ncpdt/src/NeonRTOS/HTTPd/HTTPd.o
NeonRTOS_TimerStop                                .pio/build/lptm4c1294ncpdt/src/NeonRTOS/NeonRTOS.o
                                                  .pio/build/lptm4c1294ncpdt/src/NeonRTOS/HTTPd/HTTPd.o
NeonRTOS_start                                    .pio/build/lptm4c1294ncpdt/src/NeonRTOS/NeonRTOS.o
                                                  .pio/build/lptm4c1294ncpdt/src/main.o
NeonRtFsClose                                     .pio/build/lptm4c1294ncpdt/src/NeonRTOS/HTTPd/NeonRtFs.o
                                                  .pio/build/lptm4c1294ncpdt/src/NeonRTOS/HTTPd/HTTPd.o
NeonRtFsData_StartAddr                            .pio/build/lptm4c1294ncpdt/src/NeonRTOS/HTTPd/NeonRtFs.o
NeonRtFsFlags                                     .pio/build/lptm4c1294ncpdt/src/NeonRTOS/HTTPd/NeonRtFs.o
                                                  .pio/build/lptm4c1294ncpdt/src/NeonRTOS/HTTPd/HTTPd.o
NeonRtFsInit                                      .pio/build/lptm4c1294ncpdt/src/NeonRTOS/HTTPd/NeonRtFs.o
                                                  .pio/build/lptm4c1294ncpdt/src/NeonRTOS/HTTPd/HTTPd.o
NeonRtFsInitDone                                  .pio/build/lptm4c1294ncpdt/src/NeonRTOS/HTTPd/NeonRtFs.o
NeonRtFsOpen                                      .pio/build/lptm4c1294ncpdt/src/NeonRTOS/HTTPd/NeonRtFs.o
                                                  .pio/build/lptm4c1294ncpdt/src/NeonRTOS/HTTPd/HTTPd.o
NeonRtFsRead                                      .pio/build/lptm4c1294ncpdt/src/NeonRTOS/HTTPd/NeonRtFs.o
                                                  .pio/build/lptm4c1294ncpdt/src/NeonRTOS/HTTPd/HTTPd.o
NeonTCPIP_DNS_GetHostByName                       .pio/build/lptm4c1294ncpdt/src/NeonRTOS/NeonTCPIP.o
NeonTCPIP_DNS_Init                                .pio/build/lptm4c1294ncpdt/src/NeonRTOS/NeonTCPIP.o
NeonTCPIP_IF_Get_DNS_Address                      .pio/build/lptm4c1294ncpdt/src/NeonRTOS/NeonTCPIP.o
NeonTCPIP_IF_Get_Gateway_Address                  .pio/build/lptm4c1294ncpdt/src/NeonRTOS/NeonTCPIP.o
                                                  .pio/build/lptm4c1294ncpdt/src/NeonRTOS/NeonAppInterface.o
NeonTCPIP_IF_Get_IP_Address                       .pio/build/lptm4c1294ncpdt/src/NeonRTOS/NeonTCPIP.o
                                                  .pio/build/lptm4c1294ncpdt/src/NeonRTOS/NeonAppInterface.o
NeonTCPIP_IF_Get_NetMask_Address                  .pio/build/lptm4c1294ncpdt/src/NeonRTOS/NeonTCPIP.o
                                                  .pio/build/lptm4c1294ncpdt/src/NeonRTOS/NeonAppInterface.o
NeonTCPIP_IF_Set_Gateway_Address                  .pio/build/lptm4c1294ncpdt/src/NeonRTOS/NeonTCPIP.o
                                                  .pio/build/lptm4c1294ncpdt/src/NeonRTOS/NeonAppInterface.o
NeonTCPIP_IF_Set_IP_Address                       .pio/build/lptm4c1294ncpdt/src/NeonRTOS/NeonTCPIP.o
                                                  .pio/build/lptm4c1294ncpdt/src/NeonRTOS/NeonAppInterface.o
NeonTCPIP_IF_Set_NetMask_Address                  .pio/build/lptm4c1294ncpdt/src/NeonRTOS/NeonTCPIP.o
                                                  .pio/build/lptm4c1294ncpdt/src/NeonRTOS/NeonAppInterface.o
NeonTCPIP_IF_Update_Addresses                     .pio/build/lptm4c1294ncpdt/src/NeonRTOS/NeonTCPIP.o
                                                  .pio/build/lptm4c1294ncpdt/src/NeonRTOS/NeonAppInterface.o
NeonTCPIP_IF_isInit                               .pio/build/lptm4c1294ncpdt/src/NeonRTOS/NeonTCPIP.o
NeonTCPIP_IF_isLinkUp                             .pio/build/lptm4c1294ncpdt/src/NeonRTOS/NeonTCPIP.o
                                                  .pio/build/lptm4c1294ncpdt/src/NeonRTOS/NeonAppInterface.o
NeonTCPIP_Task                                    .pio/build/lptm4c1294ncpdt/src/NeonRTOS/NeonTCPIP.o
NeonTCPIP_init                                    .pio/build/lptm4c1294ncpdt/src/NeonRTOS/NeonTCPIP.o
                                                  .pio/build/lptm4c1294ncpdt/src/NeonRTOS/NeonAppInterface.o
Neon_APP_Device_Init                              .pio/build/lptm4c1294ncpdt/src/APP/LED_PWM_APP.o
                                                  .pio/build/lptm4c1294ncpdt/src/NeonRTOS/NeonAppInterface.o
Neon_App_Init                                     .pio/build/lptm4c1294ncpdt/src/NeonRTOS/NeonAppInterface.o
                                                  .pio/build/lptm4c1294ncpdt/src/main.o
Network_CGI_Gateway                               .pio/build/lptm4c1294ncpdt/src/NeonRTOS/NeonAppInterface.o
Network_CGI_IpAddr                                .pio/build/lptm4c1294ncpdt/src/NeonRTOS/NeonAppInterface.o
Network_CGI_Netmask                               .pio/build/lptm4c1294ncpdt/src/NeonRTOS/NeonAppInterface.o
Network_CGI_Root                                  .pio/build/lptm4c1294ncpdt/src/NeonRTOS/NeonAppInterface.o
OneWireBusReset                                   .pio/build/lptm4c1294ncpdt/src/Drivers/soc/driverlib/onewire.o
OneWireBusStatus                                  .pio/build/lptm4c1294ncpdt/src/Drivers/soc/driverlib/onewire.o
OneWireDMADisable                                 .pio/build/lptm4c1294ncpdt/src/Drivers/soc/driverlib/onewire.o
OneWireDMAEnable                                  .pio/build/lptm4c1294ncpdt/src/Drivers/soc/driverlib/onewire.o
OneWireDataGet                                    .pio/build/lptm4c1294ncpdt/src/Drivers/soc/driverlib/onewire.o
OneWireDataGetNonBlocking                         .pio/build/lptm4c1294ncpdt/src/Drivers/soc/driverlib/onewire.o
OneWireInit                                       .pio/build/lptm4c1294ncpdt/src/Drivers/soc/driverlib/onewire.o
OneWireIntClear                                   .pio/build/lptm4c1294ncpdt/src/Drivers/soc/driverlib/onewire.o
OneWireIntDisable                                 .pio/build/lptm4c1294ncpdt/src/Drivers/soc/driverlib/onewire.o
OneWireIntEnable                                  .pio/build/lptm4c1294ncpdt/src/Drivers/soc/driverlib/onewire.o
OneWireIntRegister                                .pio/build/lptm4c1294ncpdt/src/Drivers/soc/driverlib/onewire.o
OneWireIntStatus                                  .pio/build/lptm4c1294ncpdt/src/Drivers/soc/driverlib/onewire.o
OneWireIntUnregister                              .pio/build/lptm4c1294ncpdt/src/Drivers/soc/driverlib/onewire.o
OneWireTransaction                                .pio/build/lptm4c1294ncpdt/src/Drivers/soc/driverlib/onewire.o
PWMClockGet                                       .pio/build/lptm4c1294ncpdt/src/Drivers/soc/driverlib/pwm.o
PWMClockSet                                       .pio/build/lptm4c1294ncpdt/src/Drivers/soc/driverlib/pwm.o
PWMDeadBandDisable                                .pio/build/lptm4c1294ncpdt/src/Drivers/soc/driverlib/pwm.o
PWMDeadBandEnable                                 .pio/build/lptm4c1294ncpdt/src/Drivers/soc/driverlib/pwm.o
PWMFaultIntClear                                  .pio/build/lptm4c1294ncpdt/src/Drivers/soc/driverlib/pwm.o
PWMFaultIntClearExt                               .pio/build/lptm4c1294ncpdt/src/Drivers/soc/driverlib/pwm.o
PWMFaultIntRegister                               .pio/build/lptm4c1294ncpdt/src/Drivers/soc/driverlib/pwm.o
PWMFaultIntUnregister                             .pio/build/lptm4c1294ncpdt/src/Drivers/soc/driverlib/pwm.o
PWMGenConfigure                                   .pio/build/lptm4c1294ncpdt/src/Drivers/soc/driverlib/pwm.o
PWMGenDisable                                     .pio/build/lptm4c1294ncpdt/src/Drivers/soc/driverlib/pwm.o
PWMGenEnable                                      .pio/build/lptm4c1294ncpdt/src/Drivers/soc/driverlib/pwm.o
PWMGenFaultClear                                  .pio/build/lptm4c1294ncpdt/src/Drivers/soc/driverlib/pwm.o
PWMGenFaultConfigure                              .pio/build/lptm4c1294ncpdt/src/Drivers/soc/driverlib/pwm.o
PWMGenFaultStatus                                 .pio/build/lptm4c1294ncpdt/src/Drivers/soc/driverlib/pwm.o
PWMGenFaultTriggerGet                             .pio/build/lptm4c1294ncpdt/src/Drivers/soc/driverlib/pwm.o
PWMGenFaultTriggerSet                             .pio/build/lptm4c1294ncpdt/src/Drivers/soc/driverlib/pwm.o
PWMGenIntClear                                    .pio/build/lptm4c1294ncpdt/src/Drivers/soc/driverlib/pwm.o
PWMGenIntRegister                                 .pio/build/lptm4c1294ncpdt/src/Drivers/soc/driverlib/pwm.o
PWMGenIntStatus                                   .pio/build/lptm4c1294ncpdt/src/Drivers/soc/driverlib/pwm.o
PWMGenIntTrigDisable                              .pio/build/lptm4c1294ncpdt/src/Drivers/soc/driverlib/pwm.o
PWMGenIntTrigEnable                               .pio/build/lptm4c1294ncpdt/src/Drivers/soc/driverlib/pwm.o
PWMGenIntUnregister                               .pio/build/lptm4c1294ncpdt/src/Drivers/soc/driverlib/pwm.o
PWMGenPeriodGet                                   .pio/build/lptm4c1294ncpdt/src/Drivers/soc/driverlib/pwm.o
PWMGenPeriodSet                                   .pio/build/lptm4c1294ncpdt/src/Drivers/soc/driverlib/pwm.o
PWMIntDisable                                     .pio/build/lptm4c1294ncpdt/src/Drivers/soc/driverlib/pwm.o
PWMIntEnable                                      .pio/build/lptm4c1294ncpdt/src/Drivers/soc/driverlib/pwm.o
PWMIntStatus                                      .pio/build/lptm4c1294ncpdt/src/Drivers/soc/driverlib/pwm.o
PWMOutputFault                                    .pio/build/lptm4c1294ncpdt/src/Drivers/soc/driverlib/pwm.o
PWMOutputFaultLevel                               .pio/build/lptm4c1294ncpdt/src/Drivers/soc/driverlib/pwm.o
PWMOutputInvert                                   .pio/build/lptm4c1294ncpdt/src/Drivers/soc/driverlib/pwm.o
PWMOutputState                                    .pio/build/lptm4c1294ncpdt/src/Drivers/soc/driverlib/pwm.o
PWMOutputUpdateMode                               .pio/build/lptm4c1294ncpdt/src/Drivers/soc/driverlib/pwm.o
PWMPulseWidthGet                                  .pio/build/lptm4c1294ncpdt/src/Drivers/soc/driverlib/pwm.o
PWMPulseWidthSet                                  .pio/build/lptm4c1294ncpdt/src/Drivers/soc/driverlib/pwm.o
PWMSyncTimeBase                                   .pio/build/lptm4c1294ncpdt/src/Drivers/soc/driverlib/pwm.o
PWMSyncUpdate                                     .pio/build/lptm4c1294ncpdt/src/Drivers/soc/driverlib/pwm.o
PWM_Channel_DeInit                                .pio/build/lptm4c1294ncpdt/src/Drivers/W-Link/Driver/PWM/PWM_TM4C1294.o
PWM_Channel_Init                                  .pio/build/lptm4c1294ncpdt/src/Drivers/W-Link/Driver/PWM/PWM_TM4C1294.o
                                                  .pio/build/lptm4c1294ncpdt/src/APP/LED_PWM_API.o
PWM_Channels                                      .pio/build/lptm4c1294ncpdt/src/APP/LED_PWM_API.o
PWM_Get_Channel_Current_Duty                      .pio/build/lptm4c1294ncpdt/src/Drivers/W-Link/Driver/PWM/PWM_TM4C1294.o
PWM_Get_Channel_Current_OnOff_Duty                .pio/build/lptm4c1294ncpdt/src/Drivers/W-Link/Driver/PWM/PWM_TM4C1294.o
PWM_Get_Channel_OnOff_Status                      .pio/build/lptm4c1294ncpdt/src/Drivers/W-Link/Driver/PWM/PWM_TM4C1294.o
PWM_Pins                                          .pio/build/lptm4c1294ncpdt/src/Drivers/W-Link/Driver/PWM/PWM_TM4C1294.o
PWM_Set_Duty                                      .pio/build/lptm4c1294ncpdt/src/Drivers/W-Link/Driver/PWM/PWM_TM4C1294.o
                                                  .pio/build/lptm4c1294ncpdt/src/APP/LED_PWM_API.o
PWM_Step_Duty                                     .pio/build/lptm4c1294ncpdt/src/Drivers/W-Link/Driver/PWM/PWM_TM4C1294.o
PWM_Turn_Off                                      .pio/build/lptm4c1294ncpdt/src/Drivers/W-Link/Driver/PWM/PWM_TM4C1294.o
                                                  .pio/build/lptm4c1294ncpdt/src/APP/LED_PWM_API.o
PWM_Turn_On                                       .pio/build/lptm4c1294ncpdt/src/Drivers/W-Link/Driver/PWM/PWM_TM4C1294.o
                                                  .pio/build/lptm4c1294ncpdt/src/APP/LED_PWM_API.o
PWM_Turn_On_And_Set_Duty                          .pio/build/lptm4c1294ncpdt/src/Drivers/W-Link/Driver/PWM/PWM_TM4C1294.o
PWM_is_Init                                       .pio/build/lptm4c1294ncpdt/src/Drivers/W-Link/Driver/PWM/PWM_TM4C1294.o
Print_JSON_To_Buffer                              .pio/build/lptm4c1294ncpdt/src/Drivers/W-Link/cJSON/cJSON.o
Process_LED_PWM_APP_Incoming_JSON_GET_Msg         .pio/build/lptm4c1294ncpdt/src/APP/LED_PWM_APP.o
Process_LED_PWM_APP_Incoming_JSON_POST_Msg        .pio/build/lptm4c1294ncpdt/src/APP/LED_PWM_APP.o
Process_LED_PWM_APP_JSON_GET_Commands             .pio/build/lptm4c1294ncpdt/src/APP/LED_PWM_APP.o
Process_LED_PWM_APP_JSON_POST_Commands            .pio/build/lptm4c1294ncpdt/src/APP/LED_PWM_APP.o
Process_Websocket_Incomming_Message               .pio/build/lptm4c1294ncpdt/src/NeonRTOS/NeonAppInterface.o
QEIConfigure                                      .pio/build/lptm4c1294ncpdt/src/Drivers/soc/driverlib/qei.o
QEIDirectionGet                                   .pio/build/lptm4c1294ncpdt/src/Drivers/soc/driverlib/qei.o
QEIDisable                                        .pio/build/lptm4c1294ncpdt/src/Drivers/soc/driverlib/qei.o
QEIEnable                                         .pio/build/lptm4c1294ncpdt/src/Drivers/soc/driverlib/qei.o
QEIErrorGet                                       .pio/build/lptm4c1294ncpdt/src/Drivers/soc/driverlib/qei.o
QEIFilterConfigure                                .pio/build/lptm4c1294ncpdt/src/Drivers/soc/driverlib/qei.o
QEIFilterDisable                                  .pio/build/lptm4c1294ncpdt/src/Drivers/soc/driverlib/qei.o
QEIFilterEnable                                   .pio/build/lptm4c1294ncpdt/src/Drivers/soc/driverlib/qei.o
QEIIntClear                                       .pio/build/lptm4c1294ncpdt/src/Drivers/soc/driverlib/qei.o
QEIIntDisable                                     .pio/build/lptm4c1294ncpdt/src/Drivers/soc/driverlib/qei.o
QEIIntEnable                                      .pio/build/lptm4c1294ncpdt/src/Drivers/soc/driverlib/qei.o
QEIIntRegister                                    .pio/build/lptm4c1294ncpdt/src/Drivers/soc/driverlib/qei.o
QEIIntStatus                                      .pio/build/lptm4c1294ncpdt/src/Drivers/soc/driverlib/qei.o
QEIIntUnregister                                  .pio/build/lptm4c1294ncpdt/src/Drivers/soc/driverlib/qei.o
QEIPositionGet                                    .pio/build/lptm4c1294ncpdt/src/Drivers/soc/driverlib/qei.o
QEIPositionSet                                    .pio/build/lptm4c1294ncpdt/src/Drivers/soc/driverlib/qei.o
QEIVelocityConfigure                              .pio/build/lptm4c1294ncpdt/src/Drivers/soc/driverlib/qei.o
QEIVelocityDisable                                .pio/build/lptm4c1294ncpdt/src/Drivers/soc/driverlib/qei.o
QEIVelocityEnable                                 .pio/build/lptm4c1294ncpdt/src/Drivers/soc/driverlib/qei.o
QEIVelocityGet                                    .pio/build/lptm4c1294ncpdt/src/Drivers/soc/driverlib/qei.o
Register_Neon_APP_Interface_Msg_CallBack          .pio/build/lptm4c1294ncpdt/src/NeonRTOS/NeonAppInterface.o
                                                  .pio/build/lptm4c1294ncpdt/src/APP/LED_PWM_APP.o
Registered_URL_List                               .pio/build/lptm4c1294ncpdt/src/NeonRTOS/HTTPd/HTTPd.o
ResetISR                                          .pio/build/lptm4c1294ncpdt/src/Drivers/soc/startup_gcc.o
SHAMD5ConfigSet                                   .pio/build/lptm4c1294ncpdt/src/Drivers/soc/driverlib/shamd5.o
SHAMD5DMADisable                                  .pio/build/lptm4c1294ncpdt/src/Drivers/soc/driverlib/shamd5.o
SHAMD5DMAEnable                                   .pio/build/lptm4c1294ncpdt/src/Drivers/soc/driverlib/shamd5.o
SHAMD5DataProcess                                 .pio/build/lptm4c1294ncpdt/src/Drivers/soc/driverlib/shamd5.o
SHAMD5DataWrite                                   .pio/build/lptm4c1294ncpdt/src/Drivers/soc/driverlib/shamd5.o
SHAMD5DataWriteNonBlocking                        .pio/build/lptm4c1294ncpdt/src/Drivers/soc/driverlib/shamd5.o
SHAMD5HMACKeySet                                  .pio/build/lptm4c1294ncpdt/src/Drivers/soc/driverlib/shamd5.o
SHAMD5HMACPPKeyGenerate                           .pio/build/lptm4c1294ncpdt/src/Drivers/soc/driverlib/shamd5.o
SHAMD5HMACPPKeySet                                .pio/build/lptm4c1294ncpdt/src/Drivers/soc/driverlib/shamd5.o
SHAMD5HMACProcess                                 .pio/build/lptm4c1294ncpdt/src/Drivers/soc/driverlib/shamd5.o
SHAMD5HashLengthSet                               .pio/build/lptm4c1294ncpdt/src/Drivers/soc/driverlib/shamd5.o
SHAMD5IntClear                                    .pio/build/lptm4c1294ncpdt/src/Drivers/soc/driverlib/shamd5.o
SHAMD5IntDisable                                  .pio/build/lptm4c1294ncpdt/src/Drivers/soc/driverlib/shamd5.o
SHAMD5IntEnable                                   .pio/build/lptm4c1294ncpdt/src/Drivers/soc/driverlib/shamd5.o
SHAMD5IntRegister                                 .pio/build/lptm4c1294ncpdt/src/Drivers/soc/driverlib/shamd5.o
SHAMD5IntStatus                                   .pio/build/lptm4c1294ncpdt/src/Drivers/soc/driverlib/shamd5.o
SHAMD5IntUnregister                               .pio/build/lptm4c1294ncpdt/src/Drivers/soc/driverlib/shamd5.o
SHAMD5Reset                                       .pio/build/lptm4c1294ncpdt/src/Drivers/soc/driverlib/shamd5.o
SHAMD5ResultRead                                  .pio/build/lptm4c1294ncpdt/src/Drivers/soc/driverlib/shamd5.o
SSIAdvDataPutFrameEnd                             .pio/build/lptm4c1294ncpdt/src/Drivers/soc/driverlib/ssi.o
SSIAdvDataPutFrameEndNonBlocking                  .pio/build/lptm4c1294ncpdt/src/Drivers/soc/driverlib/ssi.o
SSIAdvFrameHoldDisable                            .pio/build/lptm4c1294ncpdt/src/Drivers/soc/driverlib/ssi.o
SSIAdvFrameHoldEnable                             .pio/build/lptm4c1294ncpdt/src/Drivers/soc/driverlib/ssi.o
SSIAdvModeSet                                     .pio/build/lptm4c1294ncpdt/src/Drivers/soc/driverlib/ssi.o
SSIBusy                                           .pio/build/lptm4c1294ncpdt/src/Drivers/soc/driverlib/ssi.o
SSIClockSourceGet                                 .pio/build/lptm4c1294ncpdt/src/Drivers/soc/driverlib/ssi.o
SSIClockSourceSet                                 .pio/build/lptm4c1294ncpdt/src/Drivers/soc/driverlib/ssi.o
SSIConfigSetExpClk                                .pio/build/lptm4c1294ncpdt/src/Drivers/soc/driverlib/ssi.o
SSIDMADisable                                     .pio/build/lptm4c1294ncpdt/src/Drivers/soc/driverlib/ssi.o
SSIDMAEnable                                      .pio/build/lptm4c1294ncpdt/src/Drivers/soc/driverlib/ssi.o
SSIDataGet                                        .pio/build/lptm4c1294ncpdt/src/Drivers/soc/driverlib/ssi.o
SSIDataGetNonBlocking                             .pio/build/lptm4c1294ncpdt/src/Drivers/soc/driverlib/ssi.o
SSIDataPut                                        .pio/build/lptm4c1294ncpdt/src/Drivers/soc/driverlib/ssi.o
SSIDataPutNonBlocking                             .pio/build/lptm4c1294ncpdt/src/Drivers/soc/driverlib/ssi.o
SSIDisable                                        .pio/build/lptm4c1294ncpdt/src/Drivers/soc/driverlib/ssi.o
SSIEnable                                         .pio/build/lptm4c1294ncpdt/src/Drivers/soc/driverlib/ssi.o
SSIIntClear                                       .pio/build/lptm4c1294ncpdt/src/Drivers/soc/driverlib/ssi.o
SSIIntDisable                                     .pio/build/lptm4c1294ncpdt/src/Drivers/soc/driverlib/ssi.o
SSIIntEnable                                      .pio/build/lptm4c1294ncpdt/src/Drivers/soc/driverlib/ssi.o
SSIIntRegister                                    .pio/build/lptm4c1294ncpdt/src/Drivers/soc/driverlib/ssi.o
SSIIntStatus                                      .pio/build/lptm4c1294ncpdt/src/Drivers/soc/driverlib/ssi.o
SSIIntUnregister                                  .pio/build/lptm4c1294ncpdt/src/Drivers/soc/driverlib/ssi.o
SSILoopbackDisable                                .pio/build/lptm4c1294ncpdt/src/Drivers/soc/driverlib/ssi.o
SSILoopbackEnable                                 .pio/build/lptm4c1294ncpdt/src/Drivers/soc/driverlib/ssi.o
SysCtlAltClkConfig                                .pio/build/lptm4c1294ncpdt/src/Drivers/soc/driverlib/sysctl.o
SysCtlClockFreqSet                                .pio/build/lptm4c1294ncpdt/src/Drivers/soc/driverlib/sysctl.o
                                                  .pio/build/lptm4c1294ncpdt/src/Drivers/W-Link/Driver/SysCtrl/SysCtrl_TM4C1294.o
SysCtlClockGet                                    .pio/build/lptm4c1294ncpdt/src/Drivers/soc/driverlib/sysctl.o
SysCtlClockOutConfig                              .pio/build/lptm4c1294ncpdt/src/Drivers/soc/driverlib/sysctl.o
SysCtlClockSet                                    .pio/build/lptm4c1294ncpdt/src/Drivers/soc/driverlib/sysctl.o
SysCtlDeepSleep                                   .pio/build/lptm4c1294ncpdt/src/Drivers/soc/driverlib/sysctl.o
SysCtlDeepSleepClockConfigSet                     .pio/build/lptm4c1294ncpdt/src/Drivers/soc/driverlib/sysctl.o
SysCtlDeepSleepClockSet                           .pio/build/lptm4c1294ncpdt/src/Drivers/soc/driverlib/sysctl.o
SysCtlDeepSleepPowerSet                           .pio/build/lptm4c1294ncpdt/src/Drivers/soc/driverlib/sysctl.o
SysCtlDelay                                       .pio/build/lptm4c1294ncpdt/src/Drivers/soc/driverlib/sysctl.o
                                                  .pio/build/lptm4c1294ncpdt/src/Drivers/soc/driverlib/onewire.o
                                                  .pio/build/lptm4c1294ncpdt/src/Drivers/soc/driverlib/lcd.o
                                                  .pio/build/lptm4c1294ncpdt/src/Drivers/soc/driverlib/emac.o
                                                  .pio/build/lptm4c1294ncpdt/src/Drivers/soc/driverlib/eeprom.o
SysCtlFlashSectorSizeGet                          .pio/build/lptm4c1294ncpdt/src/Drivers/soc/driverlib/sysctl.o
SysCtlFlashSizeGet                                .pio/build/lptm4c1294ncpdt/src/Drivers/soc/driverlib/sysctl.o
SysCtlGPIOAHBDisable                              .pio/build/lptm4c1294ncpdt/src/Drivers/soc/driverlib/sysctl.o
SysCtlGPIOAHBEnable                               .pio/build/lptm4c1294ncpdt/src/Drivers/soc/driverlib/sysctl.o
SysCtlIntClear                                    .pio/build/lptm4c1294ncpdt/src/Drivers/soc/driverlib/sysctl.o
SysCtlIntDisable                                  .pio/build/lptm4c1294ncpdt/src/Drivers/soc/driverlib/sysctl.o
SysCtlIntEnable                                   .pio/build/lptm4c1294ncpdt/src/Drivers/soc/driverlib/sysctl.o
SysCtlIntRegister                                 .pio/build/lptm4c1294ncpdt/src/Drivers/soc/driverlib/sysctl.o
SysCtlIntStatus                                   .pio/build/lptm4c1294ncpdt/src/Drivers/soc/driverlib/sysctl.o
SysCtlIntUnregister                               .pio/build/lptm4c1294ncpdt/src/Drivers/soc/driverlib/sysctl.o
SysCtlLDODeepSleepGet                             .pio/build/lptm4c1294ncpdt/src/Drivers/soc/driverlib/sysctl.o
SysCtlLDODeepSleepSet                             .pio/build/lptm4c1294ncpdt/src/Drivers/soc/driverlib/sysctl.o
SysCtlLDOSleepGet                                 .pio/build/lptm4c1294ncpdt/src/Drivers/soc/driverlib/sysctl.o
SysCtlLDOSleepSet                                 .pio/build/lptm4c1294ncpdt/src/Drivers/soc/driverlib/sysctl.o
SysCtlMOSCConfigSet                               .pio/build/lptm4c1294ncpdt/src/Drivers/soc/driverlib/sysctl.o
SysCtlNMIClear                                    .pio/build/lptm4c1294ncpdt/src/Drivers/soc/driverlib/sysctl.o
SysCtlNMIStatus                                   .pio/build/lptm4c1294ncpdt/src/Drivers/soc/driverlib/sysctl.o
SysCtlPIOSCCalibrate                              .pio/build/lptm4c1294ncpdt/src/Drivers/soc/driverlib/sysctl.o
SysCtlPWMClockGet                                 .pio/build/lptm4c1294ncpdt/src/Drivers/soc/driverlib/sysctl.o
SysCtlPWMClockSet                                 .pio/build/lptm4c1294ncpdt/src/Drivers/soc/driverlib/sysctl.o
SysCtlPeripheralClockGating                       .pio/build/lptm4c1294ncpdt/src/Drivers/soc/driverlib/sysctl.o
SysCtlPeripheralDeepSleepDisable                  .pio/build/lptm4c1294ncpdt/src/Drivers/soc/driverlib/sysctl.o
SysCtlPeripheralDeepSleepEnable                   .pio/build/lptm4c1294ncpdt/src/Drivers/soc/driverlib/sysctl.o
SysCtlPeripheralDisable                           .pio/build/lptm4c1294ncpdt/src/Drivers/soc/driverlib/sysctl.o
SysCtlPeripheralEnable                            .pio/build/lptm4c1294ncpdt/src/Drivers/soc/driverlib/sysctl.o
SysCtlPeripheralPowerOff                          .pio/build/lptm4c1294ncpdt/src/Drivers/soc/driverlib/sysctl.o
SysCtlPeripheralPowerOn                           .pio/build/lptm4c1294ncpdt/src/Drivers/soc/driverlib/sysctl.o
SysCtlPeripheralPresent                           .pio/build/lptm4c1294ncpdt/src/Drivers/soc/driverlib/sysctl.o
SysCtlPeripheralReady                             .pio/build/lptm4c1294ncpdt/src/Drivers/soc/driverlib/sysctl.o
                                                  .pio/build/lptm4c1294ncpdt/src/Drivers/soc/driverlib/emac.o
SysCtlPeripheralReset                             .pio/build/lptm4c1294ncpdt/src/Drivers/soc/driverlib/sysctl.o
                                                  .pio/build/lptm4c1294ncpdt/src/Drivers/soc/driverlib/emac.o
                                                  .pio/build/lptm4c1294ncpdt/src/Drivers/soc/driverlib/eeprom.o
SysCtlPeripheralSleepDisable                      .pio/build/lptm4c1294ncpdt/src/Drivers/soc/driverlib/sysctl.o
SysCtlPeripheralSleepEnable                       .pio/build/lptm4c1294ncpdt/src/Drivers/soc/driverlib/sysctl.o
SysCtlReset                                       .pio/build/lptm4c1294ncpdt/src/Drivers/soc/driverlib/sysctl.o
SysCtlResetBehaviorGet                            .pio/build/lptm4c1294ncpdt/src/Drivers/soc/driverlib/sysctl.o
SysCtlResetBehaviorSet                            .pio/build/lptm4c1294ncpdt/src/Drivers/soc/driverlib/sysctl.o
SysCtlResetCauseClear                             .pio/build/lptm4c1294ncpdt/src/Drivers/soc/driverlib/sysctl.o
SysCtlResetCauseGet                               .pio/build/lptm4c1294ncpdt/src/Drivers/soc/driverlib/sysctl.o
SysCtlSRAMSizeGet                                 .pio/build/lptm4c1294ncpdt/src/Drivers/soc/driverlib/sysctl.o
SysCtlSleep                                       .pio/build/lptm4c1294ncpdt/src/Drivers/soc/driverlib/sysctl.o
SysCtlSleepPowerSet                               .pio/build/lptm4c1294ncpdt/src/Drivers/soc/driverlib/sysctl.o
SysCtlUSBPLLDisable                               .pio/build/lptm4c1294ncpdt/src/Drivers/soc/driverlib/sysctl.o
SysCtlUSBPLLEnable                                .pio/build/lptm4c1294ncpdt/src/Drivers/soc/driverlib/sysctl.o
SysCtlVCOGet                                      .pio/build/lptm4c1294ncpdt/src/Drivers/soc/driverlib/sysctl.o
SysCtlVoltageEventClear                           .pio/build/lptm4c1294ncpdt/src/Drivers/soc/driverlib/sysctl.o
SysCtlVoltageEventConfig                          .pio/build/lptm4c1294ncpdt/src/Drivers/soc/driverlib/sysctl.o
SysCtlVoltageEventStatus                          .pio/build/lptm4c1294ncpdt/src/Drivers/soc/driverlib/sysctl.o
SysCtrl_Init                                      .pio/build/lptm4c1294ncpdt/src/Drivers/W-Link/Driver/SysCtrl/SysCtrl_TM4C1294.o
                                                  .pio/build/lptm4c1294ncpdt/src/main.o
SysExcIntClear                                    .pio/build/lptm4c1294ncpdt/src/Drivers/soc/driverlib/sysexc.o
SysExcIntDisable                                  .pio/build/lptm4c1294ncpdt/src/Drivers/soc/driverlib/sysexc.o
SysExcIntEnable                                   .pio/build/lptm4c1294ncpdt/src/Drivers/soc/driverlib/sysexc.o
SysExcIntRegister                                 .pio/build/lptm4c1294ncpdt/src/Drivers/soc/driverlib/sysexc.o
SysExcIntStatus                                   .pio/build/lptm4c1294ncpdt/src/Drivers/soc/driverlib/sysexc.o
SysExcIntUnregister                               .pio/build/lptm4c1294ncpdt/src/Drivers/soc/driverlib/sysexc.o
SysTickDisable                                    .pio/build/lptm4c1294ncpdt/src/Drivers/soc/driverlib/systick.o
SysTickEnable                                     .pio/build/lptm4c1294ncpdt/src/Drivers/soc/driverlib/systick.o
SysTickIntDisable                                 .pio/build/lptm4c1294ncpdt/src/Drivers/soc/driverlib/systick.o
SysTickIntEnable                                  .pio/build/lptm4c1294ncpdt/src/Drivers/soc/driverlib/systick.o
SysTickIntRegister                                .pio/build/lptm4c1294ncpdt/src/Drivers/soc/driverlib/systick.o
SysTickIntUnregister                              .pio/build/lptm4c1294ncpdt/src/Drivers/soc/driverlib/systick.o
SysTickPeriodGet                                  .pio/build/lptm4c1294ncpdt/src/Drivers/soc/driverlib/systick.o
SysTickPeriodSet                                  .pio/build/lptm4c1294ncpdt/src/Drivers/soc/driverlib/systick.o
SysTickValueGet                                   .pio/build/lptm4c1294ncpdt/src/Drivers/soc/driverlib/systick.o
TimerADCEventGet                                  .pio/build/lptm4c1294ncpdt/src/Drivers/soc/driverlib/timer.o
TimerADCEventSet                                  .pio/build/lptm4c1294ncpdt/src/Drivers/soc/driverlib/timer.o
TimerClockSourceGet                               .pio/build/lptm4c1294ncpdt/src/Drivers/soc/driverlib/timer.o
TimerClockSourceSet                               .pio/build/lptm4c1294ncpdt/src/Drivers/soc/driverlib/timer.o
TimerConfigure                                    .pio/build/lptm4c1294ncpdt/src/Drivers/soc/driverlib/timer.o
TimerControlEvent                                 .pio/build/lptm4c1294ncpdt/src/Drivers/soc/driverlib/timer.o
TimerControlLevel                                 .pio/build/lptm4c1294ncpdt/src/Drivers/soc/driverlib/timer.o
TimerControlStall                                 .pio/build/lptm4c1294ncpdt/src/Drivers/soc/driverlib/timer.o
TimerControlTrigger                               .pio/build/lptm4c1294ncpdt/src/Drivers/soc/driverlib/timer.o
TimerControlWaitOnTrigger                         .pio/build/lptm4c1294ncpdt/src/Drivers/soc/driverlib/timer.o
TimerDMAEventGet                                  .pio/build/lptm4c1294ncpdt/src/Drivers/soc/driverlib/timer.o
TimerDMAEventSet                                  .pio/build/lptm4c1294ncpdt/src/Drivers/soc/driverlib/timer.o
TimerDisable                                      .pio/build/lptm4c1294ncpdt/src/Drivers/soc/driverlib/timer.o
TimerEnable                                       .pio/build/lptm4c1294ncpdt/src/Drivers/soc/driverlib/timer.o
TimerIntClear                                     .pio/build/lptm4c1294ncpdt/src/Drivers/soc/driverlib/timer.o
TimerIntDisable                                   .pio/build/lptm4c1294ncpdt/src/Drivers/soc/driverlib/timer.o
TimerIntEnable                                    .pio/build/lptm4c1294ncpdt/src/Drivers/soc/driverlib/timer.o
TimerIntRegister                                  .pio/build/lptm4c1294ncpdt/src/Drivers/soc/driverlib/timer.o
TimerIntStatus                                    .pio/build/lptm4c1294ncpdt/src/Drivers/soc/driverlib/timer.o
TimerIntUnregister                                .pio/build/lptm4c1294ncpdt/src/Drivers/soc/driverlib/timer.o
TimerLoadGet                                      .pio/build/lptm4c1294ncpdt/src/Drivers/soc/driverlib/timer.o
TimerLoadGet64                                    .pio/build/lptm4c1294ncpdt/src/Drivers/soc/driverlib/timer.o
TimerLoadSet                                      .pio/build/lptm4c1294ncpdt/src/Drivers/soc/driverlib/timer.o
TimerLoadSet64                                    .pio/build/lptm4c1294ncpdt/src/Drivers/soc/driverlib/timer.o
TimerMatchGet                                     .pio/build/lptm4c1294ncpdt/src/Drivers/soc/driverlib/timer.o
TimerMatchGet64                                   .pio/build/lptm4c1294ncpdt/src/Drivers/soc/driverlib/timer.o
TimerMatchSet                                     .pio/build/lptm4c1294ncpdt/src/Drivers/soc/driverlib/timer.o
TimerMatchSet64                                   .pio/build/lptm4c1294ncpdt/src/Drivers/soc/driverlib/timer.o
TimerPrescaleGet                                  .pio/build/lptm4c1294ncpdt/src/Drivers/soc/driverlib/timer.o
TimerPrescaleMatchGet                             .pio/build/lptm4c1294ncpdt/src/Drivers/soc/driverlib/timer.o
TimerPrescaleMatchSet                             .pio/build/lptm4c1294ncpdt/src/Drivers/soc/driverlib/timer.o
TimerPrescaleSet                                  .pio/build/lptm4c1294ncpdt/src/Drivers/soc/driverlib/timer.o
TimerRTCDisable                                   .pio/build/lptm4c1294ncpdt/src/Drivers/soc/driverlib/timer.o
TimerRTCEnable                                    .pio/build/lptm4c1294ncpdt/src/Drivers/soc/driverlib/timer.o
TimerSynchronize                                  .pio/build/lptm4c1294ncpdt/src/Drivers/soc/driverlib/timer.o
TimerUpdateMode                                   .pio/build/lptm4c1294ncpdt/src/Drivers/soc/driverlib/timer.o
TimerValueGet                                     .pio/build/lptm4c1294ncpdt/src/Drivers/soc/driverlib/timer.o
TimerValueGet64                                   .pio/build/lptm4c1294ncpdt/src/Drivers/soc/driverlib/timer.o
UART9BitAddrSend                                  .pio/build/lptm4c1294ncpdt/src/Drivers/soc/driverlib/uart.o
UART9BitAddrSet                                   .pio/build/lptm4c1294ncpdt/src/Drivers/soc/driverlib/uart.o
UART9BitDisable                                   .pio/build/lptm4c1294ncpdt/src/Drivers/soc/driverlib/uart.o
UART9BitEnable                                    .pio/build/lptm4c1294ncpdt/src/Drivers/soc/driverlib/uart.o
                                                  .pio/build/lptm4c1294ncpdt/src/Drivers/W-Link/Driver/UART/UART_TM4C1294.o
UARTBreakCtl                                      .pio/build/lptm4c1294ncpdt/src/Drivers/soc/driverlib/uart.o
UARTBusy                                          .pio/build/lptm4c1294ncpdt/src/Drivers/soc/driverlib/uart.o
UARTCharGet                                       .pio/build/lptm4c1294ncpdt/src/Drivers/soc/driverlib/uart.o
UARTCharGetNonBlocking                            .pio/build/lptm4c1294ncpdt/src/Drivers/soc/driverlib/uart.o
UARTCharPut                                       .pio/build/lptm4c1294ncpdt/src/Drivers/soc/driverlib/uart.o
UARTCharPutNonBlocking                            .pio/build/lptm4c1294ncpdt/src/Drivers/soc/driverlib/uart.o
UARTCharsAvail                                    .pio/build/lptm4c1294ncpdt/src/Drivers/soc/driverlib/uart.o
UARTClockSourceGet                                .pio/build/lptm4c1294ncpdt/src/Drivers/soc/driverlib/uart.o
UARTClockSourceSet                                .pio/build/lptm4c1294ncpdt/src/Drivers/soc/driverlib/uart.o
UARTConfigGetExpClk                               .pio/build/lptm4c1294ncpdt/src/Drivers/soc/driverlib/uart.o
UARTConfigSetExpClk                               .pio/build/lptm4c1294ncpdt/src/Drivers/soc/driverlib/uart.o
UARTDMADisable                                    .pio/build/lptm4c1294ncpdt/src/Drivers/soc/driverlib/uart.o
UARTDMAEnable                                     .pio/build/lptm4c1294ncpdt/src/Drivers/soc/driverlib/uart.o
UARTDisable                                       .pio/build/lptm4c1294ncpdt/src/Drivers/soc/driverlib/uart.o
UARTDisableSIR                                    .pio/build/lptm4c1294ncpdt/src/Drivers/soc/driverlib/uart.o
UARTEnable                                        .pio/build/lptm4c1294ncpdt/src/Drivers/soc/driverlib/uart.o
UARTEnableSIR                                     .pio/build/lptm4c1294ncpdt/src/Drivers/soc/driverlib/uart.o
UARTFIFODisable                                   .pio/build/lptm4c1294ncpdt/src/Drivers/soc/driverlib/uart.o
UARTFIFOEnable                                    .pio/build/lptm4c1294ncpdt/src/Drivers/soc/driverlib/uart.o
UARTFIFOLevelGet                                  .pio/build/lptm4c1294ncpdt/src/Drivers/soc/driverlib/uart.o
UARTFIFOLevelSet                                  .pio/build/lptm4c1294ncpdt/src/Drivers/soc/driverlib/uart.o
UARTFlowControlGet                                .pio/build/lptm4c1294ncpdt/src/Drivers/soc/driverlib/uart.o
UARTFlowControlSet                                .pio/build/lptm4c1294ncpdt/src/Drivers/soc/driverlib/uart.o
UARTIntClear                                      .pio/build/lptm4c1294ncpdt/src/Drivers/soc/driverlib/uart.o
UARTIntDisable                                    .pio/build/lptm4c1294ncpdt/src/Drivers/soc/driverlib/uart.o
UARTIntEnable                                     .pio/build/lptm4c1294ncpdt/src/Drivers/soc/driverlib/uart.o
UARTIntRegister                                   .pio/build/lptm4c1294ncpdt/src/Drivers/soc/driverlib/uart.o
UARTIntStatus                                     .pio/build/lptm4c1294ncpdt/src/Drivers/soc/driverlib/uart.o
UARTIntUnregister                                 .pio/build/lptm4c1294ncpdt/src/Drivers/soc/driverlib/uart.o
UARTLoopbackEnable                                .pio/build/lptm4c1294ncpdt/src/Drivers/soc/driverlib/uart.o
UARTModemControlClear                             .pio/build/lptm4c1294ncpdt/src/Drivers/soc/driverlib/uart.o
UARTModemControlGet                               .pio/build/lptm4c1294ncpdt/src/Drivers/soc/driverlib/uart.o
UARTModemControlSet                               .pio/build/lptm4c1294ncpdt/src/Drivers/soc/driverlib/uart.o
UARTModemStatusGet                                .pio/build/lptm4c1294ncpdt/src/Drivers/soc/driverlib/uart.o
UARTParityModeGet                                 .pio/build/lptm4c1294ncpdt/src/Drivers/soc/driverlib/uart.o
UARTParityModeSet                                 .pio/build/lptm4c1294ncpdt/src/Drivers/soc/driverlib/uart.o
UARTRxErrorClear                                  .pio/build/lptm4c1294ncpdt/src/Drivers/soc/driverlib/uart.o
UARTRxErrorGet                                    .pio/build/lptm4c1294ncpdt/src/Drivers/soc/driverlib/uart.o
UARTSmartCardDisable                              .pio/build/lptm4c1294ncpdt/src/Drivers/soc/driverlib/uart.o
UARTSmartCardEnable                               .pio/build/lptm4c1294ncpdt/src/Drivers/soc/driverlib/uart.o
UARTSpaceAvail                                    .pio/build/lptm4c1294ncpdt/src/Drivers/soc/driverlib/uart.o
UARTTxIntModeGet                                  .pio/build/lptm4c1294ncpdt/src/Drivers/soc/driverlib/uart.o
UARTTxIntModeSet                                  .pio/build/lptm4c1294ncpdt/src/Drivers/soc/driverlib/uart.o
UART_Close                                        .pio/build/lptm4c1294ncpdt/src/Drivers/W-Link/Driver/UART/UART_TM4C1294.o
UART_GetChar                                      .pio/build/lptm4c1294ncpdt/src/Drivers/W-Link/Driver/UART/UART_TM4C1294.o
UART_Open                                         .pio/build/lptm4c1294ncpdt/src/Drivers/W-Link/Driver/UART/UART_TM4C1294.o
                                                  .pio/build/lptm4c1294ncpdt/src/NeonRTOS/NeonAppInterface.o
UART_Open_Specific_Format                         .pio/build/lptm4c1294ncpdt/src/Drivers/W-Link/Driver/UART/UART_TM4C1294.o
UART_Printf                                       .pio/build/lptm4c1294ncpdt/src/Drivers/W-Link/Driver/UART/UART_TM4C1294.o
                                                  .pio/build/lptm4c1294ncpdt/src/main.o
                                                  .pio/build/lptm4c1294ncpdt/src/NeonRTOS/NeonAppInterface.o
                                                  .pio/build/lptm4c1294ncpdt/src/NeonRTOS/HTTPd/HTTPd.o
UART_PutChar                                      .pio/build/lptm4c1294ncpdt/src/Drivers/W-Link/Driver/UART/UART_TM4C1294.o
UART_RX_Pins                                      .pio/build/lptm4c1294ncpdt/src/Drivers/W-Link/Driver/UART/UART_TM4C1294.o
UART_Read                                         .pio/build/lptm4c1294ncpdt/src/Drivers/W-Link/Driver/UART/UART_TM4C1294.o
UART_TX_Pins                                      .pio/build/lptm4c1294ncpdt/src/Drivers/W-Link/Driver/UART/UART_TM4C1294.o
UART_Write                                        .pio/build/lptm4c1294ncpdt/src/Drivers/W-Link/Driver/UART/UART_TM4C1294.o
USBClockDisable                                   .pio/build/lptm4c1294ncpdt/src/Drivers/soc/driverlib/usb.o
USBClockEnable                                    .pio/build/lptm4c1294ncpdt/src/Drivers/soc/driverlib/usb.o
USBControllerVersion                              .pio/build/lptm4c1294ncpdt/src/Drivers/soc/driverlib/usb.o
USBDMAChannelAddressGet                           .pio/build/lptm4c1294ncpdt/src/Drivers/soc/driverlib/usb.o
USBDMAChannelAddressSet                           .pio/build/lptm4c1294ncpdt/src/Drivers/soc/driverlib/usb.o
USBDMAChannelConfigSet                            .pio/build/lptm4c1294ncpdt/src/Drivers/soc/driverlib/usb.o
USBDMAChannelCountGet                             .pio/build/lptm4c1294ncpdt/src/Drivers/soc/driverlib/usb.o
USBDMAChannelCountSet                             .pio/build/lptm4c1294ncpdt/src/Drivers/soc/driverlib/usb.o
USBDMAChannelDisable                              .pio/build/lptm4c1294ncpdt/src/Drivers/soc/driverlib/usb.o
USBDMAChannelEnable                               .pio/build/lptm4c1294ncpdt/src/Drivers/soc/driverlib/usb.o
USBDMAChannelIntDisable                           .pio/build/lptm4c1294ncpdt/src/Drivers/soc/driverlib/usb.o
USBDMAChannelIntEnable                            .pio/build/lptm4c1294ncpdt/src/Drivers/soc/driverlib/usb.o
USBDMAChannelIntStatus                            .pio/build/lptm4c1294ncpdt/src/Drivers/soc/driverlib/usb.o
USBDMAChannelStatus                               .pio/build/lptm4c1294ncpdt/src/Drivers/soc/driverlib/usb.o
USBDMAChannelStatusClear                          .pio/build/lptm4c1294ncpdt/src/Drivers/soc/driverlib/usb.o
USBDMANumChannels                                 .pio/build/lptm4c1294ncpdt/src/Drivers/soc/driverlib/usb.o
USBDevAddrGet                                     .pio/build/lptm4c1294ncpdt/src/Drivers/soc/driverlib/usb.o
USBDevAddrSet                                     .pio/build/lptm4c1294ncpdt/src/Drivers/soc/driverlib/usb.o
USBDevConnect                                     .pio/build/lptm4c1294ncpdt/src/Drivers/soc/driverlib/usb.o
USBDevDisconnect                                  .pio/build/lptm4c1294ncpdt/src/Drivers/soc/driverlib/usb.o
USBDevEndpointConfigGet                           .pio/build/lptm4c1294ncpdt/src/Drivers/soc/driverlib/usb.o
USBDevEndpointConfigSet                           .pio/build/lptm4c1294ncpdt/src/Drivers/soc/driverlib/usb.o
USBDevEndpointDataAck                             .pio/build/lptm4c1294ncpdt/src/Drivers/soc/driverlib/usb.o
USBDevEndpointStall                               .pio/build/lptm4c1294ncpdt/src/Drivers/soc/driverlib/usb.o
USBDevEndpointStallClear                          .pio/build/lptm4c1294ncpdt/src/Drivers/soc/driverlib/usb.o
USBDevEndpointStatusClear                         .pio/build/lptm4c1294ncpdt/src/Drivers/soc/driverlib/usb.o
USBDevLPMConfig                                   .pio/build/lptm4c1294ncpdt/src/Drivers/soc/driverlib/usb.o
USBDevLPMDisable                                  .pio/build/lptm4c1294ncpdt/src/Drivers/soc/driverlib/usb.o
USBDevLPMEnable                                   .pio/build/lptm4c1294ncpdt/src/Drivers/soc/driverlib/usb.o
USBDevLPMRemoteWake                               .pio/build/lptm4c1294ncpdt/src/Drivers/soc/driverlib/usb.o
USBDevMode                                        .pio/build/lptm4c1294ncpdt/src/Drivers/soc/driverlib/usb.o
USBDevSpeedGet                                    .pio/build/lptm4c1294ncpdt/src/Drivers/soc/driverlib/usb.o
USBEndpointDMAChannel                             .pio/build/lptm4c1294ncpdt/src/Drivers/soc/driverlib/usb.o
USBEndpointDMAConfigSet                           .pio/build/lptm4c1294ncpdt/src/Drivers/soc/driverlib/usb.o
USBEndpointDMADisable                             .pio/build/lptm4c1294ncpdt/src/Drivers/soc/driverlib/usb.o
USBEndpointDMAEnable                              .pio/build/lptm4c1294ncpdt/src/Drivers/soc/driverlib/usb.o
USBEndpointDataAvail                              .pio/build/lptm4c1294ncpdt/src/Drivers/soc/driverlib/usb.o
USBEndpointDataGet                                .pio/build/lptm4c1294ncpdt/src/Drivers/soc/driverlib/usb.o
USBEndpointDataPut                                .pio/build/lptm4c1294ncpdt/src/Drivers/soc/driverlib/usb.o
USBEndpointDataSend                               .pio/build/lptm4c1294ncpdt/src/Drivers/soc/driverlib/usb.o
USBEndpointDataToggleClear                        .pio/build/lptm4c1294ncpdt/src/Drivers/soc/driverlib/usb.o
USBEndpointPacketCountSet                         .pio/build/lptm4c1294ncpdt/src/Drivers/soc/driverlib/usb.o
USBEndpointStatus                                 .pio/build/lptm4c1294ncpdt/src/Drivers/soc/driverlib/usb.o
USBFIFOAddrGet                                    .pio/build/lptm4c1294ncpdt/src/Drivers/soc/driverlib/usb.o
USBFIFOConfigGet                                  .pio/build/lptm4c1294ncpdt/src/Drivers/soc/driverlib/usb.o
USBFIFOConfigSet                                  .pio/build/lptm4c1294ncpdt/src/Drivers/soc/driverlib/usb.o
USBFIFOFlush                                      .pio/build/lptm4c1294ncpdt/src/Drivers/soc/driverlib/usb.o
USBFrameNumberGet                                 .pio/build/lptm4c1294ncpdt/src/Drivers/soc/driverlib/usb.o
USBHighSpeed                                      .pio/build/lptm4c1294ncpdt/src/Drivers/soc/driverlib/usb.o
USBHostAddrGet                                    .pio/build/lptm4c1294ncpdt/src/Drivers/soc/driverlib/usb.o
USBHostAddrSet                                    .pio/build/lptm4c1294ncpdt/src/Drivers/soc/driverlib/usb.o
USBHostEndpointConfig                             .pio/build/lptm4c1294ncpdt/src/Drivers/soc/driverlib/usb.o
USBHostEndpointDataAck                            .pio/build/lptm4c1294ncpdt/src/Drivers/soc/driverlib/usb.o
USBHostEndpointDataToggle                         .pio/build/lptm4c1294ncpdt/src/Drivers/soc/driverlib/usb.o
USBHostEndpointPing                               .pio/build/lptm4c1294ncpdt/src/Drivers/soc/driverlib/usb.o
USBHostEndpointSpeed                              .pio/build/lptm4c1294ncpdt/src/Drivers/soc/driverlib/usb.o
USBHostEndpointStatusClear                        .pio/build/lptm4c1294ncpdt/src/Drivers/soc/driverlib/usb.o
USBHostHubAddrGet                                 .pio/build/lptm4c1294ncpdt/src/Drivers/soc/driverlib/usb.o
USBHostHubAddrSet                                 .pio/build/lptm4c1294ncpdt/src/Drivers/soc/driverlib/usb.o
USBHostLPMConfig                                  .pio/build/lptm4c1294ncpdt/src/Drivers/soc/driverlib/usb.o
USBHostLPMResume                                  .pio/build/lptm4c1294ncpdt/src/Drivers/soc/driverlib/usb.o
USBHostLPMSend                                    .pio/build/lptm4c1294ncpdt/src/Drivers/soc/driverlib/usb.o
USBHostMode                                       .pio/build/lptm4c1294ncpdt/src/Drivers/soc/driverlib/usb.o
USBHostPwrConfig                                  .pio/build/lptm4c1294ncpdt/src/Drivers/soc/driverlib/usb.o
USBHostPwrDisable                                 .pio/build/lptm4c1294ncpdt/src/Drivers/soc/driverlib/usb.o
USBHostPwrEnable                                  .pio/build/lptm4c1294ncpdt/src/Drivers/soc/driverlib/usb.o
USBHostPwrFaultDisable                            .pio/build/lptm4c1294ncpdt/src/Drivers/soc/driverlib/usb.o
USBHostPwrFaultEnable                             .pio/build/lptm4c1294ncpdt/src/Drivers/soc/driverlib/usb.o
USBHostRequestIN                                  .pio/build/lptm4c1294ncpdt/src/Drivers/soc/driverlib/usb.o
USBHostRequestINClear                             .pio/build/lptm4c1294ncpdt/src/Drivers/soc/driverlib/usb.o
USBHostRequestStatus                              .pio/build/lptm4c1294ncpdt/src/Drivers/soc/driverlib/usb.o
USBHostReset                                      .pio/build/lptm4c1294ncpdt/src/Drivers/soc/driverlib/usb.o
USBHostResume                                     .pio/build/lptm4c1294ncpdt/src/Drivers/soc/driverlib/usb.o
USBHostSpeedGet                                   .pio/build/lptm4c1294ncpdt/src/Drivers/soc/driverlib/usb.o
USBHostSuspend                                    .pio/build/lptm4c1294ncpdt/src/Drivers/soc/driverlib/usb.o
USBIntDisableControl                              .pio/build/lptm4c1294ncpdt/src/Drivers/soc/driverlib/usb.o
USBIntDisableEndpoint                             .pio/build/lptm4c1294ncpdt/src/Drivers/soc/driverlib/usb.o
USBIntEnableControl                               .pio/build/lptm4c1294ncpdt/src/Drivers/soc/driverlib/usb.o
USBIntEnableEndpoint                              .pio/build/lptm4c1294ncpdt/src/Drivers/soc/driverlib/usb.o
USBIntRegister                                    .pio/build/lptm4c1294ncpdt/src/Drivers/soc/driverlib/usb.o
USBIntStatusControl                               .pio/build/lptm4c1294ncpdt/src/Drivers/soc/driverlib/usb.o
USBIntStatusEndpoint                              .pio/build/lptm4c1294ncpdt/src/Drivers/soc/driverlib/usb.o
USBIntUnregister                                  .pio/build/lptm4c1294ncpdt/src/Drivers/soc/driverlib/usb.o
USBLPMEndpointGet                                 .pio/build/lptm4c1294ncpdt/src/Drivers/soc/driverlib/usb.o
USBLPMIntDisable                                  .pio/build/lptm4c1294ncpdt/src/Drivers/soc/driverlib/usb.o
USBLPMIntEnable                                   .pio/build/lptm4c1294ncpdt/src/Drivers/soc/driverlib/usb.o
USBLPMIntStatus                                   .pio/build/lptm4c1294ncpdt/src/Drivers/soc/driverlib/usb.o
USBLPMLinkStateGet                                .pio/build/lptm4c1294ncpdt/src/Drivers/soc/driverlib/usb.o
USBLPMRemoteWakeEnabled                           .pio/build/lptm4c1294ncpdt/src/Drivers/soc/driverlib/usb.o
USBModeConfig                                     .pio/build/lptm4c1294ncpdt/src/Drivers/soc/driverlib/usb.o
USBModeGet                                        .pio/build/lptm4c1294ncpdt/src/Drivers/soc/driverlib/usb.o
USBNumEndpointsGet                                .pio/build/lptm4c1294ncpdt/src/Drivers/soc/driverlib/usb.o
USBOTGMode                                        .pio/build/lptm4c1294ncpdt/src/Drivers/soc/driverlib/usb.o
USBOTGSessionRequest                              .pio/build/lptm4c1294ncpdt/src/Drivers/soc/driverlib/usb.o
USBPHYPowerOff                                    .pio/build/lptm4c1294ncpdt/src/Drivers/soc/driverlib/usb.o
USBPHYPowerOn                                     .pio/build/lptm4c1294ncpdt/src/Drivers/soc/driverlib/usb.o
USBULPIConfig                                     .pio/build/lptm4c1294ncpdt/src/Drivers/soc/driverlib/usb.o
USBULPIDisable                                    .pio/build/lptm4c1294ncpdt/src/Drivers/soc/driverlib/usb.o
USBULPIEnable                                     .pio/build/lptm4c1294ncpdt/src/Drivers/soc/driverlib/usb.o
USBULPIRegRead                                    .pio/build/lptm4c1294ncpdt/src/Drivers/soc/driverlib/usb.o
USBULPIRegWrite                                   .pio/build/lptm4c1294ncpdt/src/Drivers/soc/driverlib/usb.o
UnRegister_Neon_APP_Interface_Msg_CallBack        .pio/build/lptm4c1294ncpdt/src/NeonRTOS/NeonAppInterface.o
WatchdogEnable                                    .pio/build/lptm4c1294ncpdt/src/Drivers/soc/driverlib/watchdog.o
WatchdogIntClear                                  .pio/build/lptm4c1294ncpdt/src/Drivers/soc/driverlib/watchdog.o
WatchdogIntEnable                                 .pio/build/lptm4c1294ncpdt/src/Drivers/soc/driverlib/watchdog.o
WatchdogIntRegister                               .pio/build/lptm4c1294ncpdt/src/Drivers/soc/driverlib/watchdog.o
WatchdogIntStatus                                 .pio/build/lptm4c1294ncpdt/src/Drivers/soc/driverlib/watchdog.o
WatchdogIntTypeSet                                .pio/build/lptm4c1294ncpdt/src/Drivers/soc/driverlib/watchdog.o
WatchdogIntUnregister                             .pio/build/lptm4c1294ncpdt/src/Drivers/soc/driverlib/watchdog.o
WatchdogLock                                      .pio/build/lptm4c1294ncpdt/src/Drivers/soc/driverlib/watchdog.o
WatchdogLockState                                 .pio/build/lptm4c1294ncpdt/src/Drivers/soc/driverlib/watchdog.o
WatchdogReloadGet                                 .pio/build/lptm4c1294ncpdt/src/Drivers/soc/driverlib/watchdog.o
WatchdogReloadSet                                 .pio/build/lptm4c1294ncpdt/src/Drivers/soc/driverlib/watchdog.o
WatchdogResetDisable                              .pio/build/lptm4c1294ncpdt/src/Drivers/soc/driverlib/watchdog.o
WatchdogResetEnable                               .pio/build/lptm4c1294ncpdt/src/Drivers/soc/driverlib/watchdog.o
WatchdogRunning                                   .pio/build/lptm4c1294ncpdt/src/Drivers/soc/driverlib/watchdog.o
WatchdogStallDisable                              .pio/build/lptm4c1294ncpdt/src/Drivers/soc/driverlib/watchdog.o
WatchdogStallEnable                               .pio/build/lptm4c1294ncpdt/src/Drivers/soc/driverlib/watchdog.o
WatchdogUnlock                                    .pio/build/lptm4c1294ncpdt/src/Drivers/soc/driverlib/watchdog.o
WatchdogValueGet                                  .pio/build/lptm4c1294ncpdt/src/Drivers/soc/driverlib/watchdog.o
WebSocketServer_CreateAcceptKey                   .pio/build/lptm4c1294ncpdt/src/NeonRTOS/HTTPd/HTTPd.o
WebSocketServer_ReceiveWsFrame                    .pio/build/lptm4c1294ncpdt/src/NeonRTOS/HTTPd/HTTPd.o
WebSocket_Accept_Identifier                       .pio/build/lptm4c1294ncpdt/src/NeonRTOS/HTTPd/HTTPd_def.o
                                                  .pio/build/lptm4c1294ncpdt/src/NeonRTOS/HTTPd/HTTPd.o
WebSocket_Identifier_Lower                        .pio/build/lptm4c1294ncpdt/src/NeonRTOS/HTTPd/HTTPd_def.o
                                                  .pio/build/lptm4c1294ncpdt/src/NeonRTOS/HTTPd/HTTPd.o
WebSocket_Identifier_Upper                        .pio/build/lptm4c1294ncpdt/src/NeonRTOS/HTTPd/HTTPd_def.o
                                                  .pio/build/lptm4c1294ncpdt/src/NeonRTOS/HTTPd/HTTPd.o
WebSocket_Key_Identifier                          .pio/build/lptm4c1294ncpdt/src/NeonRTOS/HTTPd/HTTPd_def.o
                                                  .pio/build/lptm4c1294ncpdt/src/NeonRTOS/HTTPd/HTTPd.o
WebSocket_UUID                                    .pio/build/lptm4c1294ncpdt/src/NeonRTOS/HTTPd/HTTPd_def.o
                                                  .pio/build/lptm4c1294ncpdt/src/NeonRTOS/HTTPd/HTTPd.o
WebSocket_Version                                 .pio/build/lptm4c1294ncpdt/src/NeonRTOS/HTTPd/HTTPd_def.o
WebSocket_Version_Identifier                      .pio/build/lptm4c1294ncpdt/src/NeonRTOS/HTTPd/HTTPd_def.o
WebsocketServer_RegisterMsgCallback               .pio/build/lptm4c1294ncpdt/src/NeonRTOS/HTTPd/HTTPd.o
                                                  .pio/build/lptm4c1294ncpdt/src/NeonRTOS/NeonAppInterface.o
WebsocketServer_SendBrocastJSONMessage            .pio/build/lptm4c1294ncpdt/src/NeonRTOS/HTTPd/HTTPd.o
                                                  .pio/build/lptm4c1294ncpdt/src/APP/LED_PWM_APP.o
WebsocketServer_SendBrocastMessage                .pio/build/lptm4c1294ncpdt/src/NeonRTOS/HTTPd/HTTPd.o
WebsocketServer_SendJSONMessage                   .pio/build/lptm4c1294ncpdt/src/NeonRTOS/HTTPd/HTTPd.o
                                                  .pio/build/lptm4c1294ncpdt/src/NeonRTOS/NeonAppInterface.o
WebsocketServer_SendMessage                       .pio/build/lptm4c1294ncpdt/src/NeonRTOS/HTTPd/HTTPd.o
_Balloc                                           c:/users/user/.platformio/packages/toolchain-gccarmnoneeabi@1.40804.0/bin/../lib/gcc/arm-none-eabi/4.8.4/../../../../arm-none-eabi/lib/armv7e-m\libc.a(lib_a-mprec.o)
                                                  c:/users/user/.platformio/packages/toolchain-gccarmnoneeabi@1.40804.0/bin/../lib/gcc/arm-none-eabi/4.8.4/../../../../arm-none-eabi/lib/armv7e-m\libc.a(lib_a-dtoa.o)
_Bfree                                            c:/users/user/.platformio/packages/toolchain-gccarmnoneeabi@1.40804.0/bin/../lib/gcc/arm-none-eabi/4.8.4/../../../../arm-none-eabi/lib/armv7e-m\libc.a(lib_a-mprec.o)
                                                  c:/users/user/.platformio/packages/toolchain-gccarmnoneeabi@1.40804.0/bin/../lib/gcc/arm-none-eabi/4.8.4/../../../../arm-none-eabi/lib/armv7e-m\libc.a(lib_a-dtoa.o)
_PathLocale                                       c:/users/user/.platformio/packages/toolchain-gccarmnoneeabi@1.40804.0/bin/../lib/gcc/arm-none-eabi/4.8.4/../../../../arm-none-eabi/lib/armv7e-m\libc.a(lib_a-locale.o)
__adddf3                                          c:/users/user/.platformio/packages/toolchain-gccarmnoneeabi@1.40804.0/bin/../lib/gcc/arm-none-eabi/4.8.4/armv7e-m\libgcc.a(_arm_addsubdf3.o)
__aeabi_cdcmpeq                                   c:/users/user/.platformio/packages/toolchain-gccarmnoneeabi@1.40804.0/bin/../lib/gcc/arm-none-eabi/4.8.4/armv7e-m\libgcc.a(_arm_cmpdf2.o)
__aeabi_cdcmple                                   c:/users/user/.platformio/packages/toolchain-gccarmnoneeabi@1.40804.0/bin/../lib/gcc/arm-none-eabi/4.8.4/armv7e-m\libgcc.a(_arm_cmpdf2.o)
__aeabi_cdrcmple                                  c:/users/user/.platformio/packages/toolchain-gccarmnoneeabi@1.40804.0/bin/../lib/gcc/arm-none-eabi/4.8.4/armv7e-m\libgcc.a(_arm_cmpdf2.o)
__aeabi_d2iz                                      c:/users/user/.platformio/packages/toolchain-gccarmnoneeabi@1.40804.0/bin/../lib/gcc/arm-none-eabi/4.8.4/armv7e-m\libgcc.a(_arm_fixdfsi.o)
                                                  c:/users/user/.platformio/packages/toolchain-gccarmnoneeabi@1.40804.0/bin/../lib/gcc/arm-none-eabi/4.8.4/../../../../arm-none-eabi/lib/armv7e-m\libc.a(lib_a-dtoa.o)
                                                  .pio/build/lptm4c1294ncpdt/src/Drivers/W-Link/cJSON/cJSON.o
                                                  .pio/build/lptm4c1294ncpdt/src/Drivers/W-Link/Misc/ftoa.o
__aeabi_dadd                                      c:/users/user/.platformio/packages/toolchain-gccarmnoneeabi@1.40804.0/bin/../lib/gcc/arm-none-eabi/4.8.4/armv7e-m\libgcc.a(_arm_addsubdf3.o)
                                                  c:/users/user/.platformio/packages/toolchain-gccarmnoneeabi@1.40804.0/bin/../lib/gcc/arm-none-eabi/4.8.4/../../../../arm-none-eabi/lib/armv7e-m\libm.a(lib_a-s_scalbn.o)
                                                  c:/users/user/.platformio/packages/toolchain-gccarmnoneeabi@1.40804.0/bin/../lib/gcc/arm-none-eabi/4.8.4/../../../../arm-none-eabi/lib/armv7e-m\libm.a(lib_a-s_rint.o)
                                                  c:/users/user/.platformio/packages/toolchain-gccarmnoneeabi@1.40804.0/bin/../lib/gcc/arm-none-eabi/4.8.4/../../../../arm-none-eabi/lib/armv7e-m\libm.a(lib_a-e_sqrt.o)
                                                  c:/users/user/.platformio/packages/toolchain-gccarmnoneeabi@1.40804.0/bin/../lib/gcc/arm-none-eabi/4.8.4/../../../../arm-none-eabi/lib/armv7e-m\libm.a(lib_a-e_pow.o)
                                                  c:/users/user/.platformio/packages/toolchain-gccarmnoneeabi@1.40804.0/bin/../lib/gcc/arm-none-eabi/4.8.4/../../../../arm-none-eabi/lib/armv7e-m\libc.a(lib_a-dtoa.o)
                                                  .pio/build/lptm4c1294ncpdt/src/Drivers/W-Link/cJSON/cJSON.o
__aeabi_dcmpeq                                    c:/users/user/.platformio/packages/toolchain-gccarmnoneeabi@1.40804.0/bin/../lib/gcc/arm-none-eabi/4.8.4/armv7e-m\libgcc.a(_arm_cmpdf2.o)
                                                  c:/users/user/.platformio/packages/toolchain-gccarmnoneeabi@1.40804.0/bin/../lib/gcc/arm-none-eabi/4.8.4/../../../../arm-none-eabi/lib/armv7e-m\libm.a(lib_a-w_pow.o)
                                                  c:/users/user/.platformio/packages/toolchain-gccarmnoneeabi@1.40804.0/bin/../lib/gcc/arm-none-eabi/4.8.4/../../../../arm-none-eabi/lib/armv7e-m\libc.a(lib_a-dtoa.o)
                                                  c:/users/user/.platformio/packages/toolchain-gccarmnoneeabi@1.40804.0/bin/../lib/gcc/arm-none-eabi/4.8.4/../../../../arm-none-eabi/lib/armv7e-m\libc.a(lib_a-svfprintf.o)
                                                  .pio/build/lptm4c1294ncpdt/src/Drivers/W-Link/cJSON/cJSON.o
__aeabi_dcmpge                                    c:/users/user/.platformio/packages/toolchain-gccarmnoneeabi@1.40804.0/bin/../lib/gcc/arm-none-eabi/4.8.4/armv7e-m\libgcc.a(_arm_cmpdf2.o)
                                                  c:/users/user/.platformio/packages/toolchain-gccarmnoneeabi@1.40804.0/bin/../lib/gcc/arm-none-eabi/4.8.4/../../../../arm-none-eabi/lib/armv7e-m\libc.a(lib_a-dtoa.o)
                                                  .pio/build/lptm4c1294ncpdt/src/Drivers/W-Link/cJSON/cJSON.o
__aeabi_dcmpgt                                    c:/users/user/.platformio/packages/toolchain-gccarmnoneeabi@1.40804.0/bin/../lib/gcc/arm-none-eabi/4.8.4/armv7e-m\libgcc.a(_arm_cmpdf2.o)
                                                  c:/users/user/.platformio/packages/toolchain-gccarmnoneeabi@1.40804.0/bin/../lib/gcc/arm-none-eabi/4.8.4/../../../../arm-none-eabi/lib/armv7e-m\libm.a(lib_a-e_pow.o)
                                                  c:/users/user/.platformio/packages/toolchain-gccarmnoneeabi@1.40804.0/bin/../lib/gcc/arm-none-eabi/4.8.4/../../../../arm-none-eabi/lib/armv7e-m\libc.a(lib_a-dtoa.o)
                                                  .pio/build/lptm4c1294ncpdt/src/Drivers/W-Link/cJSON/cJSON.o
__aeabi_dcmple                                    c:/users/user/.platformio/packages/toolchain-gccarmnoneeabi@1.40804.0/bin/../lib/gcc/arm-none-eabi/4.8.4/armv7e-m\libgcc.a(_arm_cmpdf2.o)
                                                  c:/users/user/.platformio/packages/toolchain-gccarmnoneeabi@1.40804.0/bin/../lib/gcc/arm-none-eabi/4.8.4/../../../../arm-none-eabi/lib/armv7e-m\libm.a(lib_a-e_pow.o)
                                                  .pio/build/lptm4c1294ncpdt/src/Drivers/W-Link/cJSON/cJSON.o
__aeabi_dcmplt                                    c:/users/user/.platformio/packages/toolchain-gccarmnoneeabi@1.40804.0/bin/../lib/gcc/arm-none-eabi/4.8.4/armv7e-m\libgcc.a(_arm_cmpdf2.o)
                                                  c:/users/user/.platformio/packages/toolchain-gccarmnoneeabi@1.40804.0/bin/../lib/gcc/arm-none-eabi/4.8.4/../../../../arm-none-eabi/lib/armv7e-m\libm.a(lib_a-w_pow.o)
                                                  c:/users/user/.platformio/packages/toolchain-gccarmnoneeabi@1.40804.0/bin/../lib/gcc/arm-none-eabi/4.8.4/../../../../arm-none-eabi/lib/armv7e-m\libc.a(lib_a-dtoa.o)
                                                  c:/users/user/.platformio/packages/toolchain-gccarmnoneeabi@1.40804.0/bin/../lib/gcc/arm-none-eabi/4.8.4/../../../../arm-none-eabi/lib/armv7e-m\libc.a(lib_a-svfprintf.o)
                                                  .pio/build/lptm4c1294ncpdt/src/Drivers/W-Link/cJSON/cJSON.o
__aeabi_ddiv                                      c:/users/user/.platformio/packages/toolchain-gccarmnoneeabi@1.40804.0/bin/../lib/gcc/arm-none-eabi/4.8.4/armv7e-m\libgcc.a(_arm_muldivdf3.o)
                                                  c:/users/user/.platformio/packages/toolchain-gccarmnoneeabi@1.40804.0/bin/../lib/gcc/arm-none-eabi/4.8.4/../../../../arm-none-eabi/lib/armv7e-m\libm.a(lib_a-e_sqrt.o)
                                                  c:/users/user/.platformio/packages/toolchain-gccarmnoneeabi@1.40804.0/bin/../lib/gcc/arm-none-eabi/4.8.4/../../../../arm-none-eabi/lib/armv7e-m\libm.a(lib_a-e_pow.o)
                                                  c:/users/user/.platformio/packages/toolchain-gccarmnoneeabi@1.40804.0/bin/../lib/gcc/arm-none-eabi/4.8.4/../../../../arm-none-eabi/lib/armv7e-m\libm.a(lib_a-w_pow.o)
                                                  c:/users/user/.platformio/packages/toolchain-gccarmnoneeabi@1.40804.0/bin/../lib/gcc/arm-none-eabi/4.8.4/../../../../arm-none-eabi/lib/armv7e-m\libc.a(lib_a-mprec.o)
                                                  c:/users/user/.platformio/packages/toolchain-gccarmnoneeabi@1.40804.0/bin/../lib/gcc/arm-none-eabi/4.8.4/../../../../arm-none-eabi/lib/armv7e-m\libc.a(lib_a-dtoa.o)
__aeabi_dmul                                      c:/users/user/.platformio/packages/toolchain-gccarmnoneeabi@1.40804.0/bin/../lib/gcc/arm-none-eabi/4.8.4/armv7e-m\libgcc.a(_arm_muldivdf3.o)
                                                  c:/users/user/.platformio/packages/toolchain-gccarmnoneeabi@1.40804.0/bin/../lib/gcc/arm-none-eabi/4.8.4/../../../../arm-none-eabi/lib/armv7e-m\libm.a(lib_a-s_scalbn.o)
                                                  c:/users/user/.platformio/packages/toolchain-gccarmnoneeabi@1.40804.0/bin/../lib/gcc/arm-none-eabi/4.8.4/../../../../arm-none-eabi/lib/armv7e-m\libm.a(lib_a-e_sqrt.o)
                                                  c:/users/user/.platformio/packages/toolchain-gccarmnoneeabi@1.40804.0/bin/../lib/gcc/arm-none-eabi/4.8.4/../../../../arm-none-eabi/lib/armv7e-m\libm.a(lib_a-e_pow.o)
                                                  c:/users/user/.platformio/packages/toolchain-gccarmnoneeabi@1.40804.0/bin/../lib/gcc/arm-none-eabi/4.8.4/../../../../arm-none-eabi/lib/armv7e-m\libm.a(lib_a-w_pow.o)
                                                  c:/users/user/.platformio/packages/toolchain-gccarmnoneeabi@1.40804.0/bin/../lib/gcc/arm-none-eabi/4.8.4/../../../../arm-none-eabi/lib/armv7e-m\libc.a(lib_a-mprec.o)
                                                  c:/users/user/.platformio/packages/toolchain-gccarmnoneeabi@1.40804.0/bin/../lib/gcc/arm-none-eabi/4.8.4/../../../../arm-none-eabi/lib/armv7e-m\libc.a(lib_a-dtoa.o)
                                                  .pio/build/lptm4c1294ncpdt/src/Drivers/W-Link/cJSON/cJSON.o
                                                  .pio/build/lptm4c1294ncpdt/src/Drivers/W-Link/Misc/ftoa.o
__aeabi_drsub                                     c:/users/user/.platformio/packages/toolchain-gccarmnoneeabi@1.40804.0/bin/../lib/gcc/arm-none-eabi/4.8.4/armv7e-m\libgcc.a(_arm_addsubdf3.o)
__aeabi_dsub                                      c:/users/user/.platformio/packages/toolchain-gccarmnoneeabi@1.40804.0/bin/../lib/gcc/arm-none-eabi/4.8.4/armv7e-m\libgcc.a(_arm_addsubdf3.o)
                                                  c:/users/user/.platformio/packages/toolchain-gccarmnoneeabi@1.40804.0/bin/../lib/gcc/arm-none-eabi/4.8.4/../../../../arm-none-eabi/lib/armv7e-m\libm.a(lib_a-s_rint.o)
                                                  c:/users/user/.platformio/packages/toolchain-gccarmnoneeabi@1.40804.0/bin/../lib/gcc/arm-none-eabi/4.8.4/../../../../arm-none-eabi/lib/armv7e-m\libm.a(lib_a-e_sqrt.o)
                                                  c:/users/user/.platformio/packages/toolchain-gccarmnoneeabi@1.40804.0/bin/../lib/gcc/arm-none-eabi/4.8.4/../../../../arm-none-eabi/lib/armv7e-m\libm.a(lib_a-e_pow.o)
                                                  c:/users/user/.platformio/packages/toolchain-gccarmnoneeabi@1.40804.0/bin/../lib/gcc/arm-none-eabi/4.8.4/../../../../arm-none-eabi/lib/armv7e-m\libc.a(lib_a-dtoa.o)
                                                  .pio/build/lptm4c1294ncpdt/src/Drivers/W-Link/cJSON/cJSON.o
                                                  .pio/build/lptm4c1294ncpdt/src/Drivers/W-Link/Misc/ftoa.o
__aeabi_f2d                                       c:/users/user/.platformio/packages/toolchain-gccarmnoneeabi@1.40804.0/bin/../lib/gcc/arm-none-eabi/4.8.4/armv7e-m\libgcc.a(_arm_addsubdf3.o)
                                                  .pio/build/lptm4c1294ncpdt/src/Drivers/W-Link/cJSON/cJSON.o
__aeabi_i2d                                       c:/users/user/.platformio/packages/toolchain-gccarmnoneeabi@1.40804.0/bin/../lib/gcc/arm-none-eabi/4.8.4/armv7e-m\libgcc.a(_arm_addsubdf3.o)
                                                  c:/users/user/.platformio/packages/toolchain-gccarmnoneeabi@1.40804.0/bin/../lib/gcc/arm-none-eabi/4.8.4/../../../../arm-none-eabi/lib/armv7e-m\libm.a(lib_a-e_pow.o)
                                                  c:/users/user/.platformio/packages/toolchain-gccarmnoneeabi@1.40804.0/bin/../lib/gcc/arm-none-eabi/4.8.4/../../../../arm-none-eabi/lib/armv7e-m\libc.a(lib_a-dtoa.o)
                                                  .pio/build/lptm4c1294ncpdt/src/Drivers/W-Link/cJSON/cJSON.o
                                                  .pio/build/lptm4c1294ncpdt/src/Drivers/W-Link/Misc/ftoa.o
                                                  .pio/build/lptm4c1294ncpdt/src/APP/LED_PWM_APP.o
__aeabi_idiv0                                     c:/users/user/.platformio/packages/toolchain-gccarmnoneeabi@1.40804.0/bin/../lib/gcc/arm-none-eabi/4.8.4/armv7e-m\libgcc.a(_dvmd_tls.o)
__aeabi_l2d                                       c:/users/user/.platformio/packages/toolchain-gccarmnoneeabi@1.40804.0/bin/../lib/gcc/arm-none-eabi/4.8.4/armv7e-m\libgcc.a(_arm_addsubdf3.o)
__aeabi_ldiv0                                     c:/users/user/.platformio/packages/toolchain-gccarmnoneeabi@1.40804.0/bin/../lib/gcc/arm-none-eabi/4.8.4/armv7e-m\libgcc.a(_dvmd_tls.o)
                                                  c:/users/user/.platformio/packages/toolchain-gccarmnoneeabi@1.40804.0/bin/../lib/gcc/arm-none-eabi/4.8.4/armv7e-m\libgcc.a(_aeabi_uldivmod.o)
__aeabi_ui2d                                      c:/users/user/.platformio/packages/toolchain-gccarmnoneeabi@1.40804.0/bin/../lib/gcc/arm-none-eabi/4.8.4/armv7e-m\libgcc.a(_arm_addsubdf3.o)
                                                  c:/users/user/.platformio/packages/toolchain-gccarmnoneeabi@1.40804.0/bin/../lib/gcc/arm-none-eabi/4.8.4/../../../../arm-none-eabi/lib/armv7e-m\libc.a(lib_a-dtoa.o)
                                                  .pio/build/lptm4c1294ncpdt/src/APP/LED_PWM_APP.o
__aeabi_ul2d                                      c:/users/user/.platformio/packages/toolchain-gccarmnoneeabi@1.40804.0/bin/../lib/gcc/arm-none-eabi/4.8.4/armv7e-m\libgcc.a(_arm_addsubdf3.o)
__aeabi_uldivmod                                  c:/users/user/.platformio/packages/toolchain-gccarmnoneeabi@1.40804.0/bin/../lib/gcc/arm-none-eabi/4.8.4/armv7e-m\libgcc.a(_aeabi_uldivmod.o)
                                                  c:/users/user/.platformio/packages/toolchain-gccarmnoneeabi@1.40804.0/bin/../lib/gcc/arm-none-eabi/4.8.4/../../../../arm-none-eabi/lib/armv7e-m\libc.a(lib_a-svfiprintf.o)
                                                  c:/users/user/.platformio/packages/toolchain-gccarmnoneeabi@1.40804.0/bin/../lib/gcc/arm-none-eabi/4.8.4/../../../../arm-none-eabi/lib/armv7e-m\libc.a(lib_a-svfprintf.o)
__any_on                                          c:/users/user/.platformio/packages/toolchain-gccarmnoneeabi@1.40804.0/bin/../lib/gcc/arm-none-eabi/4.8.4/../../../../arm-none-eabi/lib/armv7e-m\libc.a(lib_a-mprec.o)
__b2d                                             c:/users/user/.platformio/packages/toolchain-gccarmnoneeabi@1.40804.0/bin/../lib/gcc/arm-none-eabi/4.8.4/../../../../arm-none-eabi/lib/armv7e-m\libc.a(lib_a-mprec.o)
__cmpdf2                                          c:/users/user/.platformio/packages/toolchain-gccarmnoneeabi@1.40804.0/bin/../lib/gcc/arm-none-eabi/4.8.4/armv7e-m\libgcc.a(_arm_cmpdf2.o)
__copybits                                        c:/users/user/.platformio/packages/toolchain-gccarmnoneeabi@1.40804.0/bin/../lib/gcc/arm-none-eabi/4.8.4/../../../../arm-none-eabi/lib/armv7e-m\libc.a(lib_a-mprec.o)
__ctype_ptr__                                     c:/users/user/.platformio/packages/toolchain-gccarmnoneeabi@1.40804.0/bin/../lib/gcc/arm-none-eabi/4.8.4/../../../../arm-none-eabi/lib/armv7e-m\libc.a(lib_a-ctype_.o)
                                                  c:/users/user/.platformio/packages/toolchain-gccarmnoneeabi@1.40804.0/bin/../lib/gcc/arm-none-eabi/4.8.4/../../../../arm-none-eabi/lib/armv7e-m\libc.a(lib_a-strtol.o)
                                                  c:/users/user/.platformio/packages/toolchain-gccarmnoneeabi@1.40804.0/bin/../lib/gcc/arm-none-eabi/4.8.4/../../../../arm-none-eabi/lib/armv7e-m\libc.a(lib_a-isspace.o)
                                                  .pio/build/lptm4c1294ncpdt/src/NeonRTOS/lwip/core/ipv4/ip4_addr.o
                                                  .pio/build/lptm4c1294ncpdt/src/NeonRTOS/lwip/core/dns.o
                                                  .pio/build/lptm4c1294ncpdt/src/Drivers/W-Link/cJSON/cJSON.o
__d2b                                             c:/users/user/.platformio/packages/toolchain-gccarmnoneeabi@1.40804.0/bin/../lib/gcc/arm-none-eabi/4.8.4/../../../../arm-none-eabi/lib/armv7e-m\libc.a(lib_a-mprec.o)
                                                  c:/users/user/.platformio/packages/toolchain-gccarmnoneeabi@1.40804.0/bin/../lib/gcc/arm-none-eabi/4.8.4/../../../../arm-none-eabi/lib/armv7e-m\libc.a(lib_a-dtoa.o)
__divdf3                                          c:/users/user/.platformio/packages/toolchain-gccarmnoneeabi@1.40804.0/bin/../lib/gcc/arm-none-eabi/4.8.4/armv7e-m\libgcc.a(_arm_muldivdf3.o)
__divdi3                                          c:/users/user/.platformio/packages/toolchain-gccarmnoneeabi@1.40804.0/bin/../lib/gcc/arm-none-eabi/4.8.4/armv7e-m\libgcc.a(_divdi3.o)
                                                  c:/users/user/.platformio/packages/toolchain-gccarmnoneeabi@1.40804.0/bin/../lib/gcc/arm-none-eabi/4.8.4/armv7e-m\libgcc.a(bpabi.o)
__eqdf2                                           c:/users/user/.platformio/packages/toolchain-gccarmnoneeabi@1.40804.0/bin/../lib/gcc/arm-none-eabi/4.8.4/armv7e-m\libgcc.a(_arm_cmpdf2.o)
__errno                                           c:/users/user/.platformio/packages/toolchain-gccarmnoneeabi@1.40804.0/bin/../lib/gcc/arm-none-eabi/4.8.4/../../../../arm-none-eabi/lib/armv7e-m\libc.a(lib_a-errno.o)
                                                  c:/users/user/.platformio/packages/toolchain-gccarmnoneeabi@1.40804.0/bin/../lib/gcc/arm-none-eabi/4.8.4/../../../../arm-none-eabi/lib/armv7e-m\libm.a(lib_a-w_pow.o)
__extendsfdf2                                     c:/users/user/.platformio/packages/toolchain-gccarmnoneeabi@1.40804.0/bin/../lib/gcc/arm-none-eabi/4.8.4/armv7e-m\libgcc.a(_arm_addsubdf3.o)
__fdlib_version                                   c:/users/user/.platformio/packages/toolchain-gccarmnoneeabi@1.40804.0/bin/../lib/gcc/arm-none-eabi/4.8.4/../../../../arm-none-eabi/lib/armv7e-m\libm.a(lib_a-s_lib_ver.o)
                                                  c:/users/user/.platformio/packages/toolchain-gccarmnoneeabi@1.40804.0/bin/../lib/gcc/arm-none-eabi/4.8.4/../../../../arm-none-eabi/lib/armv7e-m\libm.a(lib_a-w_pow.o)
__fixdfsi                                         c:/users/user/.platformio/packages/toolchain-gccarmnoneeabi@1.40804.0/bin/../lib/gcc/arm-none-eabi/4.8.4/armv7e-m\libgcc.a(_arm_fixdfsi.o)
__floatdidf                                       c:/users/user/.platformio/packages/toolchain-gccarmnoneeabi@1.40804.0/bin/../lib/gcc/arm-none-eabi/4.8.4/armv7e-m\libgcc.a(_arm_addsubdf3.o)
__floatsidf                                       c:/users/user/.platformio/packages/toolchain-gccarmnoneeabi@1.40804.0/bin/../lib/gcc/arm-none-eabi/4.8.4/armv7e-m\libgcc.a(_arm_addsubdf3.o)
__floatundidf                                     c:/users/user/.platformio/packages/toolchain-gccarmnoneeabi@1.40804.0/bin/../lib/gcc/arm-none-eabi/4.8.4/armv7e-m\libgcc.a(_arm_addsubdf3.o)
__floatunsidf                                     c:/users/user/.platformio/packages/toolchain-gccarmnoneeabi@1.40804.0/bin/../lib/gcc/arm-none-eabi/4.8.4/armv7e-m\libgcc.a(_arm_addsubdf3.o)
__fpclassifyd                                     c:/users/user/.platformio/packages/toolchain-gccarmnoneeabi@1.40804.0/bin/../lib/gcc/arm-none-eabi/4.8.4/../../../../arm-none-eabi/lib/armv7e-m\libc.a(lib_a-s_fpclassify.o)
                                                  c:/users/user/.platformio/packages/toolchain-gccarmnoneeabi@1.40804.0/bin/../lib/gcc/arm-none-eabi/4.8.4/../../../../arm-none-eabi/lib/armv7e-m\libm.a(lib_a-w_pow.o)
                                                  c:/users/user/.platformio/packages/toolchain-gccarmnoneeabi@1.40804.0/bin/../lib/gcc/arm-none-eabi/4.8.4/../../../../arm-none-eabi/lib/armv7e-m\libc.a(lib_a-svfprintf.o)
                                                  .pio/build/lptm4c1294ncpdt/src/Drivers/W-Link/cJSON/cJSON.o
__gedf2                                           c:/users/user/.platformio/packages/toolchain-gccarmnoneeabi@1.40804.0/bin/../lib/gcc/arm-none-eabi/4.8.4/armv7e-m\libgcc.a(_arm_cmpdf2.o)
__gnu_ldivmod_helper                              c:/users/user/.platformio/packages/toolchain-gccarmnoneeabi@1.40804.0/bin/../lib/gcc/arm-none-eabi/4.8.4/armv7e-m\libgcc.a(bpabi.o)
__gnu_uldivmod_helper                             c:/users/user/.platformio/packages/toolchain-gccarmnoneeabi@1.40804.0/bin/../lib/gcc/arm-none-eabi/4.8.4/armv7e-m\libgcc.a(bpabi.o)
                                                  c:/users/user/.platformio/packages/toolchain-gccarmnoneeabi@1.40804.0/bin/../lib/gcc/arm-none-eabi/4.8.4/armv7e-m\libgcc.a(_aeabi_uldivmod.o)
__gtdf2                                           c:/users/user/.platformio/packages/toolchain-gccarmnoneeabi@1.40804.0/bin/../lib/gcc/arm-none-eabi/4.8.4/armv7e-m\libgcc.a(_arm_cmpdf2.o)
__hi0bits                                         c:/users/user/.platformio/packages/toolchain-gccarmnoneeabi@1.40804.0/bin/../lib/gcc/arm-none-eabi/4.8.4/../../../../arm-none-eabi/lib/armv7e-m\libc.a(lib_a-mprec.o)
                                                  c:/users/user/.platformio/packages/toolchain-gccarmnoneeabi@1.40804.0/bin/../lib/gcc/arm-none-eabi/4.8.4/../../../../arm-none-eabi/lib/armv7e-m\libc.a(lib_a-dtoa.o)
__i2b                                             c:/users/user/.platformio/packages/toolchain-gccarmnoneeabi@1.40804.0/bin/../lib/gcc/arm-none-eabi/4.8.4/../../../../arm-none-eabi/lib/armv7e-m\libc.a(lib_a-mprec.o)
                                                  c:/users/user/.platformio/packages/toolchain-gccarmnoneeabi@1.40804.0/bin/../lib/gcc/arm-none-eabi/4.8.4/../../../../arm-none-eabi/lib/armv7e-m\libc.a(lib_a-dtoa.o)
__ieee754_pow                                     c:/users/user/.platformio/packages/toolchain-gccarmnoneeabi@1.40804.0/bin/../lib/gcc/arm-none-eabi/4.8.4/../../../../arm-none-eabi/lib/armv7e-m\libm.a(lib_a-e_pow.o)
                                                  c:/users/user/.platformio/packages/toolchain-gccarmnoneeabi@1.40804.0/bin/../lib/gcc/arm-none-eabi/4.8.4/../../../../arm-none-eabi/lib/armv7e-m\libm.a(lib_a-w_pow.o)
__ieee754_sqrt                                    c:/users/user/.platformio/packages/toolchain-gccarmnoneeabi@1.40804.0/bin/../lib/gcc/arm-none-eabi/4.8.4/../../../../arm-none-eabi/lib/armv7e-m\libm.a(lib_a-e_sqrt.o)
                                                  c:/users/user/.platformio/packages/toolchain-gccarmnoneeabi@1.40804.0/bin/../lib/gcc/arm-none-eabi/4.8.4/../../../../arm-none-eabi/lib/armv7e-m\libm.a(lib_a-e_pow.o)
__ledf2                                           c:/users/user/.platformio/packages/toolchain-gccarmnoneeabi@1.40804.0/bin/../lib/gcc/arm-none-eabi/4.8.4/armv7e-m\libgcc.a(_arm_cmpdf2.o)
__lo0bits                                         c:/users/user/.platformio/packages/toolchain-gccarmnoneeabi@1.40804.0/bin/../lib/gcc/arm-none-eabi/4.8.4/../../../../arm-none-eabi/lib/armv7e-m\libc.a(lib_a-mprec.o)
__locale_charset                                  c:/users/user/.platformio/packages/toolchain-gccarmnoneeabi@1.40804.0/bin/../lib/gcc/arm-none-eabi/4.8.4/../../../../arm-none-eabi/lib/armv7e-m\libc.a(lib_a-locale.o)
__locale_cjk_lang                                 c:/users/user/.platformio/packages/toolchain-gccarmnoneeabi@1.40804.0/bin/../lib/gcc/arm-none-eabi/4.8.4/../../../../arm-none-eabi/lib/armv7e-m\libc.a(lib_a-locale.o)
__locale_mb_cur_max                               c:/users/user/.platformio/packages/toolchain-gccarmnoneeabi@1.40804.0/bin/../lib/gcc/arm-none-eabi/4.8.4/../../../../arm-none-eabi/lib/armv7e-m\libc.a(lib_a-locale.o)
__locale_msgcharset                               c:/users/user/.platformio/packages/toolchain-gccarmnoneeabi@1.40804.0/bin/../lib/gcc/arm-none-eabi/4.8.4/../../../../arm-none-eabi/lib/armv7e-m\libc.a(lib_a-locale.o)
__lshift                                          c:/users/user/.platformio/packages/toolchain-gccarmnoneeabi@1.40804.0/bin/../lib/gcc/arm-none-eabi/4.8.4/../../../../arm-none-eabi/lib/armv7e-m\libc.a(lib_a-mprec.o)
                                                  c:/users/user/.platformio/packages/toolchain-gccarmnoneeabi@1.40804.0/bin/../lib/gcc/arm-none-eabi/4.8.4/../../../../arm-none-eabi/lib/armv7e-m\libc.a(lib_a-dtoa.o)
__ltdf2                                           c:/users/user/.platformio/packages/toolchain-gccarmnoneeabi@1.40804.0/bin/../lib/gcc/arm-none-eabi/4.8.4/armv7e-m\libgcc.a(_arm_cmpdf2.o)
__mb_cur_max                                      c:/users/user/.platformio/packages/toolchain-gccarmnoneeabi@1.40804.0/bin/../lib/gcc/arm-none-eabi/4.8.4/../../../../arm-none-eabi/lib/armv7e-m\libc.a(lib_a-locale.o)
__mcmp                                            c:/users/user/.platformio/packages/toolchain-gccarmnoneeabi@1.40804.0/bin/../lib/gcc/arm-none-eabi/4.8.4/../../../../arm-none-eabi/lib/armv7e-m\libc.a(lib_a-mprec.o)
                                                  c:/users/user/.platformio/packages/toolchain-gccarmnoneeabi@1.40804.0/bin/../lib/gcc/arm-none-eabi/4.8.4/../../../../arm-none-eabi/lib/armv7e-m\libc.a(lib_a-dtoa.o)
__mdiff                                           c:/users/user/.platformio/packages/toolchain-gccarmnoneeabi@1.40804.0/bin/../lib/gcc/arm-none-eabi/4.8.4/../../../../arm-none-eabi/lib/armv7e-m\libc.a(lib_a-mprec.o)
                                                  c:/users/user/.platformio/packages/toolchain-gccarmnoneeabi@1.40804.0/bin/../lib/gcc/arm-none-eabi/4.8.4/../../../../arm-none-eabi/lib/armv7e-m\libc.a(lib_a-dtoa.o)
__mlocale_changed                                 c:/users/user/.platformio/packages/toolchain-gccarmnoneeabi@1.40804.0/bin/../lib/gcc/arm-none-eabi/4.8.4/../../../../arm-none-eabi/lib/armv7e-m\libc.a(lib_a-locale.o)
__mprec_bigtens                                   c:/users/user/.platformio/packages/toolchain-gccarmnoneeabi@1.40804.0/bin/../lib/gcc/arm-none-eabi/4.8.4/../../../../arm-none-eabi/lib/armv7e-m\libc.a(lib_a-mprec.o)
                                                  c:/users/user/.platformio/packages/toolchain-gccarmnoneeabi@1.40804.0/bin/../lib/gcc/arm-none-eabi/4.8.4/../../../../arm-none-eabi/lib/armv7e-m\libc.a(lib_a-dtoa.o)
__mprec_tens                                      c:/users/user/.platformio/packages/toolchain-gccarmnoneeabi@1.40804.0/bin/../lib/gcc/arm-none-eabi/4.8.4/../../../../arm-none-eabi/lib/armv7e-m\libc.a(lib_a-mprec.o)
                                                  c:/users/user/.platformio/packages/toolchain-gccarmnoneeabi@1.40804.0/bin/../lib/gcc/arm-none-eabi/4.8.4/../../../../arm-none-eabi/lib/armv7e-m\libc.a(lib_a-dtoa.o)
__mprec_tinytens                                  c:/users/user/.platformio/packages/toolchain-gccarmnoneeabi@1.40804.0/bin/../lib/gcc/arm-none-eabi/4.8.4/../../../../arm-none-eabi/lib/armv7e-m\libc.a(lib_a-mprec.o)
__muldf3                                          c:/users/user/.platformio/packages/toolchain-gccarmnoneeabi@1.40804.0/bin/../lib/gcc/arm-none-eabi/4.8.4/armv7e-m\libgcc.a(_arm_muldivdf3.o)
__multadd                                         c:/users/user/.platformio/packages/toolchain-gccarmnoneeabi@1.40804.0/bin/../lib/gcc/arm-none-eabi/4.8.4/../../../../arm-none-eabi/lib/armv7e-m\libc.a(lib_a-mprec.o)
                                                  c:/users/user/.platformio/packages/toolchain-gccarmnoneeabi@1.40804.0/bin/../lib/gcc/arm-none-eabi/4.8.4/../../../../arm-none-eabi/lib/armv7e-m\libc.a(lib_a-dtoa.o)
__multiply                                        c:/users/user/.platformio/packages/toolchain-gccarmnoneeabi@1.40804.0/bin/../lib/gcc/arm-none-eabi/4.8.4/../../../../arm-none-eabi/lib/armv7e-m\libc.a(lib_a-mprec.o)
                                                  c:/users/user/.platformio/packages/toolchain-gccarmnoneeabi@1.40804.0/bin/../lib/gcc/arm-none-eabi/4.8.4/../../../../arm-none-eabi/lib/armv7e-m\libc.a(lib_a-dtoa.o)
__nedf2                                           c:/users/user/.platformio/packages/toolchain-gccarmnoneeabi@1.40804.0/bin/../lib/gcc/arm-none-eabi/4.8.4/armv7e-m\libgcc.a(_arm_cmpdf2.o)
__nlocale_changed                                 c:/users/user/.platformio/packages/toolchain-gccarmnoneeabi@1.40804.0/bin/../lib/gcc/arm-none-eabi/4.8.4/../../../../arm-none-eabi/lib/armv7e-m\libc.a(lib_a-locale.o)
__pow5mult                                        c:/users/user/.platformio/packages/toolchain-gccarmnoneeabi@1.40804.0/bin/../lib/gcc/arm-none-eabi/4.8.4/../../../../arm-none-eabi/lib/armv7e-m\libc.a(lib_a-mprec.o)
                                                  c:/users/user/.platformio/packages/toolchain-gccarmnoneeabi@1.40804.0/bin/../lib/gcc/arm-none-eabi/4.8.4/../../../../arm-none-eabi/lib/armv7e-m\libc.a(lib_a-dtoa.o)
__ratio                                           c:/users/user/.platformio/packages/toolchain-gccarmnoneeabi@1.40804.0/bin/../lib/gcc/arm-none-eabi/4.8.4/../../../../arm-none-eabi/lib/armv7e-m\libc.a(lib_a-mprec.o)
__s2b                                             c:/users/user/.platformio/packages/toolchain-gccarmnoneeabi@1.40804.0/bin/../lib/gcc/arm-none-eabi/4.8.4/../../../../arm-none-eabi/lib/armv7e-m\libc.a(lib_a-mprec.o)
__ssprint_r                                       c:/users/user/.platformio/packages/toolchain-gccarmnoneeabi@1.40804.0/bin/../lib/gcc/arm-none-eabi/4.8.4/../../../../arm-none-eabi/lib/armv7e-m\libc.a(lib_a-svfiprintf.o)
                                                  c:/users/user/.platformio/packages/toolchain-gccarmnoneeabi@1.40804.0/bin/../lib/gcc/arm-none-eabi/4.8.4/../../../../arm-none-eabi/lib/armv7e-m\libc.a(lib_a-svfprintf.o)
__subdf3                                          c:/users/user/.platformio/packages/toolchain-gccarmnoneeabi@1.40804.0/bin/../lib/gcc/arm-none-eabi/4.8.4/armv7e-m\libgcc.a(_arm_addsubdf3.o)
__udivdi3                                         c:/users/user/.platformio/packages/toolchain-gccarmnoneeabi@1.40804.0/bin/../lib/gcc/arm-none-eabi/4.8.4/armv7e-m\libgcc.a(_udivdi3.o)
                                                  c:/users/user/.platformio/packages/toolchain-gccarmnoneeabi@1.40804.0/bin/../lib/gcc/arm-none-eabi/4.8.4/armv7e-m\libgcc.a(bpabi.o)
__ulp                                             c:/users/user/.platformio/packages/toolchain-gccarmnoneeabi@1.40804.0/bin/../lib/gcc/arm-none-eabi/4.8.4/../../../../arm-none-eabi/lib/armv7e-m\libc.a(lib_a-mprec.o)
__wrap__calloc_r                                  .pio/build/lptm4c1294ncpdt/src/wrap_malloc.o
                                                  c:/users/user/.platformio/packages/toolchain-gccarmnoneeabi@1.40804.0/bin/../lib/gcc/arm-none-eabi/4.8.4/../../../../arm-none-eabi/lib/armv7e-m\libc.a(lib_a-mprec.o)
__wrap__free_r                                    .pio/build/lptm4c1294ncpdt/src/wrap_malloc.o
                                                  c:/users/user/.platformio/packages/toolchain-gccarmnoneeabi@1.40804.0/bin/../lib/gcc/arm-none-eabi/4.8.4/../../../../arm-none-eabi/lib/armv7e-m\libc.a(lib_a-svfiprintf.o)
                                                  c:/users/user/.platformio/packages/toolchain-gccarmnoneeabi@1.40804.0/bin/../lib/gcc/arm-none-eabi/4.8.4/../../../../arm-none-eabi/lib/armv7e-m\libc.a(lib_a-reent.o)
__wrap__malloc_r                                  .pio/build/lptm4c1294ncpdt/src/wrap_malloc.o
                                                  c:/users/user/.platformio/packages/toolchain-gccarmnoneeabi@1.40804.0/bin/../lib/gcc/arm-none-eabi/4.8.4/../../../../arm-none-eabi/lib/armv7e-m\libc.a(lib_a-svfiprintf.o)
                                                  c:/users/user/.platformio/packages/toolchain-gccarmnoneeabi@1.40804.0/bin/../lib/gcc/arm-none-eabi/4.8.4/../../../../arm-none-eabi/lib/armv7e-m\libc.a(lib_a-svfprintf.o)
__wrap__realloc_r                                 .pio/build/lptm4c1294ncpdt/src/wrap_malloc.o
                                                  c:/users/user/.platformio/packages/toolchain-gccarmnoneeabi@1.40804.0/bin/../lib/gcc/arm-none-eabi/4.8.4/../../../../arm-none-eabi/lib/armv7e-m\libc.a(lib_a-svfiprintf.o)
__wrap_calloc                                     .pio/build/lptm4c1294ncpdt/src/wrap_malloc.o
__wrap_free                                       .pio/build/lptm4c1294ncpdt/src/wrap_malloc.o
                                                  .pio/build/lptm4c1294ncpdt/src/Drivers/W-Link/cJSON/cJSON.o
__wrap_malloc                                     .pio/build/lptm4c1294ncpdt/src/wrap_malloc.o
                                                  .pio/build/lptm4c1294ncpdt/src/Drivers/W-Link/cJSON/cJSON.o
__wrap_realloc                                    .pio/build/lptm4c1294ncpdt/src/wrap_malloc.o
_atoi_r                                           c:/users/user/.platformio/packages/toolchain-gccarmnoneeabi@1.40804.0/bin/../lib/gcc/arm-none-eabi/4.8.4/../../../../arm-none-eabi/lib/armv7e-m\libc.a(lib_a-atoi.o)
_bss                                              .pio/build/lptm4c1294ncpdt/src/Drivers/soc/startup_gcc.o
_ctype_                                           c:/users/user/.platformio/packages/toolchain-gccarmnoneeabi@1.40804.0/bin/../lib/gcc/arm-none-eabi/4.8.4/../../../../arm-none-eabi/lib/armv7e-m\libc.a(lib_a-ctype_.o)
_data                                             .pio/build/lptm4c1294ncpdt/src/Drivers/soc/startup_gcc.o
_dtoa_r                                           c:/users/user/.platformio/packages/toolchain-gccarmnoneeabi@1.40804.0/bin/../lib/gcc/arm-none-eabi/4.8.4/../../../../arm-none-eabi/lib/armv7e-m\libc.a(lib_a-dtoa.o)
                                                  c:/users/user/.platformio/packages/toolchain-gccarmnoneeabi@1.40804.0/bin/../lib/gcc/arm-none-eabi/4.8.4/../../../../arm-none-eabi/lib/armv7e-m\libc.a(lib_a-svfprintf.o)
_ebss                                             .pio/build/lptm4c1294ncpdt/src/Drivers/soc/startup_gcc.o
_edata                                            .pio/build/lptm4c1294ncpdt/src/Drivers/soc/startup_gcc.o
_global_impure_ptr                                c:/users/user/.platformio/packages/toolchain-gccarmnoneeabi@1.40804.0/bin/../lib/gcc/arm-none-eabi/4.8.4/../../../../arm-none-eabi/lib/armv7e-m\libc.a(lib_a-impure.o)
_impure_ptr                                       c:/users/user/.platformio/packages/toolchain-gccarmnoneeabi@1.40804.0/bin/../lib/gcc/arm-none-eabi/4.8.4/../../../../arm-none-eabi/lib/armv7e-m\libc.a(lib_a-impure.o)
                                                  c:/users/user/.platformio/packages/toolchain-gccarmnoneeabi@1.40804.0/bin/../lib/gcc/arm-none-eabi/4.8.4/../../../../arm-none-eabi/lib/armv7e-m\libc.a(lib_a-errno.o)
                                                  c:/users/user/.platformio/packages/toolchain-gccarmnoneeabi@1.40804.0/bin/../lib/gcc/arm-none-eabi/4.8.4/../../../../arm-none-eabi/lib/armv7e-m\libc.a(lib_a-locale.o)
                                                  c:/users/user/.platformio/packages/toolchain-gccarmnoneeabi@1.40804.0/bin/../lib/gcc/arm-none-eabi/4.8.4/../../../../arm-none-eabi/lib/armv7e-m\libc.a(lib_a-vsnprintf.o)
                                                  c:/users/user/.platformio/packages/toolchain-gccarmnoneeabi@1.40804.0/bin/../lib/gcc/arm-none-eabi/4.8.4/../../../../arm-none-eabi/lib/armv7e-m\libc.a(lib_a-strtol.o)
                                                  c:/users/user/.platformio/packages/toolchain-gccarmnoneeabi@1.40804.0/bin/../lib/gcc/arm-none-eabi/4.8.4/../../../../arm-none-eabi/lib/armv7e-m\libc.a(lib_a-sprintf.o)
                                                  c:/users/user/.platformio/packages/toolchain-gccarmnoneeabi@1.40804.0/bin/../lib/gcc/arm-none-eabi/4.8.4/../../../../arm-none-eabi/lib/armv7e-m\libc.a(lib_a-snprintf.o)
                                                  c:/users/user/.platformio/packages/toolchain-gccarmnoneeabi@1.40804.0/bin/../lib/gcc/arm-none-eabi/4.8.4/../../../../arm-none-eabi/lib/armv7e-m\libc.a(lib_a-reent.o)
                                                  c:/users/user/.platformio/packages/toolchain-gccarmnoneeabi@1.40804.0/bin/../lib/gcc/arm-none-eabi/4.8.4/../../../../arm-none-eabi/lib/armv7e-m\libc.a(lib_a-rand.o)
_ldata                                            .pio/build/lptm4c1294ncpdt/src/Drivers/soc/startup_gcc.o
_localeconv_r                                     c:/users/user/.platformio/packages/toolchain-gccarmnoneeabi@1.40804.0/bin/../lib/gcc/arm-none-eabi/4.8.4/../../../../arm-none-eabi/lib/armv7e-m\libc.a(lib_a-locale.o)
                                                  c:/users/user/.platformio/packages/toolchain-gccarmnoneeabi@1.40804.0/bin/../lib/gcc/arm-none-eabi/4.8.4/../../../../arm-none-eabi/lib/armv7e-m\libc.a(lib_a-svfprintf.o)
_mprec_log10                                      c:/users/user/.platformio/packages/toolchain-gccarmnoneeabi@1.40804.0/bin/../lib/gcc/arm-none-eabi/4.8.4/../../../../arm-none-eabi/lib/armv7e-m\libc.a(lib_a-mprec.o)
_reclaim_reent                                    c:/users/user/.platformio/packages/toolchain-gccarmnoneeabi@1.40804.0/bin/../lib/gcc/arm-none-eabi/4.8.4/../../../../arm-none-eabi/lib/armv7e-m\libc.a(lib_a-reent.o)
_sbrk                                             .pio/build/lptm4c1294ncpdt/src/stub_sbrk.o
_setlocale_r                                      c:/users/user/.platformio/packages/toolchain-gccarmnoneeabi@1.40804.0/bin/../lib/gcc/arm-none-eabi/4.8.4/../../../../arm-none-eabi/lib/armv7e-m\libc.a(lib_a-locale.o)
_snprintf_r                                       c:/users/user/.platformio/packages/toolchain-gccarmnoneeabi@1.40804.0/bin/../lib/gcc/arm-none-eabi/4.8.4/../../../../arm-none-eabi/lib/armv7e-m\libc.a(lib_a-snprintf.o)
_sprintf_r                                        c:/users/user/.platformio/packages/toolchain-gccarmnoneeabi@1.40804.0/bin/../lib/gcc/arm-none-eabi/4.8.4/../../../../arm-none-eabi/lib/armv7e-m\libc.a(lib_a-sprintf.o)
_strtol_r                                         c:/users/user/.platformio/packages/toolchain-gccarmnoneeabi@1.40804.0/bin/../lib/gcc/arm-none-eabi/4.8.4/../../../../arm-none-eabi/lib/armv7e-m\libc.a(lib_a-strtol.o)
                                                  c:/users/user/.platformio/packages/toolchain-gccarmnoneeabi@1.40804.0/bin/../lib/gcc/arm-none-eabi/4.8.4/../../../../arm-none-eabi/lib/armv7e-m\libc.a(lib_a-atoi.o)
_svfiprintf_r                                     c:/users/user/.platformio/packages/toolchain-gccarmnoneeabi@1.40804.0/bin/../lib/gcc/arm-none-eabi/4.8.4/../../../../arm-none-eabi/lib/armv7e-m\libc.a(lib_a-svfiprintf.o)
_svfprintf_r                                      c:/users/user/.platformio/packages/toolchain-gccarmnoneeabi@1.40804.0/bin/../lib/gcc/arm-none-eabi/4.8.4/../../../../arm-none-eabi/lib/armv7e-m\libc.a(lib_a-svfprintf.o)
                                                  c:/users/user/.platformio/packages/toolchain-gccarmnoneeabi@1.40804.0/bin/../lib/gcc/arm-none-eabi/4.8.4/../../../../arm-none-eabi/lib/armv7e-m\libc.a(lib_a-vsnprintf.o)
                                                  c:/users/user/.platformio/packages/toolchain-gccarmnoneeabi@1.40804.0/bin/../lib/gcc/arm-none-eabi/4.8.4/../../../../arm-none-eabi/lib/armv7e-m\libc.a(lib_a-sprintf.o)
                                                  c:/users/user/.platformio/packages/toolchain-gccarmnoneeabi@1.40804.0/bin/../lib/gcc/arm-none-eabi/4.8.4/../../../../arm-none-eabi/lib/armv7e-m\libc.a(lib_a-snprintf.o)
_vsnprintf_r                                      c:/users/user/.platformio/packages/toolchain-gccarmnoneeabi@1.40804.0/bin/../lib/gcc/arm-none-eabi/4.8.4/../../../../arm-none-eabi/lib/armv7e-m\libc.a(lib_a-vsnprintf.o)
app_if_callback_inf_lst                           .pio/build/lptm4c1294ncpdt/src/NeonRTOS/NeonAppInterface.o
atoh                                              .pio/build/lptm4c1294ncpdt/src/Drivers/W-Link/Misc/atoh.o
atoh_str                                          .pio/build/lptm4c1294ncpdt/src/Drivers/W-Link/Misc/atoh.o
atoi                                              c:/users/user/.platformio/packages/toolchain-gccarmnoneeabi@1.40804.0/bin/../lib/gcc/arm-none-eabi/4.8.4/../../../../arm-none-eabi/lib/armv7e-m\libc.a(lib_a-atoi.o)
                                                  .pio/build/lptm4c1294ncpdt/src/NeonRTOS/lwip/core/netif.o
                                                  .pio/build/lptm4c1294ncpdt/src/NeonRTOS/lwip/api/netdb.o
                                                  .pio/build/lptm4c1294ncpdt/src/NeonRTOS/HTTPd/HTTPd.o
base64_decode                                     .pio/build/lptm4c1294ncpdt/src/Drivers/W-Link/Misc/Base64.o
base64_encode                                     .pio/build/lptm4c1294ncpdt/src/Drivers/W-Link/Misc/Base64.o
                                                  .pio/build/lptm4c1294ncpdt/src/NeonRTOS/HTTPd/HTTPd.o
bridgeif_fdb_get_dst_ports                        .pio/build/lptm4c1294ncpdt/src/NeonRTOS/lwip/netif/bridgeif_fdb.o
bridgeif_fdb_init                                 .pio/build/lptm4c1294ncpdt/src/NeonRTOS/lwip/netif/bridgeif_fdb.o
bridgeif_fdb_update_src                           .pio/build/lptm4c1294ncpdt/src/NeonRTOS/lwip/netif/bridgeif_fdb.o
builtInUrls                                       .pio/build/lptm4c1294ncpdt/src/NeonRTOS/HTTPd/HTTPd.o
cJSON_AddItemReferenceToArray                     .pio/build/lptm4c1294ncpdt/src/Drivers/W-Link/cJSON/cJSON.o
cJSON_AddItemReferenceToObject                    .pio/build/lptm4c1294ncpdt/src/Drivers/W-Link/cJSON/cJSON.o
cJSON_AddItemToArray                              .pio/build/lptm4c1294ncpdt/src/Drivers/W-Link/cJSON/cJSON.o
                                                  .pio/build/lptm4c1294ncpdt/src/APP/LED_PWM_APP.o
cJSON_AddItemToObject                             .pio/build/lptm4c1294ncpdt/src/Drivers/W-Link/cJSON/cJSON.o
                                                  .pio/build/lptm4c1294ncpdt/src/NeonRTOS/NeonAppInterface.o
                                                  .pio/build/lptm4c1294ncpdt/src/APP/LED_PWM_APP.o
cJSON_CreateArray                                 .pio/build/lptm4c1294ncpdt/src/Drivers/W-Link/cJSON/cJSON.o
                                                  .pio/build/lptm4c1294ncpdt/src/APP/LED_PWM_APP.o
cJSON_CreateBool                                  .pio/build/lptm4c1294ncpdt/src/Drivers/W-Link/cJSON/cJSON.o
                                                  .pio/build/lptm4c1294ncpdt/src/APP/LED_PWM_APP.o
cJSON_CreateDoubleArray                           .pio/build/lptm4c1294ncpdt/src/Drivers/W-Link/cJSON/cJSON.o
cJSON_CreateFalse                                 .pio/build/lptm4c1294ncpdt/src/Drivers/W-Link/cJSON/cJSON.o
cJSON_CreateFloatArray                            .pio/build/lptm4c1294ncpdt/src/Drivers/W-Link/cJSON/cJSON.o
cJSON_CreateIntArray                              .pio/build/lptm4c1294ncpdt/src/Drivers/W-Link/cJSON/cJSON.o
cJSON_CreateNull                                  .pio/build/lptm4c1294ncpdt/src/Drivers/W-Link/cJSON/cJSON.o
cJSON_CreateNumber                                .pio/build/lptm4c1294ncpdt/src/Drivers/W-Link/cJSON/cJSON.o
                                                  .pio/build/lptm4c1294ncpdt/src/APP/LED_PWM_APP.o
cJSON_CreateObject                                .pio/build/lptm4c1294ncpdt/src/Drivers/W-Link/cJSON/cJSON.o
                                                  .pio/build/lptm4c1294ncpdt/src/NeonRTOS/NeonAppInterface.o
                                                  .pio/build/lptm4c1294ncpdt/src/APP/LED_PWM_APP.o
cJSON_CreateString                                .pio/build/lptm4c1294ncpdt/src/Drivers/W-Link/cJSON/cJSON.o
                                                  .pio/build/lptm4c1294ncpdt/src/NeonRTOS/NeonAppInterface.o
                                                  .pio/build/lptm4c1294ncpdt/src/APP/LED_PWM_APP.o
cJSON_CreateStringArray                           .pio/build/lptm4c1294ncpdt/src/Drivers/W-Link/cJSON/cJSON.o
cJSON_CreateTrue                                  .pio/build/lptm4c1294ncpdt/src/Drivers/W-Link/cJSON/cJSON.o
cJSON_Delete                                      .pio/build/lptm4c1294ncpdt/src/Drivers/W-Link/cJSON/cJSON.o
                                                  .pio/build/lptm4c1294ncpdt/src/NeonRTOS/NeonAppInterface.o
                                                  .pio/build/lptm4c1294ncpdt/src/NeonRTOS/HTTPd/HTTPd.o
                                                  .pio/build/lptm4c1294ncpdt/src/APP/LED_PWM_APP.o
cJSON_DeleteItemFromArray                         .pio/build/lptm4c1294ncpdt/src/Drivers/W-Link/cJSON/cJSON.o
cJSON_DeleteItemFromObject                        .pio/build/lptm4c1294ncpdt/src/Drivers/W-Link/cJSON/cJSON.o
cJSON_DetachItemFromArray                         .pio/build/lptm4c1294ncpdt/src/Drivers/W-Link/cJSON/cJSON.o
cJSON_DetachItemFromObject                        .pio/build/lptm4c1294ncpdt/src/Drivers/W-Link/cJSON/cJSON.o
cJSON_Duplicate                                   .pio/build/lptm4c1294ncpdt/src/Drivers/W-Link/cJSON/cJSON.o
cJSON_GetArrayItem                                .pio/build/lptm4c1294ncpdt/src/Drivers/W-Link/cJSON/cJSON.o
cJSON_GetArraySize                                .pio/build/lptm4c1294ncpdt/src/Drivers/W-Link/cJSON/cJSON.o
cJSON_GetErrorPtr                                 .pio/build/lptm4c1294ncpdt/src/Drivers/W-Link/cJSON/cJSON.o
cJSON_GetObjectItem                               .pio/build/lptm4c1294ncpdt/src/Drivers/W-Link/cJSON/cJSON.o
                                                  .pio/build/lptm4c1294ncpdt/src/NeonRTOS/NeonAppInterface.o
                                                  .pio/build/lptm4c1294ncpdt/src/APP/LED_PWM_APP.o
cJSON_InitHooks                                   .pio/build/lptm4c1294ncpdt/src/Drivers/W-Link/cJSON/cJSON.o
cJSON_Minify                                      .pio/build/lptm4c1294ncpdt/src/Drivers/W-Link/cJSON/cJSON.o
                                                  .pio/build/lptm4c1294ncpdt/src/NeonRTOS/HTTPd/HTTPd.o
cJSON_Parse                                       .pio/build/lptm4c1294ncpdt/src/Drivers/W-Link/cJSON/cJSON.o
                                                  .pio/build/lptm4c1294ncpdt/src/NeonRTOS/NeonAppInterface.o
                                                  .pio/build/lptm4c1294ncpdt/src/APP/LED_PWM_APP.o
cJSON_ParseWithOpts                               .pio/build/lptm4c1294ncpdt/src/Drivers/W-Link/cJSON/cJSON.o
cJSON_Print                                       .pio/build/lptm4c1294ncpdt/src/Drivers/W-Link/cJSON/cJSON.o
                                                  .pio/build/lptm4c1294ncpdt/src/NeonRTOS/HTTPd/HTTPd.o
cJSON_PrintUnformatted                            .pio/build/lptm4c1294ncpdt/src/Drivers/W-Link/cJSON/cJSON.o
cJSON_Print_To_Buffer                             .pio/build/lptm4c1294ncpdt/src/Drivers/W-Link/cJSON/cJSON.o
cJSON_ReplaceItemInArray                          .pio/build/lptm4c1294ncpdt/src/Drivers/W-Link/cJSON/cJSON.o
cJSON_ReplaceItemInObject                         .pio/build/lptm4c1294ncpdt/src/Drivers/W-Link/cJSON/cJSON.o
cgiDebugPage                                      .pio/build/lptm4c1294ncpdt/src/NeonRTOS/HTTPd/HTTPd.o
cleanup_glue                                      c:/users/user/.platformio/packages/toolchain-gccarmnoneeabi@1.40804.0/bin/../lib/gcc/arm-none-eabi/4.8.4/../../../../arm-none-eabi/lib/armv7e-m\libc.a(lib_a-reent.o)
copysign                                          c:/users/user/.platformio/packages/toolchain-gccarmnoneeabi@1.40804.0/bin/../lib/gcc/arm-none-eabi/4.8.4/../../../../arm-none-eabi/lib/armv7e-m\libm.a(lib_a-s_copysign.o)
                                                  c:/users/user/.platformio/packages/toolchain-gccarmnoneeabi@1.40804.0/bin/../lib/gcc/arm-none-eabi/4.8.4/../../../../arm-none-eabi/lib/armv7e-m\libm.a(lib_a-s_scalbn.o)
dns_callback                                      .pio/build/lptm4c1294ncpdt/src/NeonRTOS/NeonTCPIP.o
dns_gethostbyname                                 .pio/build/lptm4c1294ncpdt/src/NeonRTOS/lwip/core/dns.o
                                                  .pio/build/lptm4c1294ncpdt/src/NeonRTOS/NeonTCPIP.o
dns_gethostbyname_addrtype                        .pio/build/lptm4c1294ncpdt/src/NeonRTOS/lwip/core/dns.o
                                                  .pio/build/lptm4c1294ncpdt/src/NeonRTOS/lwip/api/api_msg.o
dns_getserver                                     .pio/build/lptm4c1294ncpdt/src/NeonRTOS/lwip/core/dns.o
                                                  .pio/build/lptm4c1294ncpdt/src/NeonRTOS/NeonTCPIP.o
dns_init                                          .pio/build/lptm4c1294ncpdt/src/NeonRTOS/lwip/core/dns.o
                                                  .pio/build/lptm4c1294ncpdt/src/NeonRTOS/lwip/core/init.o
                                                  .pio/build/lptm4c1294ncpdt/src/NeonRTOS/NeonTCPIP.o
dns_mquery_v4group                                .pio/build/lptm4c1294ncpdt/src/NeonRTOS/lwip/core/dns.o
dns_setserver                                     .pio/build/lptm4c1294ncpdt/src/NeonRTOS/lwip/core/dns.o
                                                  .pio/build/lptm4c1294ncpdt/src/NeonRTOS/NeonTCPIP.o
dns_tmr                                           .pio/build/lptm4c1294ncpdt/src/NeonRTOS/lwip/core/dns.o
                                                  .pio/build/lptm4c1294ncpdt/src/NeonRTOS/lwip/core/timeouts.o
eTaskGetState                                     .pio/build/lptm4c1294ncpdt/src/NeonRTOS/kernel/tasks.o
err_to_errno                                      .pio/build/lptm4c1294ncpdt/src/NeonRTOS/lwip/api/err.o
                                                  .pio/build/lptm4c1294ncpdt/src/NeonRTOS/lwip/api/sockets.o
errno                                             c:/users/user/.platformio/packages/toolchain-gccarmnoneeabi@1.40804.0/bin/../lib/gcc/arm-none-eabi/4.8.4/../../../../arm-none-eabi/lib/armv7e-m\libc.a(lib_a-reent.o)
                                                  .pio/build/lptm4c1294ncpdt/src/stub_sbrk.o
                                                  .pio/build/lptm4c1294ncpdt/src/NeonRTOS/lwip/api/sockets.o
                                                  .pio/build/lptm4c1294ncpdt/src/NeonRTOS/lwip/api/if_api.o
etharp_cleanup_netif                              .pio/build/lptm4c1294ncpdt/src/NeonRTOS/lwip/core/ipv4/etharp.o
                                                  .pio/build/lptm4c1294ncpdt/src/NeonRTOS/lwip/core/netif.o
etharp_find_addr                                  .pio/build/lptm4c1294ncpdt/src/NeonRTOS/lwip/core/ipv4/etharp.o
etharp_get_entry                                  .pio/build/lptm4c1294ncpdt/src/NeonRTOS/lwip/core/ipv4/etharp.o
etharp_input                                      .pio/build/lptm4c1294ncpdt/src/NeonRTOS/lwip/core/ipv4/etharp.o
                                                  .pio/build/lptm4c1294ncpdt/src/NeonRTOS/lwip/netif/ethernet.o
etharp_output                                     .pio/build/lptm4c1294ncpdt/src/NeonRTOS/lwip/core/ipv4/etharp.o
                                                  .pio/build/lptm4c1294ncpdt/src/Drivers/ethernetif/ethernetif_tm4c1294.o
etharp_query                                      .pio/build/lptm4c1294ncpdt/src/NeonRTOS/lwip/core/ipv4/etharp.o
etharp_request                                    .pio/build/lptm4c1294ncpdt/src/NeonRTOS/lwip/core/ipv4/etharp.o
                                                  .pio/build/lptm4c1294ncpdt/src/NeonRTOS/lwip/core/netif.o
etharp_tmr                                        .pio/build/lptm4c1294ncpdt/src/NeonRTOS/lwip/core/ipv4/etharp.o
                                                  .pio/build/lptm4c1294ncpdt/src/NeonRTOS/lwip/core/timeouts.o
ethbroadcast                                      .pio/build/lptm4c1294ncpdt/src/NeonRTOS/lwip/netif/ethernet.o
                                                  .pio/build/lptm4c1294ncpdt/src/NeonRTOS/lwip/core/ipv4/etharp.o
ethernet_input                                    .pio/build/lptm4c1294ncpdt/src/NeonRTOS/lwip/netif/ethernet.o
                                                  .pio/build/lptm4c1294ncpdt/src/NeonRTOS/lwip/core/netif.o
                                                  .pio/build/lptm4c1294ncpdt/src/NeonRTOS/lwip/api/tcpip.o
                                                  .pio/build/lptm4c1294ncpdt/src/NeonRTOS/NeonTCPIP.o
ethernet_output                                   .pio/build/lptm4c1294ncpdt/src/NeonRTOS/lwip/netif/ethernet.o
                                                  .pio/build/lptm4c1294ncpdt/src/NeonRTOS/lwip/core/ipv4/etharp.o
ethernetif_get_tick                               .pio/build/lptm4c1294ncpdt/src/Drivers/ethernetif/ethernetif_tm4c1294.o
                                                  .pio/build/lptm4c1294ncpdt/src/NeonRTOS/NeonTCPIP.o
ethernetif_init                                   .pio/build/lptm4c1294ncpdt/src/Drivers/ethernetif/ethernetif_tm4c1294.o
                                                  .pio/build/lptm4c1294ncpdt/src/NeonRTOS/NeonTCPIP.o
ethernetif_input                                  .pio/build/lptm4c1294ncpdt/src/Drivers/ethernetif/ethernetif_tm4c1294.o
                                                  .pio/build/lptm4c1294ncpdt/src/NeonRTOS/NeonTCPIP.o
ethernetif_is_init                                .pio/build/lptm4c1294ncpdt/src/Drivers/ethernetif/ethernetif_tm4c1294.o
                                                  .pio/build/lptm4c1294ncpdt/src/NeonRTOS/NeonTCPIP.o
ethernetif_notify_conn_changed                    .pio/build/lptm4c1294ncpdt/src/NeonRTOS/NeonTCPIP.o
                                                  .pio/build/lptm4c1294ncpdt/src/Drivers/ethernetif/ethernetif_tm4c1294.o
ethernetif_set_link                               .pio/build/lptm4c1294ncpdt/src/Drivers/ethernetif/ethernetif_tm4c1294.o
                                                  .pio/build/lptm4c1294ncpdt/src/NeonRTOS/NeonTCPIP.o
ethernetif_set_mac_addr                           .pio/build/lptm4c1294ncpdt/src/Drivers/ethernetif/ethernetif_tm4c1294.o
                                                  .pio/build/lptm4c1294ncpdt/src/NeonRTOS/NeonTCPIP.o
ethernetif_update_config                          .pio/build/lptm4c1294ncpdt/src/Drivers/ethernetif/ethernetif_tm4c1294.o
                                                  .pio/build/lptm4c1294ncpdt/src/NeonRTOS/NeonTCPIP.o
ethzero                                           .pio/build/lptm4c1294ncpdt/src/NeonRTOS/lwip/netif/ethernet.o
                                                  .pio/build/lptm4c1294ncpdt/src/NeonRTOS/lwip/core/ipv4/etharp.o
fabs                                              c:/users/user/.platformio/packages/toolchain-gccarmnoneeabi@1.40804.0/bin/../lib/gcc/arm-none-eabi/4.8.4/../../../../arm-none-eabi/lib/armv7e-m\libm.a(lib_a-s_fabs.o)
                                                  c:/users/user/.platformio/packages/toolchain-gccarmnoneeabi@1.40804.0/bin/../lib/gcc/arm-none-eabi/4.8.4/../../../../arm-none-eabi/lib/armv7e-m\libm.a(lib_a-e_pow.o)
finite                                            c:/users/user/.platformio/packages/toolchain-gccarmnoneeabi@1.40804.0/bin/../lib/gcc/arm-none-eabi/4.8.4/../../../../arm-none-eabi/lib/armv7e-m\libm.a(lib_a-s_finite.o)
                                                  c:/users/user/.platformio/packages/toolchain-gccarmnoneeabi@1.40804.0/bin/../lib/gcc/arm-none-eabi/4.8.4/../../../../arm-none-eabi/lib/armv7e-m\libm.a(lib_a-w_pow.o)
ftoa                                              .pio/build/lptm4c1294ncpdt/src/Drivers/W-Link/Misc/ftoa.o
g_RxDescList                                      .pio/build/lptm4c1294ncpdt/src/Drivers/ethernetif/ethernetif_tm4c1294.o
g_TxDescList                                      .pio/build/lptm4c1294ncpdt/src/Drivers/ethernetif/ethernetif_tm4c1294.o
g_pRxDescriptors                                  .pio/build/lptm4c1294ncpdt/src/Drivers/ethernetif/ethernetif_tm4c1294.o
g_pTxDescriptors                                  .pio/build/lptm4c1294ncpdt/src/Drivers/ethernetif/ethernetif_tm4c1294.o
g_pfnVectors                                      .pio/build/lptm4c1294ncpdt/src/Drivers/soc/startup_gcc.o
g_ui32AbnormalInts                                .pio/build/lptm4c1294ncpdt/src/Drivers/ethernetif/ethernetif_tm4c1294.o
g_ui32NormalInts                                  .pio/build/lptm4c1294ncpdt/src/Drivers/ethernetif/ethernetif_tm4c1294.o
g_ui32SysClock                                    .pio/build/lptm4c1294ncpdt/src/Drivers/W-Link/Driver/SysCtrl/SysCtrl_TM4C1294.o
                                                  .pio/build/lptm4c1294ncpdt/src/Drivers/ethernetif/ethernetif_tm4c1294.o
                                                  .pio/build/lptm4c1294ncpdt/src/Drivers/W-Link/Driver/UART/UART_TM4C1294.o
                                                  .pio/build/lptm4c1294ncpdt/src/Drivers/W-Link/Driver/PWM/PWM_TM4C1294.o
get_hardware_mac                                  .pio/build/lptm4c1294ncpdt/src/Drivers/ethernetif/ethernetif_tm4c1294.o
                                                  .pio/build/lptm4c1294ncpdt/src/NeonRTOS/NeonTCPIP.o
gnetif                                            .pio/build/lptm4c1294ncpdt/src/NeonRTOS/NeonTCPIP.o
h_errno                                           .pio/build/lptm4c1294ncpdt/src/NeonRTOS/lwip/api/netdb.o
heatshrink_decoder_alloc                          .pio/build/lptm4c1294ncpdt/src/NeonRTOS/HTTPd/heatshrink_decoder.o
heatshrink_decoder_finish                         .pio/build/lptm4c1294ncpdt/src/NeonRTOS/HTTPd/heatshrink_decoder.o
heatshrink_decoder_free                           .pio/build/lptm4c1294ncpdt/src/NeonRTOS/HTTPd/heatshrink_decoder.o
heatshrink_decoder_poll                           .pio/build/lptm4c1294ncpdt/src/NeonRTOS/HTTPd/heatshrink_decoder.o
heatshrink_decoder_reset                          .pio/build/lptm4c1294ncpdt/src/NeonRTOS/HTTPd/heatshrink_decoder.o
heatshrink_decoder_sink                           .pio/build/lptm4c1294ncpdt/src/NeonRTOS/HTTPd/heatshrink_decoder.o
htoa                                              .pio/build/lptm4c1294ncpdt/src/Drivers/W-Link/Misc/htoa.o
htoa_str                                          .pio/build/lptm4c1294ncpdt/src/Drivers/W-Link/Misc/htoa.o
icmp_dest_unreach                                 .pio/build/lptm4c1294ncpdt/src/NeonRTOS/lwip/core/ipv4/icmp.o
                                                  .pio/build/lptm4c1294ncpdt/src/NeonRTOS/lwip/core/udp.o
                                                  .pio/build/lptm4c1294ncpdt/src/NeonRTOS/lwip/core/ipv4/ip4.o
icmp_input                                        .pio/build/lptm4c1294ncpdt/src/NeonRTOS/lwip/core/ipv4/icmp.o
                                                  .pio/build/lptm4c1294ncpdt/src/NeonRTOS/lwip/core/ipv4/ip4.o
icmp_time_exceeded                                .pio/build/lptm4c1294ncpdt/src/NeonRTOS/lwip/core/ipv4/icmp.o
                                                  .pio/build/lptm4c1294ncpdt/src/NeonRTOS/lwip/core/ipv4/ip4_frag.o
inet_chksum                                       .pio/build/lptm4c1294ncpdt/src/NeonRTOS/lwip/core/inet_chksum.o
inet_chksum_pbuf                                  .pio/build/lptm4c1294ncpdt/src/NeonRTOS/lwip/core/inet_chksum.o
                                                  .pio/build/lptm4c1294ncpdt/src/NeonRTOS/lwip/core/ipv4/icmp.o
inet_chksum_pseudo                                .pio/build/lptm4c1294ncpdt/src/NeonRTOS/lwip/core/inet_chksum.o
inet_chksum_pseudo_partial                        .pio/build/lptm4c1294ncpdt/src/NeonRTOS/lwip/core/inet_chksum.o
ip4_addr_isbroadcast_u32                          .pio/build/lptm4c1294ncpdt/src/NeonRTOS/lwip/core/ipv4/ip4_addr.o
                                                  .pio/build/lptm4c1294ncpdt/src/NeonRTOS/lwip/core/udp.o
                                                  .pio/build/lptm4c1294ncpdt/src/NeonRTOS/lwip/core/tcp_in.o
                                                  .pio/build/lptm4c1294ncpdt/src/NeonRTOS/lwip/core/raw.o
                                                  .pio/build/lptm4c1294ncpdt/src/NeonRTOS/lwip/core/ipv4/ip4.o
                                                  .pio/build/lptm4c1294ncpdt/src/NeonRTOS/lwip/core/ipv4/icmp.o
                                                  .pio/build/lptm4c1294ncpdt/src/NeonRTOS/lwip/core/ipv4/etharp.o
ip4_addr_netmask_valid                            .pio/build/lptm4c1294ncpdt/src/NeonRTOS/lwip/core/ipv4/ip4_addr.o
ip4_frag                                          .pio/build/lptm4c1294ncpdt/src/NeonRTOS/lwip/core/ipv4/ip4_frag.o
                                                  .pio/build/lptm4c1294ncpdt/src/NeonRTOS/lwip/core/ipv4/ip4.o
ip4_input                                         .pio/build/lptm4c1294ncpdt/src/NeonRTOS/lwip/core/ipv4/ip4.o
                                                  .pio/build/lptm4c1294ncpdt/src/NeonRTOS/lwip/netif/ethernet.o
                                                  .pio/build/lptm4c1294ncpdt/src/NeonRTOS/lwip/core/netif.o
                                                  .pio/build/lptm4c1294ncpdt/src/NeonRTOS/lwip/api/tcpip.o
ip4_output                                        .pio/build/lptm4c1294ncpdt/src/NeonRTOS/lwip/core/ipv4/ip4.o
ip4_output_if                                     .pio/build/lptm4c1294ncpdt/src/NeonRTOS/lwip/core/ipv4/ip4.o
                                                  .pio/build/lptm4c1294ncpdt/src/NeonRTOS/lwip/core/tcp_out.o
                                                  .pio/build/lptm4c1294ncpdt/src/NeonRTOS/lwip/core/raw.o
                                                  .pio/build/lptm4c1294ncpdt/src/NeonRTOS/lwip/core/ipv4/icmp.o
ip4_output_if_src                                 .pio/build/lptm4c1294ncpdt/src/NeonRTOS/lwip/core/ipv4/ip4.o
                                                  .pio/build/lptm4c1294ncpdt/src/NeonRTOS/lwip/core/udp.o
ip4_reass                                         .pio/build/lptm4c1294ncpdt/src/NeonRTOS/lwip/core/ipv4/ip4_frag.o
                                                  .pio/build/lptm4c1294ncpdt/src/NeonRTOS/lwip/core/ipv4/ip4.o
ip4_route                                         .pio/build/lptm4c1294ncpdt/src/NeonRTOS/lwip/core/ipv4/ip4.o
                                                  .pio/build/lptm4c1294ncpdt/src/NeonRTOS/lwip/core/udp.o
                                                  .pio/build/lptm4c1294ncpdt/src/NeonRTOS/lwip/core/tcp_out.o
                                                  .pio/build/lptm4c1294ncpdt/src/NeonRTOS/lwip/core/tcp_in.o
                                                  .pio/build/lptm4c1294ncpdt/src/NeonRTOS/lwip/core/tcp.o
                                                  .pio/build/lptm4c1294ncpdt/src/NeonRTOS/lwip/core/raw.o
                                                  .pio/build/lptm4c1294ncpdt/src/NeonRTOS/lwip/core/ipv4/icmp.o
ip4addr_aton                                      .pio/build/lptm4c1294ncpdt/src/NeonRTOS/lwip/core/ipv4/ip4_addr.o
                                                  .pio/build/lptm4c1294ncpdt/src/NeonRTOS/lwip/core/dns.o
                                                  .pio/build/lptm4c1294ncpdt/src/NeonRTOS/lwip/api/sockets.o
                                                  .pio/build/lptm4c1294ncpdt/src/NeonRTOS/lwip/api/netdb.o
                                                  .pio/build/lptm4c1294ncpdt/src/NeonRTOS/NeonTCPIP.o
ip4addr_ntoa                                      .pio/build/lptm4c1294ncpdt/src/NeonRTOS/lwip/core/ipv4/ip4_addr.o
                                                  .pio/build/lptm4c1294ncpdt/src/NeonRTOS/NeonTCPIP.o
ip4addr_ntoa_r                                    .pio/build/lptm4c1294ncpdt/src/NeonRTOS/lwip/core/ipv4/ip4_addr.o
                                                  .pio/build/lptm4c1294ncpdt/src/NeonRTOS/lwip/api/sockets.o
ip_addr_any                                       .pio/build/lptm4c1294ncpdt/src/NeonRTOS/lwip/core/ipv4/ip4_addr.o
                                                  .pio/build/lptm4c1294ncpdt/src/NeonRTOS/lwip/core/udp.o
                                                  .pio/build/lptm4c1294ncpdt/src/NeonRTOS/lwip/core/tcp.o
                                                  .pio/build/lptm4c1294ncpdt/src/NeonRTOS/lwip/core/netif.o
                                                  .pio/build/lptm4c1294ncpdt/src/NeonRTOS/lwip/core/ipv4/ip4.o
                                                  .pio/build/lptm4c1294ncpdt/src/NeonRTOS/lwip/core/dns.o
                                                  .pio/build/lptm4c1294ncpdt/src/NeonRTOS/lwip/api/api_lib.o
ip_addr_broadcast                                 .pio/build/lptm4c1294ncpdt/src/NeonRTOS/lwip/core/ipv4/ip4_addr.o
ip_addr_to_u32                                    .pio/build/lptm4c1294ncpdt/src/NeonRTOS/NeonTCPIP.o
ip_chksum_pseudo                                  .pio/build/lptm4c1294ncpdt/src/NeonRTOS/lwip/core/inet_chksum.o
ip_chksum_pseudo_partial                          .pio/build/lptm4c1294ncpdt/src/NeonRTOS/lwip/core/inet_chksum.o
ip_data                                           .pio/build/lptm4c1294ncpdt/src/NeonRTOS/lwip/core/udp.o
                                                  .pio/build/lptm4c1294ncpdt/src/NeonRTOS/lwip/core/tcp_in.o
                                                  .pio/build/lptm4c1294ncpdt/src/NeonRTOS/lwip/core/raw.o
                                                  .pio/build/lptm4c1294ncpdt/src/NeonRTOS/lwip/core/ipv4/ip4.o
                                                  .pio/build/lptm4c1294ncpdt/src/NeonRTOS/lwip/core/ipv4/icmp.o
                                                  .pio/build/lptm4c1294ncpdt/src/NeonRTOS/lwip/core/ip.o
                                                  .pio/build/lptm4c1294ncpdt/src/NeonRTOS/lwip/api/api_msg.o
ip_reass_tmr                                      .pio/build/lptm4c1294ncpdt/src/NeonRTOS/lwip/core/ipv4/ip4_frag.o
                                                  .pio/build/lptm4c1294ncpdt/src/NeonRTOS/lwip/core/timeouts.o
ip_string_to_u32                                  .pio/build/lptm4c1294ncpdt/src/NeonRTOS/NeonTCPIP.o
                                                  .pio/build/lptm4c1294ncpdt/src/NeonRTOS/NeonAppInterface.o
ip_u32_to_string                                  .pio/build/lptm4c1294ncpdt/src/NeonRTOS/NeonTCPIP.o
                                                  .pio/build/lptm4c1294ncpdt/src/NeonRTOS/NeonAppInterface.o
ipaddr_addr                                       .pio/build/lptm4c1294ncpdt/src/NeonRTOS/lwip/core/ipv4/ip4_addr.o
isspace                                           c:/users/user/.platformio/packages/toolchain-gccarmnoneeabi@1.40804.0/bin/../lib/gcc/arm-none-eabi/4.8.4/../../../../arm-none-eabi/lib/armv7e-m\libc.a(lib_a-isspace.o)
                                                  .pio/build/lptm4c1294ncpdt/src/Drivers/W-Link/Misc/Base64.o
itoa                                              .pio/build/lptm4c1294ncpdt/src/Drivers/W-Link/Misc/itoa.o
localeconv                                        c:/users/user/.platformio/packages/toolchain-gccarmnoneeabi@1.40804.0/bin/../lib/gcc/arm-none-eabi/4.8.4/../../../../arm-none-eabi/lib/armv7e-m\libc.a(lib_a-locale.o)
lock_tcpip_core                                   .pio/build/lptm4c1294ncpdt/src/NeonRTOS/lwip/api/tcpip.o
                                                  .pio/build/lptm4c1294ncpdt/src/NeonRTOS/lwip/api/sockets.o
                                                  .pio/build/lptm4c1294ncpdt/src/NeonRTOS/lwip/api/api_msg.o
lwip_accept                                       .pio/build/lptm4c1294ncpdt/src/NeonRTOS/lwip/api/sockets.o
                                                  .pio/build/lptm4c1294ncpdt/src/NeonRTOS/HTTPd/HTTPd.o
lwip_bind                                         .pio/build/lptm4c1294ncpdt/src/NeonRTOS/lwip/api/sockets.o
                                                  .pio/build/lptm4c1294ncpdt/src/NeonRTOS/HTTPd/HTTPd.o
lwip_close                                        .pio/build/lptm4c1294ncpdt/src/NeonRTOS/lwip/api/sockets.o
                                                  .pio/build/lptm4c1294ncpdt/src/NeonRTOS/HTTPd/HTTPd.o
lwip_connect                                      .pio/build/lptm4c1294ncpdt/src/NeonRTOS/lwip/api/sockets.o
lwip_cyclic_timers                                .pio/build/lptm4c1294ncpdt/src/NeonRTOS/lwip/core/timeouts.o
lwip_fcntl                                        .pio/build/lptm4c1294ncpdt/src/NeonRTOS/lwip/api/sockets.o
                                                  .pio/build/lptm4c1294ncpdt/src/NeonRTOS/HTTPd/HTTPd.o
lwip_freeaddrinfo                                 .pio/build/lptm4c1294ncpdt/src/NeonRTOS/lwip/api/netdb.o
lwip_getaddrinfo                                  .pio/build/lptm4c1294ncpdt/src/NeonRTOS/lwip/api/netdb.o
lwip_gethostbyname                                .pio/build/lptm4c1294ncpdt/src/NeonRTOS/lwip/api/netdb.o
lwip_gethostbyname_r                              .pio/build/lptm4c1294ncpdt/src/NeonRTOS/lwip/api/netdb.o
lwip_getpeername                                  .pio/build/lptm4c1294ncpdt/src/NeonRTOS/lwip/api/sockets.o
lwip_getsockname                                  .pio/build/lptm4c1294ncpdt/src/NeonRTOS/lwip/api/sockets.o
lwip_getsockopt                                   .pio/build/lptm4c1294ncpdt/src/NeonRTOS/lwip/api/sockets.o
                                                  .pio/build/lptm4c1294ncpdt/src/NeonRTOS/HTTPd/HTTPd.o
lwip_htonl                                        .pio/build/lptm4c1294ncpdt/src/NeonRTOS/lwip/core/def.o
                                                  .pio/build/lptm4c1294ncpdt/src/NeonRTOS/lwip/core/tcp_out.o
                                                  .pio/build/lptm4c1294ncpdt/src/NeonRTOS/lwip/core/tcp_in.o
                                                  .pio/build/lptm4c1294ncpdt/src/NeonRTOS/lwip/core/ipv4/ip4_addr.o
                                                  .pio/build/lptm4c1294ncpdt/src/NeonRTOS/lwip/core/dns.o
lwip_htons                                        .pio/build/lptm4c1294ncpdt/src/NeonRTOS/lwip/core/def.o
                                                  .pio/build/lptm4c1294ncpdt/src/NeonRTOS/lwip/netif/ethernet.o
                                                  .pio/build/lptm4c1294ncpdt/src/NeonRTOS/lwip/core/udp.o
                                                  .pio/build/lptm4c1294ncpdt/src/NeonRTOS/lwip/core/tcp_out.o
                                                  .pio/build/lptm4c1294ncpdt/src/NeonRTOS/lwip/core/tcp_in.o
                                                  .pio/build/lptm4c1294ncpdt/src/NeonRTOS/lwip/core/ipv4/ip4_frag.o
                                                  .pio/build/lptm4c1294ncpdt/src/NeonRTOS/lwip/core/ipv4/ip4.o
                                                  .pio/build/lptm4c1294ncpdt/src/NeonRTOS/lwip/core/ipv4/etharp.o
                                                  .pio/build/lptm4c1294ncpdt/src/NeonRTOS/lwip/core/inet_chksum.o
                                                  .pio/build/lptm4c1294ncpdt/src/NeonRTOS/lwip/core/dns.o
                                                  .pio/build/lptm4c1294ncpdt/src/NeonRTOS/lwip/api/sockets.o
                                                  .pio/build/lptm4c1294ncpdt/src/NeonRTOS/lwip/api/netdb.o
                                                  .pio/build/lptm4c1294ncpdt/src/NeonRTOS/HTTPd/HTTPd.o
lwip_if_indextoname                               .pio/build/lptm4c1294ncpdt/src/NeonRTOS/lwip/api/if_api.o
lwip_if_nametoindex                               .pio/build/lptm4c1294ncpdt/src/NeonRTOS/lwip/api/if_api.o
lwip_inet_ntop                                    .pio/build/lptm4c1294ncpdt/src/NeonRTOS/lwip/api/sockets.o
lwip_inet_pton                                    .pio/build/lptm4c1294ncpdt/src/NeonRTOS/lwip/api/sockets.o
lwip_init                                         .pio/build/lptm4c1294ncpdt/src/NeonRTOS/lwip/core/init.o
                                                  .pio/build/lptm4c1294ncpdt/src/NeonRTOS/lwip/api/tcpip.o
                                                  .pio/build/lptm4c1294ncpdt/src/NeonRTOS/NeonTCPIP.o
lwip_ioctl                                        .pio/build/lptm4c1294ncpdt/src/NeonRTOS/lwip/api/sockets.o
lwip_itoa                                         .pio/build/lptm4c1294ncpdt/src/NeonRTOS/lwip/core/def.o
                                                  .pio/build/lptm4c1294ncpdt/src/NeonRTOS/lwip/core/netif.o
lwip_listen                                       .pio/build/lptm4c1294ncpdt/src/NeonRTOS/lwip/api/sockets.o
                                                  .pio/build/lptm4c1294ncpdt/src/NeonRTOS/HTTPd/HTTPd.o
lwip_netconn_do_bind                              .pio/build/lptm4c1294ncpdt/src/NeonRTOS/lwip/api/api_msg.o
                                                  .pio/build/lptm4c1294ncpdt/src/NeonRTOS/lwip/api/api_lib.o
lwip_netconn_do_bind_if                           .pio/build/lptm4c1294ncpdt/src/NeonRTOS/lwip/api/api_msg.o
                                                  .pio/build/lptm4c1294ncpdt/src/NeonRTOS/lwip/api/api_lib.o
lwip_netconn_do_close                             .pio/build/lptm4c1294ncpdt/src/NeonRTOS/lwip/api/api_msg.o
                                                  .pio/build/lptm4c1294ncpdt/src/NeonRTOS/lwip/api/api_lib.o
lwip_netconn_do_connect                           .pio/build/lptm4c1294ncpdt/src/NeonRTOS/lwip/api/api_msg.o
                                                  .pio/build/lptm4c1294ncpdt/src/NeonRTOS/lwip/api/api_lib.o
lwip_netconn_do_delconn                           .pio/build/lptm4c1294ncpdt/src/NeonRTOS/lwip/api/api_msg.o
                                                  .pio/build/lptm4c1294ncpdt/src/NeonRTOS/lwip/api/api_lib.o
lwip_netconn_do_disconnect                        .pio/build/lptm4c1294ncpdt/src/NeonRTOS/lwip/api/api_msg.o
                                                  .pio/build/lptm4c1294ncpdt/src/NeonRTOS/lwip/api/api_lib.o
lwip_netconn_do_getaddr                           .pio/build/lptm4c1294ncpdt/src/NeonRTOS/lwip/api/api_msg.o
                                                  .pio/build/lptm4c1294ncpdt/src/NeonRTOS/lwip/api/api_lib.o
lwip_netconn_do_gethostbyname                     .pio/build/lptm4c1294ncpdt/src/NeonRTOS/lwip/api/api_msg.o
                                                  .pio/build/lptm4c1294ncpdt/src/NeonRTOS/lwip/api/api_lib.o
lwip_netconn_do_listen                            .pio/build/lptm4c1294ncpdt/src/NeonRTOS/lwip/api/api_msg.o
                                                  .pio/build/lptm4c1294ncpdt/src/NeonRTOS/lwip/api/api_lib.o
lwip_netconn_do_newconn                           .pio/build/lptm4c1294ncpdt/src/NeonRTOS/lwip/api/api_msg.o
                                                  .pio/build/lptm4c1294ncpdt/src/NeonRTOS/lwip/api/api_lib.o
lwip_netconn_do_recv                              .pio/build/lptm4c1294ncpdt/src/NeonRTOS/lwip/api/api_msg.o
                                                  .pio/build/lptm4c1294ncpdt/src/NeonRTOS/lwip/api/api_lib.o
lwip_netconn_do_send                              .pio/build/lptm4c1294ncpdt/src/NeonRTOS/lwip/api/api_msg.o
                                                  .pio/build/lptm4c1294ncpdt/src/NeonRTOS/lwip/api/api_lib.o
lwip_netconn_do_write                             .pio/build/lptm4c1294ncpdt/src/NeonRTOS/lwip/api/api_msg.o
                                                  .pio/build/lptm4c1294ncpdt/src/NeonRTOS/lwip/api/api_lib.o
lwip_netconn_is_err_msg                           .pio/build/lptm4c1294ncpdt/src/NeonRTOS/lwip/api/api_msg.o
                                                  .pio/build/lptm4c1294ncpdt/src/NeonRTOS/lwip/api/api_lib.o
lwip_num_cyclic_timers                            .pio/build/lptm4c1294ncpdt/src/NeonRTOS/lwip/core/timeouts.o
lwip_poll                                         .pio/build/lptm4c1294ncpdt/src/NeonRTOS/lwip/api/sockets.o
lwip_read                                         .pio/build/lptm4c1294ncpdt/src/NeonRTOS/lwip/api/sockets.o
lwip_readv                                        .pio/build/lptm4c1294ncpdt/src/NeonRTOS/lwip/api/sockets.o
lwip_recv                                         .pio/build/lptm4c1294ncpdt/src/NeonRTOS/lwip/api/sockets.o
                                                  .pio/build/lptm4c1294ncpdt/src/NeonRTOS/HTTPd/HTTPd.o
lwip_recvfrom                                     .pio/build/lptm4c1294ncpdt/src/NeonRTOS/lwip/api/sockets.o
lwip_recvmsg                                      .pio/build/lptm4c1294ncpdt/src/NeonRTOS/lwip/api/sockets.o
lwip_select                                       .pio/build/lptm4c1294ncpdt/src/NeonRTOS/lwip/api/sockets.o
lwip_send                                         .pio/build/lptm4c1294ncpdt/src/NeonRTOS/lwip/api/sockets.o
                                                  .pio/build/lptm4c1294ncpdt/src/NeonRTOS/HTTPd/HTTPd.o
lwip_sendmsg                                      .pio/build/lptm4c1294ncpdt/src/NeonRTOS/lwip/api/sockets.o
lwip_sendto                                       .pio/build/lptm4c1294ncpdt/src/NeonRTOS/lwip/api/sockets.o
lwip_setsockopt                                   .pio/build/lptm4c1294ncpdt/src/NeonRTOS/lwip/api/sockets.o
                                                  .pio/build/lptm4c1294ncpdt/src/NeonRTOS/HTTPd/HTTPd.o
lwip_shutdown                                     .pio/build/lptm4c1294ncpdt/src/NeonRTOS/lwip/api/sockets.o
lwip_socket                                       .pio/build/lptm4c1294ncpdt/src/NeonRTOS/lwip/api/sockets.o
                                                  .pio/build/lptm4c1294ncpdt/src/NeonRTOS/HTTPd/HTTPd.o
lwip_socket_dbg_get_socket                        .pio/build/lptm4c1294ncpdt/src/NeonRTOS/lwip/api/sockets.o
lwip_socket_thread_cleanup                        .pio/build/lptm4c1294ncpdt/src/NeonRTOS/lwip/api/sockets.o
lwip_socket_thread_init                           .pio/build/lptm4c1294ncpdt/src/NeonRTOS/lwip/api/sockets.o
lwip_standard_chksum                              .pio/build/lptm4c1294ncpdt/src/NeonRTOS/lwip/core/inet_chksum.o
lwip_stricmp                                      .pio/build/lptm4c1294ncpdt/src/NeonRTOS/lwip/core/def.o
lwip_strnicmp                                     .pio/build/lptm4c1294ncpdt/src/NeonRTOS/lwip/core/def.o
                                                  .pio/build/lptm4c1294ncpdt/src/NeonRTOS/lwip/core/dns.o
lwip_strnistr                                     .pio/build/lptm4c1294ncpdt/src/NeonRTOS/lwip/core/def.o
lwip_strnstr                                      .pio/build/lptm4c1294ncpdt/src/NeonRTOS/lwip/core/def.o
lwip_sys_mutex                                    .pio/build/lptm4c1294ncpdt/src/NeonRTOS/lwip/arch/sys_arch.o
lwip_write                                        .pio/build/lptm4c1294ncpdt/src/NeonRTOS/lwip/api/sockets.o
lwip_writev                                       .pio/build/lptm4c1294ncpdt/src/NeonRTOS/lwip/api/sockets.o
main                                              .pio/build/lptm4c1294ncpdt/src/main.o
                                                  .pio/build/lptm4c1294ncpdt/src/Drivers/soc/startup_gcc.o
matherr                                           c:/users/user/.platformio/packages/toolchain-gccarmnoneeabi@1.40804.0/bin/../lib/gcc/arm-none-eabi/4.8.4/../../../../arm-none-eabi/lib/armv7e-m\libm.a(lib_a-s_matherr.o)
                                                  c:/users/user/.platformio/packages/toolchain-gccarmnoneeabi@1.40804.0/bin/../lib/gcc/arm-none-eabi/4.8.4/../../../../arm-none-eabi/lib/armv7e-m\libm.a(lib_a-w_pow.o)
mem_Free                                          .pio/build/lptm4c1294ncpdt/src/NeonRTOS/NeonRTOS.o
                                                  .pio/build/lptm4c1294ncpdt/src/NeonRTOS/NeonAppInterface.o
                                                  .pio/build/lptm4c1294ncpdt/src/NeonRTOS/HTTPd/heatshrink_decoder.o
                                                  .pio/build/lptm4c1294ncpdt/src/NeonRTOS/HTTPd/NeonRtFs.o
                                                  .pio/build/lptm4c1294ncpdt/src/NeonRTOS/HTTPd/HTTPd.o
                                                  .pio/build/lptm4c1294ncpdt/src/Drivers/W-Link/cJSON/cJSON.o
mem_Malloc                                        .pio/build/lptm4c1294ncpdt/src/NeonRTOS/NeonRTOS.o
                                                  .pio/build/lptm4c1294ncpdt/src/NeonRTOS/NeonAppInterface.o
                                                  .pio/build/lptm4c1294ncpdt/src/NeonRTOS/HTTPd/heatshrink_decoder.o
                                                  .pio/build/lptm4c1294ncpdt/src/NeonRTOS/HTTPd/NeonRtFs.o
                                                  .pio/build/lptm4c1294ncpdt/src/NeonRTOS/HTTPd/HTTPd.o
                                                  .pio/build/lptm4c1294ncpdt/src/Drivers/W-Link/cJSON/cJSON.o
mem_Realloc                                       .pio/build/lptm4c1294ncpdt/src/NeonRTOS/NeonRTOS.o
mem_calloc                                        .pio/build/lptm4c1294ncpdt/src/NeonRTOS/lwip/core/mem.o
                                                  .pio/build/lptm4c1294ncpdt/src/NeonRTOS/lwip/netif/bridgeif_fdb.o
mem_copy                                          .pio/build/lptm4c1294ncpdt/src/NeonRTOS/NeonRTOS.o
mem_free                                          .pio/build/lptm4c1294ncpdt/src/NeonRTOS/lwip/core/mem.o
                                                  .pio/build/lptm4c1294ncpdt/src/NeonRTOS/lwip/core/pbuf.o
                                                  .pio/build/lptm4c1294ncpdt/src/NeonRTOS/lwip/api/tcpip.o
mem_free_callback                                 .pio/build/lptm4c1294ncpdt/src/NeonRTOS/lwip/api/tcpip.o
mem_init                                          .pio/build/lptm4c1294ncpdt/src/NeonRTOS/lwip/core/mem.o
                                                  .pio/build/lptm4c1294ncpdt/src/NeonRTOS/lwip/core/init.o
mem_malloc                                        .pio/build/lptm4c1294ncpdt/src/NeonRTOS/lwip/core/mem.o
                                                  .pio/build/lptm4c1294ncpdt/src/NeonRTOS/lwip/core/pbuf.o
mem_set                                           .pio/build/lptm4c1294ncpdt/src/NeonRTOS/NeonRTOS.o
mem_trim                                          .pio/build/lptm4c1294ncpdt/src/NeonRTOS/lwip/core/mem.o
                                                  .pio/build/lptm4c1294ncpdt/src/NeonRTOS/lwip/core/pbuf.o
memchr                                            c:/users/user/.platformio/packages/toolchain-gccarmnoneeabi@1.40804.0/bin/../lib/gcc/arm-none-eabi/4.8.4/../../../../arm-none-eabi/lib/armv7e-m\libc.a(lib_a-memchr-stub.o)
                                                  c:/users/user/.platformio/packages/toolchain-gccarmnoneeabi@1.40804.0/bin/../lib/gcc/arm-none-eabi/4.8.4/../../../../arm-none-eabi/lib/armv7e-m\libc.a(lib_a-svfiprintf.o)
                                                  c:/users/user/.platformio/packages/toolchain-gccarmnoneeabi@1.40804.0/bin/../lib/gcc/arm-none-eabi/4.8.4/../../../../arm-none-eabi/lib/armv7e-m\libc.a(lib_a-svfprintf.o)
                                                  c:/users/user/.platformio/packages/toolchain-gccarmnoneeabi@1.40804.0/bin/../lib/gcc/arm-none-eabi/4.8.4/../../../../arm-none-eabi/lib/armv7e-m\libc.a(lib_a-strstr.o)
memcmp                                            c:/users/user/.platformio/packages/toolchain-gccarmnoneeabi@1.40804.0/bin/../lib/gcc/arm-none-eabi/4.8.4/../../../../arm-none-eabi/lib/armv7e-m\libc.a(lib_a-memcmp.o)
                                                  c:/users/user/.platformio/packages/toolchain-gccarmnoneeabi@1.40804.0/bin/../lib/gcc/arm-none-eabi/4.8.4/../../../../arm-none-eabi/lib/armv7e-m\libc.a(lib_a-strstr.o)
                                                  .pio/build/lptm4c1294ncpdt/src/NeonRTOS/lwip/netif/ethernet.o
                                                  .pio/build/lptm4c1294ncpdt/src/NeonRTOS/lwip/netif/bridgeif_fdb.o
                                                  .pio/build/lptm4c1294ncpdt/src/NeonRTOS/NeonAppInterface.o
memcpy                                            c:/users/user/.platformio/packages/toolchain-gccarmnoneeabi@1.40804.0/bin/../lib/gcc/arm-none-eabi/4.8.4/../../../../arm-none-eabi/lib/armv7e-m\libc.a(lib_a-memcpy.o)
                                                  c:/users/user/.platformio/packages/toolchain-gccarmnoneeabi@1.40804.0/bin/../lib/gcc/arm-none-eabi/4.8.4/../../../../arm-none-eabi/lib/armv7e-m\libc.a(lib_a-svfiprintf.o)
                                                  c:/users/user/.platformio/packages/toolchain-gccarmnoneeabi@1.40804.0/bin/../lib/gcc/arm-none-eabi/4.8.4/../../../../arm-none-eabi/lib/armv7e-m\libc.a(lib_a-mprec.o)
                                                  c:/users/user/.platformio/packages/toolchain-gccarmnoneeabi@1.40804.0/bin/../lib/gcc/arm-none-eabi/4.8.4/../../../../arm-none-eabi/lib/armv7e-m\libc.a(lib_a-dtoa.o)
                                                  .pio/build/lptm4c1294ncpdt/src/wrap_malloc.o
                                                  .pio/build/lptm4c1294ncpdt/src/NeonRTOS/lwip/core/tcp_out.o
                                                  .pio/build/lptm4c1294ncpdt/src/NeonRTOS/lwip/core/pbuf.o
                                                  .pio/build/lptm4c1294ncpdt/src/NeonRTOS/lwip/core/ipv4/icmp.o
                                                  .pio/build/lptm4c1294ncpdt/src/NeonRTOS/lwip/core/dns.o
                                                  .pio/build/lptm4c1294ncpdt/src/NeonRTOS/lwip/api/sockets.o
                                                  .pio/build/lptm4c1294ncpdt/src/NeonRTOS/lwip/api/netdb.o
                                                  .pio/build/lptm4c1294ncpdt/src/NeonRTOS/kernel/stream_buffer.o
                                                  .pio/build/lptm4c1294ncpdt/src/NeonRTOS/kernel/queue.o
                                                  .pio/build/lptm4c1294ncpdt/src/NeonRTOS/NeonRTOS.o
                                                  .pio/build/lptm4c1294ncpdt/src/NeonRTOS/NeonAppInterface.o
                                                  .pio/build/lptm4c1294ncpdt/src/NeonRTOS/HTTPd/heatshrink_decoder.o
                                                  .pio/build/lptm4c1294ncpdt/src/NeonRTOS/HTTPd/NeonRtFs.o
                                                  .pio/build/lptm4c1294ncpdt/src/NeonRTOS/HTTPd/HTTPd_Utils.o
                                                  .pio/build/lptm4c1294ncpdt/src/NeonRTOS/HTTPd/HTTPd.o
                                                  .pio/build/lptm4c1294ncpdt/src/Drivers/W-Link/cJSON/cJSON.o
                                                  .pio/build/lptm4c1294ncpdt/src/Drivers/W-Link/Misc/sha1.o
memmove                                           c:/users/user/.platformio/packages/toolchain-gccarmnoneeabi@1.40804.0/bin/../lib/gcc/arm-none-eabi/4.8.4/../../../../arm-none-eabi/lib/armv7e-m\libc.a(lib_a-memmove.o)
                                                  c:/users/user/.platformio/packages/toolchain-gccarmnoneeabi@1.40804.0/bin/../lib/gcc/arm-none-eabi/4.8.4/../../../../arm-none-eabi/lib/armv7e-m\libc.a(lib_a-svfiprintf.o)
                                                  .pio/build/lptm4c1294ncpdt/src/NeonRTOS/lwip/core/def.o
memp_FRAG_PBUF                                    .pio/build/lptm4c1294ncpdt/src/NeonRTOS/lwip/core/memp.o
memp_NETBUF                                       .pio/build/lptm4c1294ncpdt/src/NeonRTOS/lwip/core/memp.o
memp_NETCONN                                      .pio/build/lptm4c1294ncpdt/src/NeonRTOS/lwip/core/memp.o
memp_NETDB                                        .pio/build/lptm4c1294ncpdt/src/NeonRTOS/lwip/core/memp.o
memp_PBUF                                         .pio/build/lptm4c1294ncpdt/src/NeonRTOS/lwip/core/memp.o
memp_PBUF_POOL                                    .pio/build/lptm4c1294ncpdt/src/NeonRTOS/lwip/core/memp.o
memp_RAW_PCB                                      .pio/build/lptm4c1294ncpdt/src/NeonRTOS/lwip/core/memp.o
memp_REASSDATA                                    .pio/build/lptm4c1294ncpdt/src/NeonRTOS/lwip/core/memp.o
memp_SYS_TIMEOUT                                  .pio/build/lptm4c1294ncpdt/src/NeonRTOS/lwip/core/memp.o
memp_TCPIP_MSG_API                                .pio/build/lptm4c1294ncpdt/src/NeonRTOS/lwip/core/memp.o
memp_TCPIP_MSG_INPKT                              .pio/build/lptm4c1294ncpdt/src/NeonRTOS/lwip/core/memp.o
memp_TCP_PCB                                      .pio/build/lptm4c1294ncpdt/src/NeonRTOS/lwip/core/memp.o
memp_TCP_PCB_LISTEN                               .pio/build/lptm4c1294ncpdt/src/NeonRTOS/lwip/core/memp.o
memp_TCP_SEG                                      .pio/build/lptm4c1294ncpdt/src/NeonRTOS/lwip/core/memp.o
memp_UDP_PCB                                      .pio/build/lptm4c1294ncpdt/src/NeonRTOS/lwip/core/memp.o
memp_free                                         .pio/build/lptm4c1294ncpdt/src/NeonRTOS/lwip/core/memp.o
                                                  .pio/build/lptm4c1294ncpdt/src/NeonRTOS/lwip/core/udp.o
                                                  .pio/build/lptm4c1294ncpdt/src/NeonRTOS/lwip/core/timeouts.o
                                                  .pio/build/lptm4c1294ncpdt/src/NeonRTOS/lwip/core/tcp.o
                                                  .pio/build/lptm4c1294ncpdt/src/NeonRTOS/lwip/core/raw.o
                                                  .pio/build/lptm4c1294ncpdt/src/NeonRTOS/lwip/core/pbuf.o
                                                  .pio/build/lptm4c1294ncpdt/src/NeonRTOS/lwip/core/ipv4/ip4_frag.o
                                                  .pio/build/lptm4c1294ncpdt/src/NeonRTOS/lwip/api/tcpip.o
                                                  .pio/build/lptm4c1294ncpdt/src/NeonRTOS/lwip/api/netdb.o
                                                  .pio/build/lptm4c1294ncpdt/src/NeonRTOS/lwip/api/netbuf.o
                                                  .pio/build/lptm4c1294ncpdt/src/NeonRTOS/lwip/api/api_msg.o
                                                  .pio/build/lptm4c1294ncpdt/src/NeonRTOS/lwip/api/api_lib.o
memp_free_pool                                    .pio/build/lptm4c1294ncpdt/src/NeonRTOS/lwip/core/memp.o
memp_init                                         .pio/build/lptm4c1294ncpdt/src/NeonRTOS/lwip/core/memp.o
                                                  .pio/build/lptm4c1294ncpdt/src/NeonRTOS/lwip/core/init.o
memp_init_pool                                    .pio/build/lptm4c1294ncpdt/src/NeonRTOS/lwip/core/memp.o
memp_malloc                                       .pio/build/lptm4c1294ncpdt/src/NeonRTOS/lwip/core/memp.o
                                                  .pio/build/lptm4c1294ncpdt/src/NeonRTOS/lwip/core/udp.o
                                                  .pio/build/lptm4c1294ncpdt/src/NeonRTOS/lwip/core/timeouts.o
                                                  .pio/build/lptm4c1294ncpdt/src/NeonRTOS/lwip/core/tcp_out.o
                                                  .pio/build/lptm4c1294ncpdt/src/NeonRTOS/lwip/core/tcp.o
                                                  .pio/build/lptm4c1294ncpdt/src/NeonRTOS/lwip/core/raw.o
                                                  .pio/build/lptm4c1294ncpdt/src/NeonRTOS/lwip/core/pbuf.o
                                                  .pio/build/lptm4c1294ncpdt/src/NeonRTOS/lwip/core/ipv4/ip4_frag.o
                                                  .pio/build/lptm4c1294ncpdt/src/NeonRTOS/lwip/api/tcpip.o
                                                  .pio/build/lptm4c1294ncpdt/src/NeonRTOS/lwip/api/netdb.o
                                                  .pio/build/lptm4c1294ncpdt/src/NeonRTOS/lwip/api/netbuf.o
                                                  .pio/build/lptm4c1294ncpdt/src/NeonRTOS/lwip/api/api_msg.o
                                                  .pio/build/lptm4c1294ncpdt/src/NeonRTOS/lwip/api/api_lib.o
memp_malloc_pool                                  .pio/build/lptm4c1294ncpdt/src/NeonRTOS/lwip/core/memp.o
memp_memory_FRAG_PBUF_base                        .pio/build/lptm4c1294ncpdt/src/NeonRTOS/lwip/core/memp.o
memp_memory_NETBUF_base                           .pio/build/lptm4c1294ncpdt/src/NeonRTOS/lwip/core/memp.o
memp_memory_NETCONN_base                          .pio/build/lptm4c1294ncpdt/src/NeonRTOS/lwip/core/memp.o
memp_memory_NETDB_base                            .pio/build/lptm4c1294ncpdt/src/NeonRTOS/lwip/core/memp.o
memp_memory_PBUF_POOL_base                        .pio/build/lptm4c1294ncpdt/src/NeonRTOS/lwip/core/memp.o
memp_memory_PBUF_base                             .pio/build/lptm4c1294ncpdt/src/NeonRTOS/lwip/core/memp.o
memp_memory_RAW_PCB_base                          .pio/build/lptm4c1294ncpdt/src/NeonRTOS/lwip/core/memp.o
memp_memory_REASSDATA_base                        .pio/build/lptm4c1294ncpdt/src/NeonRTOS/lwip/core/memp.o
memp_memory_SYS_TIMEOUT_base                      .pio/build/lptm4c1294ncpdt/src/NeonRTOS/lwip/core/memp.o
memp_memory_TCPIP_MSG_API_base                    .pio/build/lptm4c1294ncpdt/src/NeonRTOS/lwip/core/memp.o
memp_memory_TCPIP_MSG_INPKT_base                  .pio/build/lptm4c1294ncpdt/src/NeonRTOS/lwip/core/memp.o
memp_memory_TCP_PCB_LISTEN_base                   .pio/build/lptm4c1294ncpdt/src/NeonRTOS/lwip/core/memp.o
memp_memory_TCP_PCB_base                          .pio/build/lptm4c1294ncpdt/src/NeonRTOS/lwip/core/memp.o
memp_memory_TCP_SEG_base                          .pio/build/lptm4c1294ncpdt/src/NeonRTOS/lwip/core/memp.o
memp_memory_UDP_PCB_base                          .pio/build/lptm4c1294ncpdt/src/NeonRTOS/lwip/core/memp.o
memp_pools                                        .pio/build/lptm4c1294ncpdt/src/NeonRTOS/lwip/core/memp.o
memset                                            c:/users/user/.platformio/packages/toolchain-gccarmnoneeabi@1.40804.0/bin/../lib/gcc/arm-none-eabi/4.8.4/../../../../arm-none-eabi/lib/armv7e-m\libc.a(lib_a-memset.o)
                                                  .pio/build/lptm4c1294ncpdt/src/wrap_malloc.o
                                                  .pio/build/lptm4c1294ncpdt/src/NeonRTOS/lwip/core/udp.o
                                                  .pio/build/lptm4c1294ncpdt/src/NeonRTOS/lwip/core/tcp_in.o
                                                  .pio/build/lptm4c1294ncpdt/src/NeonRTOS/lwip/core/tcp.o
                                                  .pio/build/lptm4c1294ncpdt/src/NeonRTOS/lwip/core/raw.o
                                                  .pio/build/lptm4c1294ncpdt/src/NeonRTOS/lwip/core/mem.o
                                                  .pio/build/lptm4c1294ncpdt/src/NeonRTOS/lwip/core/ipv4/ip4_frag.o
                                                  .pio/build/lptm4c1294ncpdt/src/NeonRTOS/lwip/core/dns.o
                                                  .pio/build/lptm4c1294ncpdt/src/NeonRTOS/lwip/api/sockets.o
                                                  .pio/build/lptm4c1294ncpdt/src/NeonRTOS/lwip/api/netdb.o
                                                  .pio/build/lptm4c1294ncpdt/src/NeonRTOS/lwip/api/netbuf.o
                                                  .pio/build/lptm4c1294ncpdt/src/NeonRTOS/kernel/timers.o
                                                  .pio/build/lptm4c1294ncpdt/src/NeonRTOS/kernel/tasks.o
                                                  .pio/build/lptm4c1294ncpdt/src/NeonRTOS/kernel/stream_buffer.o
                                                  .pio/build/lptm4c1294ncpdt/src/NeonRTOS/kernel/portable/MemMang/heap_4.o
                                                  .pio/build/lptm4c1294ncpdt/src/NeonRTOS/NeonRTOS.o
                                                  .pio/build/lptm4c1294ncpdt/src/NeonRTOS/NeonAppInterface.o
                                                  .pio/build/lptm4c1294ncpdt/src/NeonRTOS/HTTPd/heatshrink_decoder.o
                                                  .pio/build/lptm4c1294ncpdt/src/NeonRTOS/HTTPd/HTTPd_Utils.o
                                                  .pio/build/lptm4c1294ncpdt/src/NeonRTOS/HTTPd/HTTPd.o
                                                  .pio/build/lptm4c1294ncpdt/src/Drivers/W-Link/cJSON/cJSON.o
                                                  .pio/build/lptm4c1294ncpdt/src/Drivers/W-Link/Misc/sha1.o
                                                  .pio/build/lptm4c1294ncpdt/src/APP/LED_PWM_API.o
mimeTypes                                         .pio/build/lptm4c1294ncpdt/src/NeonRTOS/HTTPd/HTTPd_def.o
                                                  .pio/build/lptm4c1294ncpdt/src/NeonRTOS/HTTPd/HTTPd.o
nan                                               c:/users/user/.platformio/packages/toolchain-gccarmnoneeabi@1.40804.0/bin/../lib/gcc/arm-none-eabi/4.8.4/../../../../arm-none-eabi/lib/armv7e-m\libm.a(lib_a-s_nan.o)
                                                  c:/users/user/.platformio/packages/toolchain-gccarmnoneeabi@1.40804.0/bin/../lib/gcc/arm-none-eabi/4.8.4/../../../../arm-none-eabi/lib/armv7e-m\libm.a(lib_a-e_pow.o)
neonrtfs_img                                      .pio/build/lptm4c1294ncpdt/src/NeonRTOS/HTTPd/neonrtfs_img.o
                                                  .pio/build/lptm4c1294ncpdt/src/NeonRTOS/HTTPd/NeonRtFs.o
neonrtfs_img_len                                  .pio/build/lptm4c1294ncpdt/src/NeonRTOS/HTTPd/neonrtfs_img.o
netbuf_alloc                                      .pio/build/lptm4c1294ncpdt/src/NeonRTOS/lwip/api/netbuf.o
netbuf_chain                                      .pio/build/lptm4c1294ncpdt/src/NeonRTOS/lwip/api/netbuf.o
netbuf_data                                       .pio/build/lptm4c1294ncpdt/src/NeonRTOS/lwip/api/netbuf.o
netbuf_delete                                     .pio/build/lptm4c1294ncpdt/src/NeonRTOS/lwip/api/netbuf.o
                                                  .pio/build/lptm4c1294ncpdt/src/NeonRTOS/lwip/api/sockets.o
                                                  .pio/build/lptm4c1294ncpdt/src/NeonRTOS/lwip/api/api_msg.o
netbuf_first                                      .pio/build/lptm4c1294ncpdt/src/NeonRTOS/lwip/api/netbuf.o
netbuf_free                                       .pio/build/lptm4c1294ncpdt/src/NeonRTOS/lwip/api/netbuf.o
                                                  .pio/build/lptm4c1294ncpdt/src/NeonRTOS/lwip/api/sockets.o
netbuf_new                                        .pio/build/lptm4c1294ncpdt/src/NeonRTOS/lwip/api/netbuf.o
netbuf_next                                       .pio/build/lptm4c1294ncpdt/src/NeonRTOS/lwip/api/netbuf.o
netbuf_ref                                        .pio/build/lptm4c1294ncpdt/src/NeonRTOS/lwip/api/netbuf.o
                                                  .pio/build/lptm4c1294ncpdt/src/NeonRTOS/lwip/api/sockets.o
netconn_accept                                    .pio/build/lptm4c1294ncpdt/src/NeonRTOS/lwip/api/api_lib.o
                                                  .pio/build/lptm4c1294ncpdt/src/NeonRTOS/lwip/api/sockets.o
netconn_alloc                                     .pio/build/lptm4c1294ncpdt/src/NeonRTOS/lwip/api/api_msg.o
                                                  .pio/build/lptm4c1294ncpdt/src/NeonRTOS/lwip/api/api_lib.o
netconn_bind                                      .pio/build/lptm4c1294ncpdt/src/NeonRTOS/lwip/api/api_lib.o
                                                  .pio/build/lptm4c1294ncpdt/src/NeonRTOS/lwip/api/sockets.o
netconn_bind_if                                   .pio/build/lptm4c1294ncpdt/src/NeonRTOS/lwip/api/api_lib.o
netconn_close                                     .pio/build/lptm4c1294ncpdt/src/NeonRTOS/lwip/api/api_lib.o
netconn_connect                                   .pio/build/lptm4c1294ncpdt/src/NeonRTOS/lwip/api/api_lib.o
                                                  .pio/build/lptm4c1294ncpdt/src/NeonRTOS/lwip/api/sockets.o
netconn_delete                                    .pio/build/lptm4c1294ncpdt/src/NeonRTOS/lwip/api/api_lib.o
                                                  .pio/build/lptm4c1294ncpdt/src/NeonRTOS/lwip/api/sockets.o
netconn_disconnect                                .pio/build/lptm4c1294ncpdt/src/NeonRTOS/lwip/api/api_lib.o
                                                  .pio/build/lptm4c1294ncpdt/src/NeonRTOS/lwip/api/sockets.o
netconn_err                                       .pio/build/lptm4c1294ncpdt/src/NeonRTOS/lwip/api/api_lib.o
                                                  .pio/build/lptm4c1294ncpdt/src/NeonRTOS/lwip/api/sockets.o
                                                  .pio/build/lptm4c1294ncpdt/src/NeonRTOS/lwip/api/api_msg.o
netconn_free                                      .pio/build/lptm4c1294ncpdt/src/NeonRTOS/lwip/api/api_msg.o
                                                  .pio/build/lptm4c1294ncpdt/src/NeonRTOS/lwip/api/api_lib.o
netconn_getaddr                                   .pio/build/lptm4c1294ncpdt/src/NeonRTOS/lwip/api/api_lib.o
                                                  .pio/build/lptm4c1294ncpdt/src/NeonRTOS/lwip/api/sockets.o
netconn_gethostbyname                             .pio/build/lptm4c1294ncpdt/src/NeonRTOS/lwip/api/api_lib.o
                                                  .pio/build/lptm4c1294ncpdt/src/NeonRTOS/lwip/api/netdb.o
netconn_listen_with_backlog                       .pio/build/lptm4c1294ncpdt/src/NeonRTOS/lwip/api/api_lib.o
                                                  .pio/build/lptm4c1294ncpdt/src/NeonRTOS/lwip/api/sockets.o
netconn_new_with_proto_and_callback               .pio/build/lptm4c1294ncpdt/src/NeonRTOS/lwip/api/api_lib.o
                                                  .pio/build/lptm4c1294ncpdt/src/NeonRTOS/lwip/api/sockets.o
netconn_prepare_delete                            .pio/build/lptm4c1294ncpdt/src/NeonRTOS/lwip/api/api_lib.o
                                                  .pio/build/lptm4c1294ncpdt/src/NeonRTOS/lwip/api/sockets.o
netconn_recv                                      .pio/build/lptm4c1294ncpdt/src/NeonRTOS/lwip/api/api_lib.o
netconn_recv_tcp_pbuf                             .pio/build/lptm4c1294ncpdt/src/NeonRTOS/lwip/api/api_lib.o
netconn_recv_tcp_pbuf_flags                       .pio/build/lptm4c1294ncpdt/src/NeonRTOS/lwip/api/api_lib.o
                                                  .pio/build/lptm4c1294ncpdt/src/NeonRTOS/lwip/api/sockets.o
netconn_recv_udp_raw_netbuf                       .pio/build/lptm4c1294ncpdt/src/NeonRTOS/lwip/api/api_lib.o
netconn_recv_udp_raw_netbuf_flags                 .pio/build/lptm4c1294ncpdt/src/NeonRTOS/lwip/api/api_lib.o
                                                  .pio/build/lptm4c1294ncpdt/src/NeonRTOS/lwip/api/sockets.o
netconn_send                                      .pio/build/lptm4c1294ncpdt/src/NeonRTOS/lwip/api/api_lib.o
                                                  .pio/build/lptm4c1294ncpdt/src/NeonRTOS/lwip/api/sockets.o
netconn_sendto                                    .pio/build/lptm4c1294ncpdt/src/NeonRTOS/lwip/api/api_lib.o
netconn_shutdown                                  .pio/build/lptm4c1294ncpdt/src/NeonRTOS/lwip/api/api_lib.o
                                                  .pio/build/lptm4c1294ncpdt/src/NeonRTOS/lwip/api/sockets.o
netconn_tcp_recvd                                 .pio/build/lptm4c1294ncpdt/src/NeonRTOS/lwip/api/api_lib.o
                                                  .pio/build/lptm4c1294ncpdt/src/NeonRTOS/lwip/api/sockets.o
netconn_write_partly                              .pio/build/lptm4c1294ncpdt/src/NeonRTOS/lwip/api/api_lib.o
                                                  .pio/build/lptm4c1294ncpdt/src/NeonRTOS/lwip/api/sockets.o
netconn_write_vectors_partly                      .pio/build/lptm4c1294ncpdt/src/NeonRTOS/lwip/api/api_lib.o
                                                  .pio/build/lptm4c1294ncpdt/src/NeonRTOS/lwip/api/sockets.o
netif_add                                         .pio/build/lptm4c1294ncpdt/src/NeonRTOS/lwip/core/netif.o
                                                  .pio/build/lptm4c1294ncpdt/src/NeonRTOS/NeonTCPIP.o
netif_add_noaddr                                  .pio/build/lptm4c1294ncpdt/src/NeonRTOS/lwip/core/netif.o
netif_default                                     .pio/build/lptm4c1294ncpdt/src/NeonRTOS/lwip/core/netif.o
                                                  .pio/build/lptm4c1294ncpdt/src/NeonRTOS/lwip/core/ipv4/ip4.o
netif_find                                        .pio/build/lptm4c1294ncpdt/src/NeonRTOS/lwip/core/netif.o
                                                  .pio/build/lptm4c1294ncpdt/src/NeonRTOS/lwip/api/sockets.o
netif_get_by_index                                .pio/build/lptm4c1294ncpdt/src/NeonRTOS/lwip/core/netif.o
                                                  .pio/build/lptm4c1294ncpdt/src/NeonRTOS/lwip/core/udp.o
                                                  .pio/build/lptm4c1294ncpdt/src/NeonRTOS/lwip/core/tcp_out.o
                                                  .pio/build/lptm4c1294ncpdt/src/NeonRTOS/lwip/core/tcp.o
                                                  .pio/build/lptm4c1294ncpdt/src/NeonRTOS/lwip/core/raw.o
                                                  .pio/build/lptm4c1294ncpdt/src/NeonRTOS/lwip/api/api_msg.o
netif_index_to_name                               .pio/build/lptm4c1294ncpdt/src/NeonRTOS/lwip/core/netif.o
netif_init                                        .pio/build/lptm4c1294ncpdt/src/NeonRTOS/lwip/core/netif.o
                                                  .pio/build/lptm4c1294ncpdt/src/NeonRTOS/lwip/core/init.o
netif_input                                       .pio/build/lptm4c1294ncpdt/src/NeonRTOS/lwip/core/netif.o
netif_list                                        .pio/build/lptm4c1294ncpdt/src/NeonRTOS/lwip/core/netif.o
                                                  .pio/build/lptm4c1294ncpdt/src/NeonRTOS/lwip/core/ipv4/ip4.o
netif_name_to_index                               .pio/build/lptm4c1294ncpdt/src/NeonRTOS/lwip/core/netif.o
netif_remove                                      .pio/build/lptm4c1294ncpdt/src/NeonRTOS/lwip/core/netif.o
                                                  .pio/build/lptm4c1294ncpdt/src/NeonRTOS/NeonTCPIP.o
netif_set_addr                                    .pio/build/lptm4c1294ncpdt/src/NeonRTOS/lwip/core/netif.o
                                                  .pio/build/lptm4c1294ncpdt/src/NeonRTOS/NeonTCPIP.o
netif_set_default                                 .pio/build/lptm4c1294ncpdt/src/NeonRTOS/lwip/core/netif.o
                                                  .pio/build/lptm4c1294ncpdt/src/NeonRTOS/NeonTCPIP.o
netif_set_down                                    .pio/build/lptm4c1294ncpdt/src/NeonRTOS/lwip/core/netif.o
                                                  .pio/build/lptm4c1294ncpdt/src/NeonRTOS/NeonTCPIP.o
netif_set_gw                                      .pio/build/lptm4c1294ncpdt/src/NeonRTOS/lwip/core/netif.o
netif_set_ipaddr                                  .pio/build/lptm4c1294ncpdt/src/NeonRTOS/lwip/core/netif.o
netif_set_link_callback                           .pio/build/lptm4c1294ncpdt/src/NeonRTOS/lwip/core/netif.o
                                                  .pio/build/lptm4c1294ncpdt/src/NeonRTOS/NeonTCPIP.o
netif_set_link_down                               .pio/build/lptm4c1294ncpdt/src/NeonRTOS/lwip/core/netif.o
                                                  .pio/build/lptm4c1294ncpdt/src/Drivers/ethernetif/ethernetif_tm4c1294.o
netif_set_link_up                                 .pio/build/lptm4c1294ncpdt/src/NeonRTOS/lwip/core/netif.o
                                                  .pio/build/lptm4c1294ncpdt/src/Drivers/ethernetif/ethernetif_tm4c1294.o
netif_set_netmask                                 .pio/build/lptm4c1294ncpdt/src/NeonRTOS/lwip/core/netif.o
netif_set_status_callback                         .pio/build/lptm4c1294ncpdt/src/NeonRTOS/lwip/core/netif.o
netif_set_up                                      .pio/build/lptm4c1294ncpdt/src/NeonRTOS/lwip/core/netif.o
                                                  .pio/build/lptm4c1294ncpdt/src/NeonRTOS/NeonTCPIP.o
                                                  .pio/build/lptm4c1294ncpdt/src/Drivers/ethernetif/ethernetif_tm4c1294.o
pNetif                                            .pio/build/lptm4c1294ncpdt/src/Drivers/ethernetif/ethernetif_tm4c1294.o
parse_number                                      .pio/build/lptm4c1294ncpdt/src/Drivers/W-Link/cJSON/cJSON.o
pbuf_add_header                                   .pio/build/lptm4c1294ncpdt/src/NeonRTOS/lwip/core/pbuf.o
                                                  .pio/build/lptm4c1294ncpdt/src/NeonRTOS/lwip/netif/ethernet.o
                                                  .pio/build/lptm4c1294ncpdt/src/NeonRTOS/lwip/core/udp.o
                                                  .pio/build/lptm4c1294ncpdt/src/NeonRTOS/lwip/core/tcp_out.o
                                                  .pio/build/lptm4c1294ncpdt/src/NeonRTOS/lwip/core/raw.o
                                                  .pio/build/lptm4c1294ncpdt/src/NeonRTOS/lwip/core/ipv4/ip4.o
                                                  .pio/build/lptm4c1294ncpdt/src/NeonRTOS/lwip/core/ipv4/icmp.o
pbuf_add_header_force                             .pio/build/lptm4c1294ncpdt/src/NeonRTOS/lwip/core/pbuf.o
pbuf_alloc                                        .pio/build/lptm4c1294ncpdt/src/NeonRTOS/lwip/core/pbuf.o
                                                  .pio/build/lptm4c1294ncpdt/src/NeonRTOS/lwip/core/udp.o
                                                  .pio/build/lptm4c1294ncpdt/src/NeonRTOS/lwip/core/tcp_out.o
                                                  .pio/build/lptm4c1294ncpdt/src/NeonRTOS/lwip/core/raw.o
                                                  .pio/build/lptm4c1294ncpdt/src/NeonRTOS/lwip/core/ipv4/ip4_frag.o
                                                  .pio/build/lptm4c1294ncpdt/src/NeonRTOS/lwip/core/ipv4/icmp.o
                                                  .pio/build/lptm4c1294ncpdt/src/NeonRTOS/lwip/core/ipv4/etharp.o
                                                  .pio/build/lptm4c1294ncpdt/src/NeonRTOS/lwip/core/dns.o
                                                  .pio/build/lptm4c1294ncpdt/src/NeonRTOS/lwip/api/sockets.o
                                                  .pio/build/lptm4c1294ncpdt/src/NeonRTOS/lwip/api/netbuf.o
                                                  .pio/build/lptm4c1294ncpdt/src/Drivers/ethernetif/ethernetif_tm4c1294.o
pbuf_alloc_reference                              .pio/build/lptm4c1294ncpdt/src/NeonRTOS/lwip/core/pbuf.o
pbuf_alloced_custom                               .pio/build/lptm4c1294ncpdt/src/NeonRTOS/lwip/core/pbuf.o
                                                  .pio/build/lptm4c1294ncpdt/src/NeonRTOS/lwip/core/ipv4/ip4_frag.o
pbuf_cat                                          .pio/build/lptm4c1294ncpdt/src/NeonRTOS/lwip/core/pbuf.o
                                                  .pio/build/lptm4c1294ncpdt/src/NeonRTOS/lwip/core/tcp_out.o
                                                  .pio/build/lptm4c1294ncpdt/src/NeonRTOS/lwip/core/tcp_in.o
                                                  .pio/build/lptm4c1294ncpdt/src/NeonRTOS/lwip/core/ipv4/ip4_frag.o
                                                  .pio/build/lptm4c1294ncpdt/src/NeonRTOS/lwip/api/sockets.o
                                                  .pio/build/lptm4c1294ncpdt/src/NeonRTOS/lwip/api/netbuf.o
                                                  .pio/build/lptm4c1294ncpdt/src/Drivers/ethernetif/ethernetif_tm4c1294.o
pbuf_chain                                        .pio/build/lptm4c1294ncpdt/src/NeonRTOS/lwip/core/pbuf.o
                                                  .pio/build/lptm4c1294ncpdt/src/NeonRTOS/lwip/core/udp.o
                                                  .pio/build/lptm4c1294ncpdt/src/NeonRTOS/lwip/core/raw.o
pbuf_clen                                         .pio/build/lptm4c1294ncpdt/src/NeonRTOS/lwip/core/pbuf.o
                                                  .pio/build/lptm4c1294ncpdt/src/NeonRTOS/lwip/core/tcp_out.o
                                                  .pio/build/lptm4c1294ncpdt/src/NeonRTOS/lwip/core/tcp_in.o
                                                  .pio/build/lptm4c1294ncpdt/src/NeonRTOS/lwip/core/ipv4/ip4_frag.o
                                                  .pio/build/lptm4c1294ncpdt/src/Drivers/ethernetif/ethernetif_tm4c1294.o
pbuf_clone                                        .pio/build/lptm4c1294ncpdt/src/NeonRTOS/lwip/core/pbuf.o
                                                  .pio/build/lptm4c1294ncpdt/src/NeonRTOS/lwip/core/ipv4/etharp.o
                                                  .pio/build/lptm4c1294ncpdt/src/NeonRTOS/lwip/api/api_msg.o
pbuf_coalesce                                     .pio/build/lptm4c1294ncpdt/src/NeonRTOS/lwip/core/pbuf.o
pbuf_copy                                         .pio/build/lptm4c1294ncpdt/src/NeonRTOS/lwip/core/pbuf.o
                                                  .pio/build/lptm4c1294ncpdt/src/NeonRTOS/lwip/core/ipv4/icmp.o
                                                  .pio/build/lptm4c1294ncpdt/src/Drivers/ethernetif/ethernetif_tm4c1294.o
pbuf_copy_partial                                 .pio/build/lptm4c1294ncpdt/src/NeonRTOS/lwip/core/pbuf.o
                                                  .pio/build/lptm4c1294ncpdt/src/NeonRTOS/lwip/core/tcp_out.o
                                                  .pio/build/lptm4c1294ncpdt/src/NeonRTOS/lwip/core/dns.o
                                                  .pio/build/lptm4c1294ncpdt/src/NeonRTOS/lwip/api/sockets.o
pbuf_copy_partial_pbuf                            .pio/build/lptm4c1294ncpdt/src/NeonRTOS/lwip/core/pbuf.o
                                                  .pio/build/lptm4c1294ncpdt/src/NeonRTOS/lwip/core/ipv4/icmp.o
pbuf_dechain                                      .pio/build/lptm4c1294ncpdt/src/NeonRTOS/lwip/core/pbuf.o
pbuf_free                                         .pio/build/lptm4c1294ncpdt/src/NeonRTOS/lwip/core/pbuf.o
                                                  .pio/build/lptm4c1294ncpdt/src/NeonRTOS/lwip/netif/ethernet.o
                                                  .pio/build/lptm4c1294ncpdt/src/NeonRTOS/lwip/core/udp.o
                                                  .pio/build/lptm4c1294ncpdt/src/NeonRTOS/lwip/core/tcp_out.o
                                                  .pio/build/lptm4c1294ncpdt/src/NeonRTOS/lwip/core/tcp_in.o
                                                  .pio/build/lptm4c1294ncpdt/src/NeonRTOS/lwip/core/tcp.o
                                                  .pio/build/lptm4c1294ncpdt/src/NeonRTOS/lwip/core/raw.o
                                                  .pio/build/lptm4c1294ncpdt/src/NeonRTOS/lwip/core/ipv4/ip4_frag.o
                                                  .pio/build/lptm4c1294ncpdt/src/NeonRTOS/lwip/core/ipv4/ip4.o
                                                  .pio/build/lptm4c1294ncpdt/src/NeonRTOS/lwip/core/ipv4/icmp.o
                                                  .pio/build/lptm4c1294ncpdt/src/NeonRTOS/lwip/core/ipv4/etharp.o
                                                  .pio/build/lptm4c1294ncpdt/src/NeonRTOS/lwip/core/dns.o
                                                  .pio/build/lptm4c1294ncpdt/src/NeonRTOS/lwip/api/tcpip.o
                                                  .pio/build/lptm4c1294ncpdt/src/NeonRTOS/lwip/api/sockets.o
                                                  .pio/build/lptm4c1294ncpdt/src/NeonRTOS/lwip/api/netbuf.o
                                                  .pio/build/lptm4c1294ncpdt/src/NeonRTOS/lwip/api/api_msg.o
                                                  .pio/build/lptm4c1294ncpdt/src/Drivers/ethernetif/ethernetif_tm4c1294.o
pbuf_free_callback                                .pio/build/lptm4c1294ncpdt/src/NeonRTOS/lwip/api/tcpip.o
pbuf_free_header                                  .pio/build/lptm4c1294ncpdt/src/NeonRTOS/lwip/core/pbuf.o
                                                  .pio/build/lptm4c1294ncpdt/src/NeonRTOS/lwip/api/sockets.o
pbuf_free_ooseq_pending                           .pio/build/lptm4c1294ncpdt/src/NeonRTOS/lwip/core/pbuf.o
pbuf_get_at                                       .pio/build/lptm4c1294ncpdt/src/NeonRTOS/lwip/core/pbuf.o
pbuf_get_contiguous                               .pio/build/lptm4c1294ncpdt/src/NeonRTOS/lwip/core/pbuf.o
pbuf_header                                       .pio/build/lptm4c1294ncpdt/src/NeonRTOS/lwip/core/pbuf.o
pbuf_header_force                                 .pio/build/lptm4c1294ncpdt/src/NeonRTOS/lwip/core/pbuf.o
                                                  .pio/build/lptm4c1294ncpdt/src/NeonRTOS/lwip/core/udp.o
                                                  .pio/build/lptm4c1294ncpdt/src/NeonRTOS/lwip/core/ipv4/ip4.o
pbuf_memcmp                                       .pio/build/lptm4c1294ncpdt/src/NeonRTOS/lwip/core/pbuf.o
pbuf_memfind                                      .pio/build/lptm4c1294ncpdt/src/NeonRTOS/lwip/core/pbuf.o
pbuf_put_at                                       .pio/build/lptm4c1294ncpdt/src/NeonRTOS/lwip/core/pbuf.o
                                                  .pio/build/lptm4c1294ncpdt/src/NeonRTOS/lwip/core/dns.o
pbuf_realloc                                      .pio/build/lptm4c1294ncpdt/src/NeonRTOS/lwip/core/pbuf.o
                                                  .pio/build/lptm4c1294ncpdt/src/NeonRTOS/lwip/core/tcp_out.o
                                                  .pio/build/lptm4c1294ncpdt/src/NeonRTOS/lwip/core/tcp_in.o
                                                  .pio/build/lptm4c1294ncpdt/src/NeonRTOS/lwip/core/ipv4/ip4.o
pbuf_ref                                          .pio/build/lptm4c1294ncpdt/src/NeonRTOS/lwip/core/pbuf.o
                                                  .pio/build/lptm4c1294ncpdt/src/NeonRTOS/lwip/core/tcp.o
                                                  .pio/build/lptm4c1294ncpdt/src/NeonRTOS/lwip/core/ipv4/ip4_frag.o
                                                  .pio/build/lptm4c1294ncpdt/src/NeonRTOS/lwip/core/ipv4/etharp.o
                                                  .pio/build/lptm4c1294ncpdt/src/Drivers/ethernetif/ethernetif_tm4c1294.o
pbuf_remove_header                                .pio/build/lptm4c1294ncpdt/src/NeonRTOS/lwip/core/pbuf.o
                                                  .pio/build/lptm4c1294ncpdt/src/NeonRTOS/lwip/netif/ethernet.o
                                                  .pio/build/lptm4c1294ncpdt/src/NeonRTOS/lwip/core/udp.o
                                                  .pio/build/lptm4c1294ncpdt/src/NeonRTOS/lwip/core/tcp_in.o
                                                  .pio/build/lptm4c1294ncpdt/src/NeonRTOS/lwip/core/raw.o
                                                  .pio/build/lptm4c1294ncpdt/src/NeonRTOS/lwip/core/ipv4/ip4_frag.o
                                                  .pio/build/lptm4c1294ncpdt/src/NeonRTOS/lwip/core/ipv4/ip4.o
                                                  .pio/build/lptm4c1294ncpdt/src/NeonRTOS/lwip/core/ipv4/icmp.o
pbuf_skip                                         .pio/build/lptm4c1294ncpdt/src/NeonRTOS/lwip/core/pbuf.o
pbuf_strstr                                       .pio/build/lptm4c1294ncpdt/src/NeonRTOS/lwip/core/pbuf.o
pbuf_take                                         .pio/build/lptm4c1294ncpdt/src/NeonRTOS/lwip/core/pbuf.o
                                                  .pio/build/lptm4c1294ncpdt/src/NeonRTOS/lwip/core/dns.o
pbuf_take_at                                      .pio/build/lptm4c1294ncpdt/src/NeonRTOS/lwip/core/pbuf.o
                                                  .pio/build/lptm4c1294ncpdt/src/NeonRTOS/lwip/core/dns.o
pbuf_try_get_at                                   .pio/build/lptm4c1294ncpdt/src/NeonRTOS/lwip/core/pbuf.o
                                                  .pio/build/lptm4c1294ncpdt/src/NeonRTOS/lwip/core/dns.o
pcQueueGetName                                    .pio/build/lptm4c1294ncpdt/src/NeonRTOS/kernel/queue.o
pcTaskGetName                                     .pio/build/lptm4c1294ncpdt/src/NeonRTOS/kernel/tasks.o
pcTimerGetName                                    .pio/build/lptm4c1294ncpdt/src/NeonRTOS/kernel/timers.o
pow                                               c:/users/user/.platformio/packages/toolchain-gccarmnoneeabi@1.40804.0/bin/../lib/gcc/arm-none-eabi/4.8.4/../../../../arm-none-eabi/lib/armv7e-m\libm.a(lib_a-w_pow.o)
                                                  .pio/build/lptm4c1294ncpdt/src/Drivers/W-Link/cJSON/cJSON.o
                                                  .pio/build/lptm4c1294ncpdt/src/Drivers/W-Link/Misc/ftoa.o
pvPortCalloc                                      .pio/build/lptm4c1294ncpdt/src/NeonRTOS/kernel/portable/MemMang/heap_4.o
pvPortMalloc                                      .pio/build/lptm4c1294ncpdt/src/NeonRTOS/kernel/portable/MemMang/heap_4.o
                                                  .pio/build/lptm4c1294ncpdt/src/wrap_malloc.o
                                                  .pio/build/lptm4c1294ncpdt/src/NeonRTOS/kernel/timers.o
                                                  .pio/build/lptm4c1294ncpdt/src/NeonRTOS/kernel/tasks.o
                                                  .pio/build/lptm4c1294ncpdt/src/NeonRTOS/kernel/stream_buffer.o
                                                  .pio/build/lptm4c1294ncpdt/src/NeonRTOS/kernel/queue.o
                                                  .pio/build/lptm4c1294ncpdt/src/NeonRTOS/kernel/event_groups.o
                                                  .pio/build/lptm4c1294ncpdt/src/NeonRTOS/kernel/croutine.o
                                                  .pio/build/lptm4c1294ncpdt/src/NeonRTOS/NeonRTOS.o
pvTaskIncrementMutexHeldCount                     .pio/build/lptm4c1294ncpdt/src/NeonRTOS/kernel/tasks.o
                                                  .pio/build/lptm4c1294ncpdt/src/NeonRTOS/kernel/queue.o
pvTimerGetTimerID                                 .pio/build/lptm4c1294ncpdt/src/NeonRTOS/kernel/timers.o
                                                  .pio/build/lptm4c1294ncpdt/src/NeonRTOS/NeonRTOS.o
pxCurrentCoRoutine                                .pio/build/lptm4c1294ncpdt/src/NeonRTOS/kernel/croutine.o
pxCurrentTCB                                      .pio/build/lptm4c1294ncpdt/src/NeonRTOS/kernel/tasks.o
                                                  .pio/build/lptm4c1294ncpdt/src/NeonRTOS/kernel/portable/GCC/ARM_CM4F/port.o
pxPortInitialiseStack                             .pio/build/lptm4c1294ncpdt/src/NeonRTOS/kernel/portable/GCC/ARM_CM4F/port.o
                                                  .pio/build/lptm4c1294ncpdt/src/NeonRTOS/kernel/tasks.o
ram_heap                                          .pio/build/lptm4c1294ncpdt/src/NeonRTOS/lwip/core/mem.o
rand                                              c:/users/user/.platformio/packages/toolchain-gccarmnoneeabi@1.40804.0/bin/../lib/gcc/arm-none-eabi/4.8.4/../../../../arm-none-eabi/lib/armv7e-m\libc.a(lib_a-rand.o)
                                                  .pio/build/lptm4c1294ncpdt/src/NeonRTOS/lwip/core/udp.o
                                                  .pio/build/lptm4c1294ncpdt/src/NeonRTOS/lwip/core/tcp.o
                                                  .pio/build/lptm4c1294ncpdt/src/NeonRTOS/lwip/core/dns.o
raw_bind                                          .pio/build/lptm4c1294ncpdt/src/NeonRTOS/lwip/core/raw.o
                                                  .pio/build/lptm4c1294ncpdt/src/NeonRTOS/lwip/api/api_msg.o
raw_bind_netif                                    .pio/build/lptm4c1294ncpdt/src/NeonRTOS/lwip/core/raw.o
                                                  .pio/build/lptm4c1294ncpdt/src/NeonRTOS/lwip/api/sockets.o
                                                  .pio/build/lptm4c1294ncpdt/src/NeonRTOS/lwip/api/api_msg.o
raw_connect                                       .pio/build/lptm4c1294ncpdt/src/NeonRTOS/lwip/core/raw.o
                                                  .pio/build/lptm4c1294ncpdt/src/NeonRTOS/lwip/api/api_msg.o
raw_disconnect                                    .pio/build/lptm4c1294ncpdt/src/NeonRTOS/lwip/core/raw.o
raw_input                                         .pio/build/lptm4c1294ncpdt/src/NeonRTOS/lwip/core/raw.o
                                                  .pio/build/lptm4c1294ncpdt/src/NeonRTOS/lwip/core/ipv4/ip4.o
raw_netif_ip_addr_changed                         .pio/build/lptm4c1294ncpdt/src/NeonRTOS/lwip/core/raw.o
                                                  .pio/build/lptm4c1294ncpdt/src/NeonRTOS/lwip/core/netif.o
raw_new                                           .pio/build/lptm4c1294ncpdt/src/NeonRTOS/lwip/core/raw.o
raw_new_ip_type                                   .pio/build/lptm4c1294ncpdt/src/NeonRTOS/lwip/core/raw.o
                                                  .pio/build/lptm4c1294ncpdt/src/NeonRTOS/lwip/api/api_msg.o
raw_recv                                          .pio/build/lptm4c1294ncpdt/src/NeonRTOS/lwip/core/raw.o
                                                  .pio/build/lptm4c1294ncpdt/src/NeonRTOS/lwip/api/api_msg.o
raw_remove                                        .pio/build/lptm4c1294ncpdt/src/NeonRTOS/lwip/core/raw.o
                                                  .pio/build/lptm4c1294ncpdt/src/NeonRTOS/lwip/api/api_msg.o
raw_send                                          .pio/build/lptm4c1294ncpdt/src/NeonRTOS/lwip/core/raw.o
                                                  .pio/build/lptm4c1294ncpdt/src/NeonRTOS/lwip/api/api_msg.o
raw_sendto                                        .pio/build/lptm4c1294ncpdt/src/NeonRTOS/lwip/core/raw.o
                                                  .pio/build/lptm4c1294ncpdt/src/NeonRTOS/lwip/api/api_msg.o
raw_sendto_if_src                                 .pio/build/lptm4c1294ncpdt/src/NeonRTOS/lwip/core/raw.o
readFlashUnaligned                                .pio/build/lptm4c1294ncpdt/src/NeonRTOS/HTTPd/NeonRtFs.o
rint                                              c:/users/user/.platformio/packages/toolchain-gccarmnoneeabi@1.40804.0/bin/../lib/gcc/arm-none-eabi/4.8.4/../../../../arm-none-eabi/lib/armv7e-m\libm.a(lib_a-s_rint.o)
                                                  c:/users/user/.platformio/packages/toolchain-gccarmnoneeabi@1.40804.0/bin/../lib/gcc/arm-none-eabi/4.8.4/../../../../arm-none-eabi/lib/armv7e-m\libm.a(lib_a-w_pow.o)
scalbn                                            c:/users/user/.platformio/packages/toolchain-gccarmnoneeabi@1.40804.0/bin/../lib/gcc/arm-none-eabi/4.8.4/../../../../arm-none-eabi/lib/armv7e-m\libm.a(lib_a-s_scalbn.o)
                                                  c:/users/user/.platformio/packages/toolchain-gccarmnoneeabi@1.40804.0/bin/../lib/gcc/arm-none-eabi/4.8.4/../../../../arm-none-eabi/lib/armv7e-m\libm.a(lib_a-e_pow.o)
setlocale                                         c:/users/user/.platformio/packages/toolchain-gccarmnoneeabi@1.40804.0/bin/../lib/gcc/arm-none-eabi/4.8.4/../../../../arm-none-eabi/lib/armv7e-m\libc.a(lib_a-locale.o)
sha1_addUncounted                                 .pio/build/lptm4c1294ncpdt/src/Drivers/W-Link/Misc/sha1.o
sha1_hashBlock                                    .pio/build/lptm4c1294ncpdt/src/Drivers/W-Link/Misc/sha1.o
sha1_init                                         .pio/build/lptm4c1294ncpdt/src/Drivers/W-Link/Misc/sha1.o
                                                  .pio/build/lptm4c1294ncpdt/src/NeonRTOS/HTTPd/HTTPd.o
sha1_initHmac                                     .pio/build/lptm4c1294ncpdt/src/Drivers/W-Link/Misc/sha1.o
sha1_pad                                          .pio/build/lptm4c1294ncpdt/src/Drivers/W-Link/Misc/sha1.o
sha1_result                                       .pio/build/lptm4c1294ncpdt/src/Drivers/W-Link/Misc/sha1.o
                                                  .pio/build/lptm4c1294ncpdt/src/NeonRTOS/HTTPd/HTTPd.o
sha1_resultHmac                                   .pio/build/lptm4c1294ncpdt/src/Drivers/W-Link/Misc/sha1.o
sha1_rol32                                        .pio/build/lptm4c1294ncpdt/src/Drivers/W-Link/Misc/sha1.o
sha1_write                                        .pio/build/lptm4c1294ncpdt/src/Drivers/W-Link/Misc/sha1.o
                                                  .pio/build/lptm4c1294ncpdt/src/NeonRTOS/HTTPd/HTTPd.o
sha1_writebyte                                    .pio/build/lptm4c1294ncpdt/src/Drivers/W-Link/Misc/sha1.o
snprintf                                          c:/users/user/.platformio/packages/toolchain-gccarmnoneeabi@1.40804.0/bin/../lib/gcc/arm-none-eabi/4.8.4/../../../../arm-none-eabi/lib/armv7e-m\libc.a(lib_a-snprintf.o)
                                                  .pio/build/lptm4c1294ncpdt/src/NeonRTOS/NeonTCPIP.o
sprintf                                           c:/users/user/.platformio/packages/toolchain-gccarmnoneeabi@1.40804.0/bin/../lib/gcc/arm-none-eabi/4.8.4/../../../../arm-none-eabi/lib/armv7e-m\libc.a(lib_a-sprintf.o)
                                                  .pio/build/lptm4c1294ncpdt/src/NeonRTOS/HTTPd/HTTPd_Utils.o
                                                  .pio/build/lptm4c1294ncpdt/src/NeonRTOS/HTTPd/HTTPd.o
                                                  .pio/build/lptm4c1294ncpdt/src/Drivers/W-Link/cJSON/cJSON.o
                                                  .pio/build/lptm4c1294ncpdt/src/Drivers/W-Link/Misc/itoa.o
                                                  .pio/build/lptm4c1294ncpdt/src/Drivers/W-Link/Misc/ftoa.o
srand                                             c:/users/user/.platformio/packages/toolchain-gccarmnoneeabi@1.40804.0/bin/../lib/gcc/arm-none-eabi/4.8.4/../../../../arm-none-eabi/lib/armv7e-m\libc.a(lib_a-rand.o)
strcat                                            c:/users/user/.platformio/packages/toolchain-gccarmnoneeabi@1.40804.0/bin/../lib/gcc/arm-none-eabi/4.8.4/../../../../arm-none-eabi/lib/armv7e-m\libc.a(lib_a-strcat.o)
                                                  .pio/build/lptm4c1294ncpdt/src/NeonRTOS/HTTPd/HTTPd.o
strchr                                            c:/users/user/.platformio/packages/toolchain-gccarmnoneeabi@1.40804.0/bin/../lib/gcc/arm-none-eabi/4.8.4/../../../../arm-none-eabi/lib/armv7e-m\libc.a(lib_a-strchr.o)
                                                  c:/users/user/.platformio/packages/toolchain-gccarmnoneeabi@1.40804.0/bin/../lib/gcc/arm-none-eabi/4.8.4/../../../../arm-none-eabi/lib/armv7e-m\libc.a(lib_a-strstr.o)
                                                  .pio/build/lptm4c1294ncpdt/src/NeonRTOS/HTTPd/HTTPd.o
                                                  .pio/build/lptm4c1294ncpdt/src/Drivers/W-Link/cJSON/cJSON.o
strcmp                                            c:/users/user/.platformio/packages/toolchain-gccarmnoneeabi@1.40804.0/bin/../lib/gcc/arm-none-eabi/4.8.4/../../../../arm-none-eabi/lib/armv7e-m\libc.a(lib_a-strcmp.o)
                                                  c:/users/user/.platformio/packages/toolchain-gccarmnoneeabi@1.40804.0/bin/../lib/gcc/arm-none-eabi/4.8.4/../../../../arm-none-eabi/lib/armv7e-m\libc.a(lib_a-locale.o)
                                                  .pio/build/lptm4c1294ncpdt/src/NeonRTOS/NeonAppInterface.o
                                                  .pio/build/lptm4c1294ncpdt/src/NeonRTOS/HTTPd/HTTPd.o
                                                  .pio/build/lptm4c1294ncpdt/src/APP/LED_PWM_APP.o
strcpy                                            c:/users/user/.platformio/packages/toolchain-gccarmnoneeabi@1.40804.0/bin/../lib/gcc/arm-none-eabi/4.8.4/../../../../arm-none-eabi/lib/armv7e-m\libc.a(lib_a-strcpy.o)
                                                  c:/users/user/.platformio/packages/toolchain-gccarmnoneeabi@1.40804.0/bin/../lib/gcc/arm-none-eabi/4.8.4/../../../../arm-none-eabi/lib/armv7e-m\libc.a(lib_a-strcat.o)
                                                  .pio/build/lptm4c1294ncpdt/src/NeonRTOS/HTTPd/HTTPd_Utils.o
                                                  .pio/build/lptm4c1294ncpdt/src/Drivers/W-Link/cJSON/cJSON.o
strlen                                            c:/users/user/.platformio/packages/toolchain-gccarmnoneeabi@1.40804.0/bin/../lib/gcc/arm-none-eabi/4.8.4/../../../../arm-none-eabi/lib/armv7e-m\libc.a(lib_a-strlen.o)
                                                  c:/users/user/.platformio/packages/toolchain-gccarmnoneeabi@1.40804.0/bin/../lib/gcc/arm-none-eabi/4.8.4/../../../../arm-none-eabi/lib/armv7e-m\libc.a(lib_a-svfiprintf.o)
                                                  c:/users/user/.platformio/packages/toolchain-gccarmnoneeabi@1.40804.0/bin/../lib/gcc/arm-none-eabi/4.8.4/../../../../arm-none-eabi/lib/armv7e-m\libc.a(lib_a-svfprintf.o)
                                                  .pio/build/lptm4c1294ncpdt/src/NeonRTOS/lwip/core/pbuf.o
                                                  .pio/build/lptm4c1294ncpdt/src/NeonRTOS/lwip/core/dns.o
                                                  .pio/build/lptm4c1294ncpdt/src/NeonRTOS/lwip/core/def.o
                                                  .pio/build/lptm4c1294ncpdt/src/NeonRTOS/lwip/api/netdb.o
                                                  .pio/build/lptm4c1294ncpdt/src/NeonRTOS/NeonAppInterface.o
                                                  .pio/build/lptm4c1294ncpdt/src/NeonRTOS/HTTPd/NeonRtFs.o
                                                  .pio/build/lptm4c1294ncpdt/src/NeonRTOS/HTTPd/HTTPd_Utils.o
                                                  .pio/build/lptm4c1294ncpdt/src/NeonRTOS/HTTPd/HTTPd.o
                                                  .pio/build/lptm4c1294ncpdt/src/Drivers/W-Link/cJSON/cJSON.o
strncmp                                           c:/users/user/.platformio/packages/toolchain-gccarmnoneeabi@1.40804.0/bin/../lib/gcc/arm-none-eabi/4.8.4/../../../../arm-none-eabi/lib/armv7e-m\libc.a(lib_a-strncmp.o)
                                                  .pio/build/lptm4c1294ncpdt/src/NeonRTOS/lwip/core/def.o
                                                  .pio/build/lptm4c1294ncpdt/src/NeonRTOS/HTTPd/NeonRtFs.o
                                                  .pio/build/lptm4c1294ncpdt/src/NeonRTOS/HTTPd/HTTPd_Utils.o
                                                  .pio/build/lptm4c1294ncpdt/src/NeonRTOS/HTTPd/HTTPd.o
                                                  .pio/build/lptm4c1294ncpdt/src/Drivers/W-Link/cJSON/cJSON.o
strncpy                                           c:/users/user/.platformio/packages/toolchain-gccarmnoneeabi@1.40804.0/bin/../lib/gcc/arm-none-eabi/4.8.4/../../../../arm-none-eabi/lib/armv7e-m\libc.a(lib_a-strncpy.o)
                                                  .pio/build/lptm4c1294ncpdt/src/NeonRTOS/lwip/api/netdb.o
strstr                                            c:/users/user/.platformio/packages/toolchain-gccarmnoneeabi@1.40804.0/bin/../lib/gcc/arm-none-eabi/4.8.4/../../../../arm-none-eabi/lib/armv7e-m\libc.a(lib_a-strstr.o)
                                                  .pio/build/lptm4c1294ncpdt/src/NeonRTOS/HTTPd/HTTPd_Utils.o
                                                  .pio/build/lptm4c1294ncpdt/src/NeonRTOS/HTTPd/HTTPd.o
strtol                                            c:/users/user/.platformio/packages/toolchain-gccarmnoneeabi@1.40804.0/bin/../lib/gcc/arm-none-eabi/4.8.4/../../../../arm-none-eabi/lib/armv7e-m\libc.a(lib_a-strtol.o)
                                                  c:/users/user/.platformio/packages/toolchain-gccarmnoneeabi@1.40804.0/bin/../lib/gcc/arm-none-eabi/4.8.4/../../../../arm-none-eabi/lib/armv7e-m\libc.a(lib_a-atoi.o)
                                                  .pio/build/lptm4c1294ncpdt/src/NeonRTOS/HTTPd/HTTPd.o
sys_arch_mbox_fetch                               .pio/build/lptm4c1294ncpdt/src/NeonRTOS/lwip/arch/sys_arch.o
                                                  .pio/build/lptm4c1294ncpdt/src/NeonRTOS/lwip/api/tcpip.o
                                                  .pio/build/lptm4c1294ncpdt/src/NeonRTOS/lwip/api/api_lib.o
sys_arch_mbox_tryfetch                            .pio/build/lptm4c1294ncpdt/src/NeonRTOS/lwip/arch/sys_arch.o
                                                  .pio/build/lptm4c1294ncpdt/src/NeonRTOS/lwip/api/api_msg.o
                                                  .pio/build/lptm4c1294ncpdt/src/NeonRTOS/lwip/api/api_lib.o
sys_arch_sem_wait                                 .pio/build/lptm4c1294ncpdt/src/NeonRTOS/lwip/arch/sys_arch.o
                                                  .pio/build/lptm4c1294ncpdt/src/NeonRTOS/lwip/core/sys.o
                                                  .pio/build/lptm4c1294ncpdt/src/NeonRTOS/lwip/api/sockets.o
                                                  .pio/build/lptm4c1294ncpdt/src/NeonRTOS/lwip/api/api_msg.o
sys_check_timeouts                                .pio/build/lptm4c1294ncpdt/src/NeonRTOS/lwip/core/timeouts.o
                                                  .pio/build/lptm4c1294ncpdt/src/NeonRTOS/lwip/api/tcpip.o
                                                  .pio/build/lptm4c1294ncpdt/src/NeonRTOS/NeonTCPIP.o
sys_init                                          .pio/build/lptm4c1294ncpdt/src/NeonRTOS/lwip/arch/sys_arch.o
                                                  .pio/build/lptm4c1294ncpdt/src/NeonRTOS/lwip/core/init.o
sys_mbox_free                                     .pio/build/lptm4c1294ncpdt/src/NeonRTOS/lwip/arch/sys_arch.o
                                                  .pio/build/lptm4c1294ncpdt/src/NeonRTOS/lwip/api/api_msg.o
                                                  .pio/build/lptm4c1294ncpdt/src/NeonRTOS/lwip/api/api_lib.o
sys_mbox_new                                      .pio/build/lptm4c1294ncpdt/src/NeonRTOS/lwip/arch/sys_arch.o
                                                  .pio/build/lptm4c1294ncpdt/src/NeonRTOS/lwip/api/tcpip.o
                                                  .pio/build/lptm4c1294ncpdt/src/NeonRTOS/lwip/api/api_msg.o
sys_mbox_post                                     .pio/build/lptm4c1294ncpdt/src/NeonRTOS/lwip/arch/sys_arch.o
                                                  .pio/build/lptm4c1294ncpdt/src/NeonRTOS/lwip/api/tcpip.o
sys_mbox_set_invalid                              .pio/build/lptm4c1294ncpdt/src/NeonRTOS/lwip/arch/sys_arch.o
                                                  .pio/build/lptm4c1294ncpdt/src/NeonRTOS/lwip/api/api_msg.o
sys_mbox_trypost                                  .pio/build/lptm4c1294ncpdt/src/NeonRTOS/lwip/arch/sys_arch.o
                                                  .pio/build/lptm4c1294ncpdt/src/NeonRTOS/lwip/api/tcpip.o
                                                  .pio/build/lptm4c1294ncpdt/src/NeonRTOS/lwip/api/api_msg.o
sys_mbox_trypost_fromisr                          .pio/build/lptm4c1294ncpdt/src/NeonRTOS/lwip/arch/sys_arch.o
                                                  .pio/build/lptm4c1294ncpdt/src/NeonRTOS/lwip/api/tcpip.o
sys_mbox_valid                                    .pio/build/lptm4c1294ncpdt/src/NeonRTOS/lwip/arch/sys_arch.o
                                                  .pio/build/lptm4c1294ncpdt/src/NeonRTOS/lwip/api/api_msg.o
                                                  .pio/build/lptm4c1294ncpdt/src/NeonRTOS/lwip/api/api_lib.o
sys_msleep                                        .pio/build/lptm4c1294ncpdt/src/NeonRTOS/lwip/core/sys.o
sys_mutex_free                                    .pio/build/lptm4c1294ncpdt/src/NeonRTOS/lwip/arch/sys_arch.o
sys_mutex_lock                                    .pio/build/lptm4c1294ncpdt/src/NeonRTOS/lwip/arch/sys_arch.o
                                                  .pio/build/lptm4c1294ncpdt/src/NeonRTOS/lwip/core/mem.o
                                                  .pio/build/lptm4c1294ncpdt/src/NeonRTOS/lwip/api/tcpip.o
                                                  .pio/build/lptm4c1294ncpdt/src/NeonRTOS/lwip/api/sockets.o
                                                  .pio/build/lptm4c1294ncpdt/src/NeonRTOS/lwip/api/api_msg.o
sys_mutex_new                                     .pio/build/lptm4c1294ncpdt/src/NeonRTOS/lwip/arch/sys_arch.o
                                                  .pio/build/lptm4c1294ncpdt/src/NeonRTOS/lwip/core/mem.o
                                                  .pio/build/lptm4c1294ncpdt/src/NeonRTOS/lwip/api/tcpip.o
sys_mutex_unlock                                  .pio/build/lptm4c1294ncpdt/src/NeonRTOS/lwip/arch/sys_arch.o
                                                  .pio/build/lptm4c1294ncpdt/src/NeonRTOS/lwip/core/mem.o
                                                  .pio/build/lptm4c1294ncpdt/src/NeonRTOS/lwip/api/tcpip.o
                                                  .pio/build/lptm4c1294ncpdt/src/NeonRTOS/lwip/api/sockets.o
                                                  .pio/build/lptm4c1294ncpdt/src/NeonRTOS/lwip/api/api_msg.o
sys_now                                           .pio/build/lptm4c1294ncpdt/src/Drivers/ethernetif/ethernetif_tm4c1294.o
                                                  .pio/build/lptm4c1294ncpdt/src/NeonRTOS/lwip/core/timeouts.o
                                                  .pio/build/lptm4c1294ncpdt/src/NeonRTOS/lwip/api/api_msg.o
                                                  .pio/build/lptm4c1294ncpdt/src/NeonRTOS/lwip/api/api_lib.o
sys_restart_timeouts                              .pio/build/lptm4c1294ncpdt/src/NeonRTOS/lwip/core/timeouts.o
sys_sem_free                                      .pio/build/lptm4c1294ncpdt/src/NeonRTOS/lwip/arch/sys_arch.o
                                                  .pio/build/lptm4c1294ncpdt/src/NeonRTOS/lwip/core/sys.o
                                                  .pio/build/lptm4c1294ncpdt/src/NeonRTOS/lwip/api/sockets.o
                                                  .pio/build/lptm4c1294ncpdt/src/NeonRTOS/lwip/api/api_msg.o
                                                  .pio/build/lptm4c1294ncpdt/src/NeonRTOS/lwip/api/api_lib.o
sys_sem_new                                       .pio/build/lptm4c1294ncpdt/src/NeonRTOS/lwip/arch/sys_arch.o
                                                  .pio/build/lptm4c1294ncpdt/src/NeonRTOS/lwip/core/sys.o
                                                  .pio/build/lptm4c1294ncpdt/src/NeonRTOS/lwip/api/sockets.o
                                                  .pio/build/lptm4c1294ncpdt/src/NeonRTOS/lwip/api/api_msg.o
                                                  .pio/build/lptm4c1294ncpdt/src/NeonRTOS/lwip/api/api_lib.o
sys_sem_set_invalid                               .pio/build/lptm4c1294ncpdt/src/NeonRTOS/lwip/arch/sys_arch.o
                                                  .pio/build/lptm4c1294ncpdt/src/NeonRTOS/lwip/api/api_msg.o
sys_sem_signal                                    .pio/build/lptm4c1294ncpdt/src/NeonRTOS/lwip/arch/sys_arch.o
                                                  .pio/build/lptm4c1294ncpdt/src/NeonRTOS/lwip/api/sockets.o
                                                  .pio/build/lptm4c1294ncpdt/src/NeonRTOS/lwip/api/api_msg.o
sys_sem_valid                                     .pio/build/lptm4c1294ncpdt/src/NeonRTOS/lwip/arch/sys_arch.o
                                                  .pio/build/lptm4c1294ncpdt/src/NeonRTOS/lwip/api/api_msg.o
sys_thread_new                                    .pio/build/lptm4c1294ncpdt/src/NeonRTOS/lwip/arch/sys_arch.o
                                                  .pio/build/lptm4c1294ncpdt/src/NeonRTOS/lwip/api/tcpip.o
sys_timeout                                       .pio/build/lptm4c1294ncpdt/src/NeonRTOS/lwip/core/timeouts.o
                                                  .pio/build/lptm4c1294ncpdt/src/NeonRTOS/lwip/netif/bridgeif_fdb.o
sys_timeouts_init                                 .pio/build/lptm4c1294ncpdt/src/NeonRTOS/lwip/core/timeouts.o
                                                  .pio/build/lptm4c1294ncpdt/src/NeonRTOS/lwip/core/init.o
sys_timeouts_sleeptime                            .pio/build/lptm4c1294ncpdt/src/NeonRTOS/lwip/core/timeouts.o
                                                  .pio/build/lptm4c1294ncpdt/src/NeonRTOS/lwip/api/tcpip.o
sys_untimeout                                     .pio/build/lptm4c1294ncpdt/src/NeonRTOS/lwip/core/timeouts.o
tcp_abandon                                       .pio/build/lptm4c1294ncpdt/src/NeonRTOS/lwip/core/tcp.o
                                                  .pio/build/lptm4c1294ncpdt/src/NeonRTOS/lwip/core/tcp_in.o
tcp_abort                                         .pio/build/lptm4c1294ncpdt/src/NeonRTOS/lwip/core/tcp.o
                                                  .pio/build/lptm4c1294ncpdt/src/NeonRTOS/lwip/core/tcp_in.o
                                                  .pio/build/lptm4c1294ncpdt/src/NeonRTOS/lwip/api/api_msg.o
tcp_accept                                        .pio/build/lptm4c1294ncpdt/src/NeonRTOS/lwip/core/tcp.o
                                                  .pio/build/lptm4c1294ncpdt/src/NeonRTOS/lwip/api/api_msg.o
tcp_active_pcbs                                   .pio/build/lptm4c1294ncpdt/src/NeonRTOS/lwip/core/timeouts.o
                                                  .pio/build/lptm4c1294ncpdt/src/NeonRTOS/lwip/core/tcp_in.o
                                                  .pio/build/lptm4c1294ncpdt/src/NeonRTOS/lwip/core/tcp.o
                                                  .pio/build/lptm4c1294ncpdt/src/NeonRTOS/lwip/core/pbuf.o
tcp_active_pcbs_changed                           .pio/build/lptm4c1294ncpdt/src/NeonRTOS/lwip/core/tcp_in.o
                                                  .pio/build/lptm4c1294ncpdt/src/NeonRTOS/lwip/core/tcp.o
tcp_alloc                                         .pio/build/lptm4c1294ncpdt/src/NeonRTOS/lwip/core/tcp.o
                                                  .pio/build/lptm4c1294ncpdt/src/NeonRTOS/lwip/core/tcp_in.o
tcp_arg                                           .pio/build/lptm4c1294ncpdt/src/NeonRTOS/lwip/core/tcp.o
                                                  .pio/build/lptm4c1294ncpdt/src/NeonRTOS/lwip/api/api_msg.o
tcp_bind                                          .pio/build/lptm4c1294ncpdt/src/NeonRTOS/lwip/core/tcp.o
                                                  .pio/build/lptm4c1294ncpdt/src/NeonRTOS/lwip/api/api_msg.o
tcp_bind_netif                                    .pio/build/lptm4c1294ncpdt/src/NeonRTOS/lwip/core/tcp.o
                                                  .pio/build/lptm4c1294ncpdt/src/NeonRTOS/lwip/api/sockets.o
                                                  .pio/build/lptm4c1294ncpdt/src/NeonRTOS/lwip/api/api_msg.o
tcp_bound_pcbs                                    .pio/build/lptm4c1294ncpdt/src/NeonRTOS/lwip/core/tcp.o
tcp_close                                         .pio/build/lptm4c1294ncpdt/src/NeonRTOS/lwip/core/tcp.o
                                                  .pio/build/lptm4c1294ncpdt/src/NeonRTOS/lwip/api/api_msg.o
tcp_connect                                       .pio/build/lptm4c1294ncpdt/src/NeonRTOS/lwip/core/tcp.o
                                                  .pio/build/lptm4c1294ncpdt/src/NeonRTOS/lwip/api/api_msg.o
tcp_debug_state_str                               .pio/build/lptm4c1294ncpdt/src/NeonRTOS/lwip/core/tcp.o
tcp_eff_send_mss_netif                            .pio/build/lptm4c1294ncpdt/src/NeonRTOS/lwip/core/tcp.o
                                                  .pio/build/lptm4c1294ncpdt/src/NeonRTOS/lwip/core/tcp_out.o
                                                  .pio/build/lptm4c1294ncpdt/src/NeonRTOS/lwip/core/tcp_in.o
tcp_enqueue_flags                                 .pio/build/lptm4c1294ncpdt/src/NeonRTOS/lwip/core/tcp_out.o
                                                  .pio/build/lptm4c1294ncpdt/src/NeonRTOS/lwip/core/tcp_in.o
                                                  .pio/build/lptm4c1294ncpdt/src/NeonRTOS/lwip/core/tcp.o
tcp_err                                           .pio/build/lptm4c1294ncpdt/src/NeonRTOS/lwip/core/tcp.o
                                                  .pio/build/lptm4c1294ncpdt/src/NeonRTOS/lwip/api/api_msg.o
tcp_fasttmr                                       .pio/build/lptm4c1294ncpdt/src/NeonRTOS/lwip/core/tcp.o
tcp_free                                          .pio/build/lptm4c1294ncpdt/src/NeonRTOS/lwip/core/tcp.o
                                                  .pio/build/lptm4c1294ncpdt/src/NeonRTOS/lwip/core/tcp_in.o
tcp_free_ooseq                                    .pio/build/lptm4c1294ncpdt/src/NeonRTOS/lwip/core/tcp.o
                                                  .pio/build/lptm4c1294ncpdt/src/NeonRTOS/lwip/core/pbuf.o
tcp_init                                          .pio/build/lptm4c1294ncpdt/src/NeonRTOS/lwip/core/tcp.o
                                                  .pio/build/lptm4c1294ncpdt/src/NeonRTOS/lwip/core/init.o
tcp_input                                         .pio/build/lptm4c1294ncpdt/src/NeonRTOS/lwip/core/tcp_in.o
                                                  .pio/build/lptm4c1294ncpdt/src/NeonRTOS/lwip/core/ipv4/ip4.o
tcp_input_pcb                                     .pio/build/lptm4c1294ncpdt/src/NeonRTOS/lwip/core/tcp_out.o
                                                  .pio/build/lptm4c1294ncpdt/src/NeonRTOS/lwip/core/tcp_in.o
                                                  .pio/build/lptm4c1294ncpdt/src/NeonRTOS/lwip/core/tcp.o
tcp_keepalive                                     .pio/build/lptm4c1294ncpdt/src/NeonRTOS/lwip/core/tcp_out.o
                                                  .pio/build/lptm4c1294ncpdt/src/NeonRTOS/lwip/core/tcp.o
tcp_listen_pcbs                                   .pio/build/lptm4c1294ncpdt/src/NeonRTOS/lwip/core/tcp_in.o
                                                  .pio/build/lptm4c1294ncpdt/src/NeonRTOS/lwip/core/tcp.o
tcp_listen_with_backlog                           .pio/build/lptm4c1294ncpdt/src/NeonRTOS/lwip/core/tcp.o
tcp_listen_with_backlog_and_err                   .pio/build/lptm4c1294ncpdt/src/NeonRTOS/lwip/core/tcp.o
                                                  .pio/build/lptm4c1294ncpdt/src/NeonRTOS/lwip/api/api_msg.o
tcp_netif_ip_addr_changed                         .pio/build/lptm4c1294ncpdt/src/NeonRTOS/lwip/core/tcp.o
                                                  .pio/build/lptm4c1294ncpdt/src/NeonRTOS/lwip/core/netif.o
tcp_new                                           .pio/build/lptm4c1294ncpdt/src/NeonRTOS/lwip/core/tcp.o
tcp_new_ip_type                                   .pio/build/lptm4c1294ncpdt/src/NeonRTOS/lwip/core/tcp.o
                                                  .pio/build/lptm4c1294ncpdt/src/NeonRTOS/lwip/api/api_msg.o
tcp_next_iss                                      .pio/build/lptm4c1294ncpdt/src/NeonRTOS/lwip/core/tcp.o
                                                  .pio/build/lptm4c1294ncpdt/src/NeonRTOS/lwip/core/tcp_in.o
tcp_output                                        .pio/build/lptm4c1294ncpdt/src/NeonRTOS/lwip/core/tcp_out.o
                                                  .pio/build/lptm4c1294ncpdt/src/NeonRTOS/lwip/core/tcp_in.o
                                                  .pio/build/lptm4c1294ncpdt/src/NeonRTOS/lwip/core/tcp.o
                                                  .pio/build/lptm4c1294ncpdt/src/NeonRTOS/lwip/api/api_msg.o
tcp_pcb_lists                                     .pio/build/lptm4c1294ncpdt/src/NeonRTOS/lwip/core/tcp.o
tcp_pcb_purge                                     .pio/build/lptm4c1294ncpdt/src/NeonRTOS/lwip/core/tcp.o
                                                  .pio/build/lptm4c1294ncpdt/src/NeonRTOS/lwip/core/tcp_in.o
tcp_pcb_remove                                    .pio/build/lptm4c1294ncpdt/src/NeonRTOS/lwip/core/tcp.o
                                                  .pio/build/lptm4c1294ncpdt/src/NeonRTOS/lwip/core/tcp_in.o
tcp_poll                                          .pio/build/lptm4c1294ncpdt/src/NeonRTOS/lwip/core/tcp.o
                                                  .pio/build/lptm4c1294ncpdt/src/NeonRTOS/lwip/api/api_msg.o
tcp_process_refused_data                          .pio/build/lptm4c1294ncpdt/src/NeonRTOS/lwip/core/tcp.o
                                                  .pio/build/lptm4c1294ncpdt/src/NeonRTOS/lwip/core/tcp_in.o
tcp_recv                                          .pio/build/lptm4c1294ncpdt/src/NeonRTOS/lwip/core/tcp.o
                                                  .pio/build/lptm4c1294ncpdt/src/NeonRTOS/lwip/api/api_msg.o
tcp_recv_null                                     .pio/build/lptm4c1294ncpdt/src/NeonRTOS/lwip/core/tcp.o
                                                  .pio/build/lptm4c1294ncpdt/src/NeonRTOS/lwip/core/tcp_in.o
tcp_recved                                        .pio/build/lptm4c1294ncpdt/src/NeonRTOS/lwip/core/tcp.o
                                                  .pio/build/lptm4c1294ncpdt/src/NeonRTOS/lwip/api/api_msg.o
tcp_rexmit                                        .pio/build/lptm4c1294ncpdt/src/NeonRTOS/lwip/core/tcp_out.o
                                                  .pio/build/lptm4c1294ncpdt/src/NeonRTOS/lwip/core/tcp_in.o
tcp_rexmit_fast                                   .pio/build/lptm4c1294ncpdt/src/NeonRTOS/lwip/core/tcp_out.o
                                                  .pio/build/lptm4c1294ncpdt/src/NeonRTOS/lwip/core/tcp_in.o
tcp_rexmit_rto                                    .pio/build/lptm4c1294ncpdt/src/NeonRTOS/lwip/core/tcp_out.o
                                                  .pio/build/lptm4c1294ncpdt/src/NeonRTOS/lwip/core/tcp_in.o
tcp_rexmit_rto_commit                             .pio/build/lptm4c1294ncpdt/src/NeonRTOS/lwip/core/tcp_out.o
                                                  .pio/build/lptm4c1294ncpdt/src/NeonRTOS/lwip/core/tcp.o
tcp_rexmit_rto_prepare                            .pio/build/lptm4c1294ncpdt/src/NeonRTOS/lwip/core/tcp_out.o
                                                  .pio/build/lptm4c1294ncpdt/src/NeonRTOS/lwip/core/tcp.o
tcp_rst                                           .pio/build/lptm4c1294ncpdt/src/NeonRTOS/lwip/core/tcp_out.o
                                                  .pio/build/lptm4c1294ncpdt/src/NeonRTOS/lwip/core/tcp_in.o
                                                  .pio/build/lptm4c1294ncpdt/src/NeonRTOS/lwip/core/tcp.o
tcp_rst_netif                                     .pio/build/lptm4c1294ncpdt/src/NeonRTOS/lwip/core/tcp_out.o
                                                  .pio/build/lptm4c1294ncpdt/src/NeonRTOS/lwip/core/tcp_in.o
tcp_seg_copy                                      .pio/build/lptm4c1294ncpdt/src/NeonRTOS/lwip/core/tcp.o
                                                  .pio/build/lptm4c1294ncpdt/src/NeonRTOS/lwip/core/tcp_in.o
tcp_seg_free                                      .pio/build/lptm4c1294ncpdt/src/NeonRTOS/lwip/core/tcp.o
                                                  .pio/build/lptm4c1294ncpdt/src/NeonRTOS/lwip/core/tcp_out.o
                                                  .pio/build/lptm4c1294ncpdt/src/NeonRTOS/lwip/core/tcp_in.o
tcp_segs_free                                     .pio/build/lptm4c1294ncpdt/src/NeonRTOS/lwip/core/tcp.o
                                                  .pio/build/lptm4c1294ncpdt/src/NeonRTOS/lwip/core/tcp_out.o
                                                  .pio/build/lptm4c1294ncpdt/src/NeonRTOS/lwip/core/tcp_in.o
tcp_send_empty_ack                                .pio/build/lptm4c1294ncpdt/src/NeonRTOS/lwip/core/tcp_out.o
                                                  .pio/build/lptm4c1294ncpdt/src/NeonRTOS/lwip/core/tcp_in.o
tcp_send_fin                                      .pio/build/lptm4c1294ncpdt/src/NeonRTOS/lwip/core/tcp_out.o
                                                  .pio/build/lptm4c1294ncpdt/src/NeonRTOS/lwip/core/tcp.o
tcp_sent                                          .pio/build/lptm4c1294ncpdt/src/NeonRTOS/lwip/core/tcp.o
                                                  .pio/build/lptm4c1294ncpdt/src/NeonRTOS/lwip/api/api_msg.o
tcp_setprio                                       .pio/build/lptm4c1294ncpdt/src/NeonRTOS/lwip/core/tcp.o
tcp_shutdown                                      .pio/build/lptm4c1294ncpdt/src/NeonRTOS/lwip/core/tcp.o
                                                  .pio/build/lptm4c1294ncpdt/src/NeonRTOS/lwip/api/api_msg.o
tcp_slowtmr                                       .pio/build/lptm4c1294ncpdt/src/NeonRTOS/lwip/core/tcp.o
tcp_split_unsent_seg                              .pio/build/lptm4c1294ncpdt/src/NeonRTOS/lwip/core/tcp_out.o
                                                  .pio/build/lptm4c1294ncpdt/src/NeonRTOS/lwip/core/tcp.o
tcp_tcp_get_tcp_addrinfo                          .pio/build/lptm4c1294ncpdt/src/NeonRTOS/lwip/core/tcp.o
tcp_ticks                                         .pio/build/lptm4c1294ncpdt/src/NeonRTOS/lwip/core/tcp_out.o
                                                  .pio/build/lptm4c1294ncpdt/src/NeonRTOS/lwip/core/tcp_in.o
                                                  .pio/build/lptm4c1294ncpdt/src/NeonRTOS/lwip/core/tcp.o
tcp_timer_needed                                  .pio/build/lptm4c1294ncpdt/src/NeonRTOS/lwip/core/timeouts.o
                                                  .pio/build/lptm4c1294ncpdt/src/NeonRTOS/lwip/core/tcp_in.o
                                                  .pio/build/lptm4c1294ncpdt/src/NeonRTOS/lwip/core/tcp.o
tcp_tmr                                           .pio/build/lptm4c1294ncpdt/src/NeonRTOS/lwip/core/tcp.o
                                                  .pio/build/lptm4c1294ncpdt/src/NeonRTOS/lwip/core/timeouts.o
tcp_trigger_input_pcb_close                       .pio/build/lptm4c1294ncpdt/src/NeonRTOS/lwip/core/tcp_in.o
                                                  .pio/build/lptm4c1294ncpdt/src/NeonRTOS/lwip/core/tcp.o
tcp_tw_pcbs                                       .pio/build/lptm4c1294ncpdt/src/NeonRTOS/lwip/core/timeouts.o
                                                  .pio/build/lptm4c1294ncpdt/src/NeonRTOS/lwip/core/tcp_in.o
                                                  .pio/build/lptm4c1294ncpdt/src/NeonRTOS/lwip/core/tcp.o
tcp_txnow                                         .pio/build/lptm4c1294ncpdt/src/NeonRTOS/lwip/core/tcp.o
tcp_update_rcv_ann_wnd                            .pio/build/lptm4c1294ncpdt/src/NeonRTOS/lwip/core/tcp.o
                                                  .pio/build/lptm4c1294ncpdt/src/NeonRTOS/lwip/core/tcp_in.o
tcp_write                                         .pio/build/lptm4c1294ncpdt/src/NeonRTOS/lwip/core/tcp_out.o
                                                  .pio/build/lptm4c1294ncpdt/src/NeonRTOS/lwip/api/api_msg.o
tcp_zero_window_probe                             .pio/build/lptm4c1294ncpdt/src/NeonRTOS/lwip/core/tcp_out.o
                                                  .pio/build/lptm4c1294ncpdt/src/NeonRTOS/lwip/core/tcp.o
tcpip_api_call                                    .pio/build/lptm4c1294ncpdt/src/NeonRTOS/lwip/api/tcpip.o
tcpip_callback                                    .pio/build/lptm4c1294ncpdt/src/NeonRTOS/lwip/api/tcpip.o
tcpip_callback_wait                               .pio/build/lptm4c1294ncpdt/src/NeonRTOS/lwip/api/tcpip.o
tcpip_callbackmsg_delete                          .pio/build/lptm4c1294ncpdt/src/NeonRTOS/lwip/api/tcpip.o
tcpip_callbackmsg_new                             .pio/build/lptm4c1294ncpdt/src/NeonRTOS/lwip/api/tcpip.o
tcpip_callbackmsg_trycallback                     .pio/build/lptm4c1294ncpdt/src/NeonRTOS/lwip/api/tcpip.o
tcpip_callbackmsg_trycallback_fromisr             .pio/build/lptm4c1294ncpdt/src/NeonRTOS/lwip/api/tcpip.o
tcpip_init                                        .pio/build/lptm4c1294ncpdt/src/NeonRTOS/lwip/api/tcpip.o
tcpip_inpkt                                       .pio/build/lptm4c1294ncpdt/src/NeonRTOS/lwip/api/tcpip.o
tcpip_input                                       .pio/build/lptm4c1294ncpdt/src/NeonRTOS/lwip/api/tcpip.o
tcpip_send_msg_wait_sem                           .pio/build/lptm4c1294ncpdt/src/NeonRTOS/lwip/api/tcpip.o
                                                  .pio/build/lptm4c1294ncpdt/src/NeonRTOS/lwip/api/api_lib.o
tcpip_try_callback                                .pio/build/lptm4c1294ncpdt/src/NeonRTOS/lwip/api/tcpip.o
                                                  .pio/build/lptm4c1294ncpdt/src/NeonRTOS/lwip/core/pbuf.o
tivaif_initDMADescriptors                         .pio/build/lptm4c1294ncpdt/src/Drivers/ethernetif/ethernetif_tm4c1294.o
tivaif_process_phy_interrupt                      .pio/build/lptm4c1294ncpdt/src/Drivers/ethernetif/ethernetif_tm4c1294.o
u8_to_ip_addr                                     .pio/build/lptm4c1294ncpdt/src/NeonRTOS/NeonTCPIP.o
uDMAChannelAssign                                 .pio/build/lptm4c1294ncpdt/src/Drivers/soc/driverlib/udma.o
uDMAChannelAttributeDisable                       .pio/build/lptm4c1294ncpdt/src/Drivers/soc/driverlib/udma.o
uDMAChannelAttributeEnable                        .pio/build/lptm4c1294ncpdt/src/Drivers/soc/driverlib/udma.o
uDMAChannelAttributeGet                           .pio/build/lptm4c1294ncpdt/src/Drivers/soc/driverlib/udma.o
uDMAChannelControlSet                             .pio/build/lptm4c1294ncpdt/src/Drivers/soc/driverlib/udma.o
uDMAChannelDisable                                .pio/build/lptm4c1294ncpdt/src/Drivers/soc/driverlib/udma.o
uDMAChannelEnable                                 .pio/build/lptm4c1294ncpdt/src/Drivers/soc/driverlib/udma.o
uDMAChannelIsEnabled                              .pio/build/lptm4c1294ncpdt/src/Drivers/soc/driverlib/udma.o
uDMAChannelModeGet                                .pio/build/lptm4c1294ncpdt/src/Drivers/soc/driverlib/udma.o
uDMAChannelRequest                                .pio/build/lptm4c1294ncpdt/src/Drivers/soc/driverlib/udma.o
uDMAChannelScatterGatherSet                       .pio/build/lptm4c1294ncpdt/src/Drivers/soc/driverlib/udma.o
uDMAChannelSelectDefault                          .pio/build/lptm4c1294ncpdt/src/Drivers/soc/driverlib/udma.o
uDMAChannelSelectSecondary                        .pio/build/lptm4c1294ncpdt/src/Drivers/soc/driverlib/udma.o
uDMAChannelSizeGet                                .pio/build/lptm4c1294ncpdt/src/Drivers/soc/driverlib/udma.o
uDMAChannelTransferSet                            .pio/build/lptm4c1294ncpdt/src/Drivers/soc/driverlib/udma.o
uDMAControlAlternateBaseGet                       .pio/build/lptm4c1294ncpdt/src/Drivers/soc/driverlib/udma.o
uDMAControlBaseGet                                .pio/build/lptm4c1294ncpdt/src/Drivers/soc/driverlib/udma.o
uDMAControlBaseSet                                .pio/build/lptm4c1294ncpdt/src/Drivers/soc/driverlib/udma.o
uDMADisable                                       .pio/build/lptm4c1294ncpdt/src/Drivers/soc/driverlib/udma.o
uDMAEnable                                        .pio/build/lptm4c1294ncpdt/src/Drivers/soc/driverlib/udma.o
uDMAErrorStatusClear                              .pio/build/lptm4c1294ncpdt/src/Drivers/soc/driverlib/udma.o
uDMAErrorStatusGet                                .pio/build/lptm4c1294ncpdt/src/Drivers/soc/driverlib/udma.o
uDMAIntClear                                      .pio/build/lptm4c1294ncpdt/src/Drivers/soc/driverlib/udma.o
uDMAIntRegister                                   .pio/build/lptm4c1294ncpdt/src/Drivers/soc/driverlib/udma.o
uDMAIntStatus                                     .pio/build/lptm4c1294ncpdt/src/Drivers/soc/driverlib/udma.o
uDMAIntUnregister                                 .pio/build/lptm4c1294ncpdt/src/Drivers/soc/driverlib/udma.o
ucQueueGetQueueType                               .pio/build/lptm4c1294ncpdt/src/NeonRTOS/kernel/queue.o
ucStreamBufferGetStreamBufferType                 .pio/build/lptm4c1294ncpdt/src/NeonRTOS/kernel/stream_buffer.o
udp_bind                                          .pio/build/lptm4c1294ncpdt/src/NeonRTOS/lwip/core/udp.o
                                                  .pio/build/lptm4c1294ncpdt/src/NeonRTOS/lwip/core/dns.o
                                                  .pio/build/lptm4c1294ncpdt/src/NeonRTOS/lwip/api/api_msg.o
udp_bind_netif                                    .pio/build/lptm4c1294ncpdt/src/NeonRTOS/lwip/core/udp.o
                                                  .pio/build/lptm4c1294ncpdt/src/NeonRTOS/lwip/api/sockets.o
                                                  .pio/build/lptm4c1294ncpdt/src/NeonRTOS/lwip/api/api_msg.o
udp_connect                                       .pio/build/lptm4c1294ncpdt/src/NeonRTOS/lwip/core/udp.o
                                                  .pio/build/lptm4c1294ncpdt/src/NeonRTOS/lwip/api/api_msg.o
udp_disconnect                                    .pio/build/lptm4c1294ncpdt/src/NeonRTOS/lwip/core/udp.o
                                                  .pio/build/lptm4c1294ncpdt/src/NeonRTOS/lwip/api/api_msg.o
udp_init                                          .pio/build/lptm4c1294ncpdt/src/NeonRTOS/lwip/core/udp.o
                                                  .pio/build/lptm4c1294ncpdt/src/NeonRTOS/lwip/core/init.o
udp_input                                         .pio/build/lptm4c1294ncpdt/src/NeonRTOS/lwip/core/udp.o
                                                  .pio/build/lptm4c1294ncpdt/src/NeonRTOS/lwip/core/ipv4/ip4.o
udp_netif_ip_addr_changed                         .pio/build/lptm4c1294ncpdt/src/NeonRTOS/lwip/core/udp.o
                                                  .pio/build/lptm4c1294ncpdt/src/NeonRTOS/lwip/core/netif.o
udp_new                                           .pio/build/lptm4c1294ncpdt/src/NeonRTOS/lwip/core/udp.o
udp_new_ip_type                                   .pio/build/lptm4c1294ncpdt/src/NeonRTOS/lwip/core/udp.o
                                                  .pio/build/lptm4c1294ncpdt/src/NeonRTOS/lwip/core/dns.o
                                                  .pio/build/lptm4c1294ncpdt/src/NeonRTOS/lwip/api/api_msg.o
udp_pcbs                                          .pio/build/lptm4c1294ncpdt/src/NeonRTOS/lwip/core/udp.o
udp_recv                                          .pio/build/lptm4c1294ncpdt/src/NeonRTOS/lwip/core/udp.o
                                                  .pio/build/lptm4c1294ncpdt/src/NeonRTOS/lwip/core/dns.o
                                                  .pio/build/lptm4c1294ncpdt/src/NeonRTOS/lwip/api/api_msg.o
udp_remove                                        .pio/build/lptm4c1294ncpdt/src/NeonRTOS/lwip/core/udp.o
                                                  .pio/build/lptm4c1294ncpdt/src/NeonRTOS/lwip/core/dns.o
                                                  .pio/build/lptm4c1294ncpdt/src/NeonRTOS/lwip/api/api_msg.o
udp_send                                          .pio/build/lptm4c1294ncpdt/src/NeonRTOS/lwip/core/udp.o
                                                  .pio/build/lptm4c1294ncpdt/src/NeonRTOS/lwip/api/api_msg.o
udp_sendto                                        .pio/build/lptm4c1294ncpdt/src/NeonRTOS/lwip/core/udp.o
                                                  .pio/build/lptm4c1294ncpdt/src/NeonRTOS/lwip/core/dns.o
                                                  .pio/build/lptm4c1294ncpdt/src/NeonRTOS/lwip/api/api_msg.o
udp_sendto_if                                     .pio/build/lptm4c1294ncpdt/src/NeonRTOS/lwip/core/udp.o
udp_sendto_if_src                                 .pio/build/lptm4c1294ncpdt/src/NeonRTOS/lwip/core/udp.o
ulTaskGenericNotifyTake                           .pio/build/lptm4c1294ncpdt/src/NeonRTOS/kernel/tasks.o
ulTaskGenericNotifyValueClear                     .pio/build/lptm4c1294ncpdt/src/NeonRTOS/kernel/tasks.o
uxEventGroupGetNumber                             .pio/build/lptm4c1294ncpdt/src/NeonRTOS/kernel/event_groups.o
uxListRemove                                      .pio/build/lptm4c1294ncpdt/src/NeonRTOS/kernel/list.o
                                                  .pio/build/lptm4c1294ncpdt/src/NeonRTOS/kernel/timers.o
                                                  .pio/build/lptm4c1294ncpdt/src/NeonRTOS/kernel/tasks.o
                                                  .pio/build/lptm4c1294ncpdt/src/NeonRTOS/kernel/croutine.o
uxQueueGetQueueItemSize                           .pio/build/lptm4c1294ncpdt/src/NeonRTOS/kernel/queue.o
uxQueueGetQueueLength                             .pio/build/lptm4c1294ncpdt/src/NeonRTOS/kernel/queue.o
uxQueueGetQueueNumber                             .pio/build/lptm4c1294ncpdt/src/NeonRTOS/kernel/queue.o
uxQueueMessagesWaiting                            .pio/build/lptm4c1294ncpdt/src/NeonRTOS/kernel/queue.o
                                                  .pio/build/lptm4c1294ncpdt/src/NeonRTOS/lwip/arch/sys_arch.o
                                                  .pio/build/lptm4c1294ncpdt/src/NeonRTOS/NeonRTOS.o
uxQueueMessagesWaitingFromISR                     .pio/build/lptm4c1294ncpdt/src/NeonRTOS/kernel/queue.o
uxQueueSpacesAvailable                            .pio/build/lptm4c1294ncpdt/src/NeonRTOS/kernel/queue.o
uxStreamBufferGetStreamBufferNotificationIndex    .pio/build/lptm4c1294ncpdt/src/NeonRTOS/kernel/stream_buffer.o
uxStreamBufferGetStreamBufferNumber               .pio/build/lptm4c1294ncpdt/src/NeonRTOS/kernel/stream_buffer.o
uxTaskBasePriorityGet                             .pio/build/lptm4c1294ncpdt/src/NeonRTOS/kernel/tasks.o
uxTaskBasePriorityGetFromISR                      .pio/build/lptm4c1294ncpdt/src/NeonRTOS/kernel/tasks.o
uxTaskGetNumberOfTasks                            .pio/build/lptm4c1294ncpdt/src/NeonRTOS/kernel/tasks.o
                                                  .pio/build/lptm4c1294ncpdt/src/NeonRTOS/kernel/queue.o
uxTaskGetSystemState                              .pio/build/lptm4c1294ncpdt/src/NeonRTOS/kernel/tasks.o
uxTaskGetTaskNumber                               .pio/build/lptm4c1294ncpdt/src/NeonRTOS/kernel/tasks.o
uxTaskPriorityGet                                 .pio/build/lptm4c1294ncpdt/src/NeonRTOS/kernel/tasks.o
uxTaskPriorityGetFromISR                          .pio/build/lptm4c1294ncpdt/src/NeonRTOS/kernel/tasks.o
uxTaskResetEventItemValue                         .pio/build/lptm4c1294ncpdt/src/NeonRTOS/kernel/tasks.o
                                                  .pio/build/lptm4c1294ncpdt/src/NeonRTOS/kernel/event_groups.o
uxTimerGetReloadMode                              .pio/build/lptm4c1294ncpdt/src/NeonRTOS/kernel/timers.o
uxTimerGetTimerNumber                             .pio/build/lptm4c1294ncpdt/src/NeonRTOS/kernel/timers.o
vApplicationIdleHook                              .pio/build/lptm4c1294ncpdt/src/main.o
                                                  .pio/build/lptm4c1294ncpdt/src/NeonRTOS/kernel/tasks.o
vApplicationStackOverflowHook                     .pio/build/lptm4c1294ncpdt/src/main.o
                                                  .pio/build/lptm4c1294ncpdt/src/NeonRTOS/kernel/tasks.o
vApplicationTickHook                              .pio/build/lptm4c1294ncpdt/src/main.o
                                                  .pio/build/lptm4c1294ncpdt/src/NeonRTOS/kernel/tasks.o
vCoRoutineAddToDelayedList                        .pio/build/lptm4c1294ncpdt/src/NeonRTOS/kernel/croutine.o
                                                  .pio/build/lptm4c1294ncpdt/src/NeonRTOS/kernel/queue.o
vCoRoutineResetState                              .pio/build/lptm4c1294ncpdt/src/NeonRTOS/kernel/croutine.o
vCoRoutineSchedule                                .pio/build/lptm4c1294ncpdt/src/NeonRTOS/kernel/croutine.o
vEventGroupClearBitsCallback                      .pio/build/lptm4c1294ncpdt/src/NeonRTOS/kernel/event_groups.o
vEventGroupDelete                                 .pio/build/lptm4c1294ncpdt/src/NeonRTOS/kernel/event_groups.o
vEventGroupSetBitsCallback                        .pio/build/lptm4c1294ncpdt/src/NeonRTOS/kernel/event_groups.o
vEventGroupSetNumber                              .pio/build/lptm4c1294ncpdt/src/NeonRTOS/kernel/event_groups.o
vListInitialise                                   .pio/build/lptm4c1294ncpdt/src/NeonRTOS/kernel/list.o
                                                  .pio/build/lptm4c1294ncpdt/src/NeonRTOS/kernel/timers.o
                                                  .pio/build/lptm4c1294ncpdt/src/NeonRTOS/kernel/tasks.o
                                                  .pio/build/lptm4c1294ncpdt/src/NeonRTOS/kernel/queue.o
                                                  .pio/build/lptm4c1294ncpdt/src/NeonRTOS/kernel/event_groups.o
                                                  .pio/build/lptm4c1294ncpdt/src/NeonRTOS/kernel/croutine.o
vListInitialiseItem                               .pio/build/lptm4c1294ncpdt/src/NeonRTOS/kernel/list.o
                                                  .pio/build/lptm4c1294ncpdt/src/NeonRTOS/kernel/timers.o
                                                  .pio/build/lptm4c1294ncpdt/src/NeonRTOS/kernel/tasks.o
                                                  .pio/build/lptm4c1294ncpdt/src/NeonRTOS/kernel/croutine.o
vListInsert                                       .pio/build/lptm4c1294ncpdt/src/NeonRTOS/kernel/list.o
                                                  .pio/build/lptm4c1294ncpdt/src/NeonRTOS/kernel/timers.o
                                                  .pio/build/lptm4c1294ncpdt/src/NeonRTOS/kernel/tasks.o
                                                  .pio/build/lptm4c1294ncpdt/src/NeonRTOS/kernel/croutine.o
vListInsertEnd                                    .pio/build/lptm4c1294ncpdt/src/NeonRTOS/kernel/list.o
                                                  .pio/build/lptm4c1294ncpdt/src/NeonRTOS/kernel/tasks.o
                                                  .pio/build/lptm4c1294ncpdt/src/NeonRTOS/kernel/croutine.o
vPortEndScheduler                                 .pio/build/lptm4c1294ncpdt/src/NeonRTOS/kernel/portable/GCC/ARM_CM4F/port.o
                                                  .pio/build/lptm4c1294ncpdt/src/NeonRTOS/kernel/tasks.o
vPortEnterCritical                                .pio/build/lptm4c1294ncpdt/src/NeonRTOS/kernel/portable/GCC/ARM_CM4F/port.o
                                                  .pio/build/lptm4c1294ncpdt/src/NeonRTOS/kernel/timers.o
                                                  .pio/build/lptm4c1294ncpdt/src/NeonRTOS/kernel/tasks.o
                                                  .pio/build/lptm4c1294ncpdt/src/NeonRTOS/kernel/stream_buffer.o
                                                  .pio/build/lptm4c1294ncpdt/src/NeonRTOS/kernel/queue.o
                                                  .pio/build/lptm4c1294ncpdt/src/NeonRTOS/kernel/portable/MemMang/heap_4.o
                                                  .pio/build/lptm4c1294ncpdt/src/NeonRTOS/kernel/event_groups.o
                                                  .pio/build/lptm4c1294ncpdt/src/NeonRTOS/NeonRTOS.o
vPortExitCritical                                 .pio/build/lptm4c1294ncpdt/src/NeonRTOS/kernel/portable/GCC/ARM_CM4F/port.o
                                                  .pio/build/lptm4c1294ncpdt/src/NeonRTOS/kernel/timers.o
                                                  .pio/build/lptm4c1294ncpdt/src/NeonRTOS/kernel/tasks.o
                                                  .pio/build/lptm4c1294ncpdt/src/NeonRTOS/kernel/stream_buffer.o
                                                  .pio/build/lptm4c1294ncpdt/src/NeonRTOS/kernel/queue.o
                                                  .pio/build/lptm4c1294ncpdt/src/NeonRTOS/kernel/portable/MemMang/heap_4.o
                                                  .pio/build/lptm4c1294ncpdt/src/NeonRTOS/kernel/event_groups.o
                                                  .pio/build/lptm4c1294ncpdt/src/NeonRTOS/NeonRTOS.o
vPortFree                                         .pio/build/lptm4c1294ncpdt/src/NeonRTOS/kernel/portable/MemMang/heap_4.o
                                                  .pio/build/lptm4c1294ncpdt/src/wrap_malloc.o
                                                  .pio/build/lptm4c1294ncpdt/src/NeonRTOS/kernel/timers.o
                                                  .pio/build/lptm4c1294ncpdt/src/NeonRTOS/kernel/tasks.o
                                                  .pio/build/lptm4c1294ncpdt/src/NeonRTOS/kernel/stream_buffer.o
                                                  .pio/build/lptm4c1294ncpdt/src/NeonRTOS/kernel/queue.o
                                                  .pio/build/lptm4c1294ncpdt/src/NeonRTOS/kernel/event_groups.o
                                                  .pio/build/lptm4c1294ncpdt/src/NeonRTOS/NeonRTOS.o
vPortGetHeapStats                                 .pio/build/lptm4c1294ncpdt/src/NeonRTOS/kernel/portable/MemMang/heap_4.o
vPortHeapResetState                               .pio/build/lptm4c1294ncpdt/src/NeonRTOS/kernel/portable/MemMang/heap_4.o
vPortInitialiseBlocks                             .pio/build/lptm4c1294ncpdt/src/NeonRTOS/kernel/portable/MemMang/heap_4.o
vPortSVCHandler                                   .pio/build/lptm4c1294ncpdt/src/NeonRTOS/kernel/portable/GCC/ARM_CM4F/port.o
                                                  .pio/build/lptm4c1294ncpdt/src/Drivers/soc/startup_gcc.o
vPortSetupTimerInterrupt                          .pio/build/lptm4c1294ncpdt/src/NeonRTOS/kernel/portable/GCC/ARM_CM4F/port.o
vPortValidateInterruptPriority                    .pio/build/lptm4c1294ncpdt/src/NeonRTOS/kernel/portable/GCC/ARM_CM4F/port.o
                                                  .pio/build/lptm4c1294ncpdt/src/NeonRTOS/kernel/tasks.o
                                                  .pio/build/lptm4c1294ncpdt/src/NeonRTOS/kernel/queue.o
vQueueAddToRegistry                               .pio/build/lptm4c1294ncpdt/src/NeonRTOS/kernel/queue.o
                                                  .pio/build/lptm4c1294ncpdt/src/NeonRTOS/kernel/timers.o
                                                  .pio/build/lptm4c1294ncpdt/src/NeonRTOS/NeonRTOS.o
vQueueDelete                                      .pio/build/lptm4c1294ncpdt/src/NeonRTOS/kernel/queue.o
                                                  .pio/build/lptm4c1294ncpdt/src/NeonRTOS/lwip/arch/sys_arch.o
                                                  .pio/build/lptm4c1294ncpdt/src/NeonRTOS/NeonRTOS.o
vQueueSetQueueNumber                              .pio/build/lptm4c1294ncpdt/src/NeonRTOS/kernel/queue.o
vQueueUnregisterQueue                             .pio/build/lptm4c1294ncpdt/src/NeonRTOS/kernel/queue.o
vQueueWaitForMessageRestricted                    .pio/build/lptm4c1294ncpdt/src/NeonRTOS/kernel/queue.o
                                                  .pio/build/lptm4c1294ncpdt/src/NeonRTOS/kernel/timers.o
vStreamBufferDelete                               .pio/build/lptm4c1294ncpdt/src/NeonRTOS/kernel/stream_buffer.o
vStreamBufferSetStreamBufferNotificationIndex     .pio/build/lptm4c1294ncpdt/src/NeonRTOS/kernel/stream_buffer.o
vStreamBufferSetStreamBufferNumber                .pio/build/lptm4c1294ncpdt/src/NeonRTOS/kernel/stream_buffer.o
vTaskDelay                                        .pio/build/lptm4c1294ncpdt/src/NeonRTOS/kernel/tasks.o
                                                  .pio/build/lptm4c1294ncpdt/src/NeonRTOS/NeonRTOS.o
vTaskDelete                                       .pio/build/lptm4c1294ncpdt/src/NeonRTOS/kernel/tasks.o
                                                  .pio/build/lptm4c1294ncpdt/src/NeonRTOS/NeonRTOS.o
vTaskEndScheduler                                 .pio/build/lptm4c1294ncpdt/src/NeonRTOS/kernel/tasks.o
vTaskGenericNotifyGiveFromISR                     .pio/build/lptm4c1294ncpdt/src/NeonRTOS/kernel/tasks.o
vTaskGetInfo                                      .pio/build/lptm4c1294ncpdt/src/NeonRTOS/kernel/tasks.o
vTaskInternalSetTimeOutState                      .pio/build/lptm4c1294ncpdt/src/NeonRTOS/kernel/tasks.o
                                                  .pio/build/lptm4c1294ncpdt/src/NeonRTOS/kernel/queue.o
vTaskMissedYield                                  .pio/build/lptm4c1294ncpdt/src/NeonRTOS/kernel/tasks.o
                                                  .pio/build/lptm4c1294ncpdt/src/NeonRTOS/kernel/queue.o
vTaskPlaceOnEventList                             .pio/build/lptm4c1294ncpdt/src/NeonRTOS/kernel/tasks.o
                                                  .pio/build/lptm4c1294ncpdt/src/NeonRTOS/kernel/queue.o
vTaskPlaceOnEventListRestricted                   .pio/build/lptm4c1294ncpdt/src/NeonRTOS/kernel/tasks.o
                                                  .pio/build/lptm4c1294ncpdt/src/NeonRTOS/kernel/queue.o
vTaskPlaceOnUnorderedEventList                    .pio/build/lptm4c1294ncpdt/src/NeonRTOS/kernel/tasks.o
                                                  .pio/build/lptm4c1294ncpdt/src/NeonRTOS/kernel/event_groups.o
vTaskPriorityDisinheritAfterTimeout               .pio/build/lptm4c1294ncpdt/src/NeonRTOS/kernel/tasks.o
                                                  .pio/build/lptm4c1294ncpdt/src/NeonRTOS/kernel/queue.o
vTaskPrioritySet                                  .pio/build/lptm4c1294ncpdt/src/NeonRTOS/kernel/tasks.o
                                                  .pio/build/lptm4c1294ncpdt/src/NeonRTOS/NeonRTOS.o
vTaskRemoveFromUnorderedEventList                 .pio/build/lptm4c1294ncpdt/src/NeonRTOS/kernel/tasks.o
                                                  .pio/build/lptm4c1294ncpdt/src/NeonRTOS/kernel/event_groups.o
vTaskResetState                                   .pio/build/lptm4c1294ncpdt/src/NeonRTOS/kernel/tasks.o
vTaskResume                                       .pio/build/lptm4c1294ncpdt/src/NeonRTOS/kernel/tasks.o
                                                  .pio/build/lptm4c1294ncpdt/src/NeonRTOS/NeonRTOS.o
vTaskSetTaskNumber                                .pio/build/lptm4c1294ncpdt/src/NeonRTOS/kernel/tasks.o
vTaskSetTimeOutState                              .pio/build/lptm4c1294ncpdt/src/NeonRTOS/kernel/tasks.o
                                                  .pio/build/lptm4c1294ncpdt/src/NeonRTOS/kernel/stream_buffer.o
vTaskStartScheduler                               .pio/build/lptm4c1294ncpdt/src/NeonRTOS/kernel/tasks.o
                                                  .pio/build/lptm4c1294ncpdt/src/NeonRTOS/NeonRTOS.o
vTaskSuspend                                      .pio/build/lptm4c1294ncpdt/src/NeonRTOS/kernel/tasks.o
                                                  .pio/build/lptm4c1294ncpdt/src/NeonRTOS/NeonRTOS.o
vTaskSuspendAll                                   .pio/build/lptm4c1294ncpdt/src/NeonRTOS/kernel/tasks.o
                                                  .pio/build/lptm4c1294ncpdt/src/NeonRTOS/kernel/timers.o
                                                  .pio/build/lptm4c1294ncpdt/src/NeonRTOS/kernel/stream_buffer.o
                                                  .pio/build/lptm4c1294ncpdt/src/NeonRTOS/kernel/queue.o
                                                  .pio/build/lptm4c1294ncpdt/src/NeonRTOS/kernel/portable/MemMang/heap_4.o
                                                  .pio/build/lptm4c1294ncpdt/src/NeonRTOS/kernel/event_groups.o
                                                  .pio/build/lptm4c1294ncpdt/src/NeonRTOS/NeonRTOS.o
vTaskSwitchContext                                .pio/build/lptm4c1294ncpdt/src/NeonRTOS/kernel/tasks.o
                                                  .pio/build/lptm4c1294ncpdt/src/NeonRTOS/kernel/portable/GCC/ARM_CM4F/port.o
vTimerResetState                                  .pio/build/lptm4c1294ncpdt/src/NeonRTOS/kernel/timers.o
vTimerSetReloadMode                               .pio/build/lptm4c1294ncpdt/src/NeonRTOS/kernel/timers.o
vTimerSetTimerID                                  .pio/build/lptm4c1294ncpdt/src/NeonRTOS/kernel/timers.o
vTimerSetTimerNumber                              .pio/build/lptm4c1294ncpdt/src/NeonRTOS/kernel/timers.o
vsnprintf                                         c:/users/user/.platformio/packages/toolchain-gccarmnoneeabi@1.40804.0/bin/../lib/gcc/arm-none-eabi/4.8.4/../../../../arm-none-eabi/lib/armv7e-m\libc.a(lib_a-vsnprintf.o)
                                                  .pio/build/lptm4c1294ncpdt/src/Drivers/W-Link/Driver/UART/UART_TM4C1294.o
xCoRoutineCreate                                  .pio/build/lptm4c1294ncpdt/src/NeonRTOS/kernel/croutine.o
xCoRoutineRemoveFromEventList                     .pio/build/lptm4c1294ncpdt/src/NeonRTOS/kernel/croutine.o
                                                  .pio/build/lptm4c1294ncpdt/src/NeonRTOS/kernel/queue.o
xEventGroupClearBits                              .pio/build/lptm4c1294ncpdt/src/NeonRTOS/kernel/event_groups.o
xEventGroupClearBitsFromISR                       .pio/build/lptm4c1294ncpdt/src/NeonRTOS/kernel/event_groups.o
xEventGroupCreate                                 .pio/build/lptm4c1294ncpdt/src/NeonRTOS/kernel/event_groups.o
xEventGroupGetBitsFromISR                         .pio/build/lptm4c1294ncpdt/src/NeonRTOS/kernel/event_groups.o
xEventGroupSetBits                                .pio/build/lptm4c1294ncpdt/src/NeonRTOS/kernel/event_groups.o
xEventGroupSetBitsFromISR                         .pio/build/lptm4c1294ncpdt/src/NeonRTOS/kernel/event_groups.o
xEventGroupSync                                   .pio/build/lptm4c1294ncpdt/src/NeonRTOS/kernel/event_groups.o
xEventGroupWaitBits                               .pio/build/lptm4c1294ncpdt/src/NeonRTOS/kernel/event_groups.o
xPortGetFreeHeapSize                              .pio/build/lptm4c1294ncpdt/src/NeonRTOS/kernel/portable/MemMang/heap_4.o
                                                  .pio/build/lptm4c1294ncpdt/src/NeonRTOS/NeonRTOS.o
xPortGetMinimumEverFreeHeapSize                   .pio/build/lptm4c1294ncpdt/src/NeonRTOS/kernel/portable/MemMang/heap_4.o
xPortPendSVHandler                                .pio/build/lptm4c1294ncpdt/src/NeonRTOS/kernel/portable/GCC/ARM_CM4F/port.o
                                                  .pio/build/lptm4c1294ncpdt/src/Drivers/soc/startup_gcc.o
xPortStartScheduler                               .pio/build/lptm4c1294ncpdt/src/NeonRTOS/kernel/portable/GCC/ARM_CM4F/port.o
                                                  .pio/build/lptm4c1294ncpdt/src/NeonRTOS/kernel/tasks.o
xPortSysTickHandler                               .pio/build/lptm4c1294ncpdt/src/NeonRTOS/kernel/portable/GCC/ARM_CM4F/port.o
                                                  .pio/build/lptm4c1294ncpdt/src/Drivers/soc/startup_gcc.o
xQueueCRReceive                                   .pio/build/lptm4c1294ncpdt/src/NeonRTOS/kernel/queue.o
xQueueCRReceiveFromISR                            .pio/build/lptm4c1294ncpdt/src/NeonRTOS/kernel/queue.o
xQueueCRSend                                      .pio/build/lptm4c1294ncpdt/src/NeonRTOS/kernel/queue.o
xQueueCRSendFromISR                               .pio/build/lptm4c1294ncpdt/src/NeonRTOS/kernel/queue.o
xQueueCreateCountingSemaphore                     .pio/build/lptm4c1294ncpdt/src/NeonRTOS/kernel/queue.o
                                                  .pio/build/lptm4c1294ncpdt/src/NeonRTOS/lwip/arch/sys_arch.o
                                                  .pio/build/lptm4c1294ncpdt/src/NeonRTOS/NeonRTOS.o
xQueueCreateMutex                                 .pio/build/lptm4c1294ncpdt/src/NeonRTOS/kernel/queue.o
                                                  .pio/build/lptm4c1294ncpdt/src/NeonRTOS/lwip/arch/sys_arch.o
                                                  .pio/build/lptm4c1294ncpdt/src/NeonRTOS/NeonRTOS.o
xQueueGenericCreate                               .pio/build/lptm4c1294ncpdt/src/NeonRTOS/kernel/queue.o
                                                  .pio/build/lptm4c1294ncpdt/src/NeonRTOS/lwip/arch/sys_arch.o
                                                  .pio/build/lptm4c1294ncpdt/src/NeonRTOS/kernel/timers.o
                                                  .pio/build/lptm4c1294ncpdt/src/NeonRTOS/NeonRTOS.o
xQueueGenericReset                                .pio/build/lptm4c1294ncpdt/src/NeonRTOS/kernel/queue.o
xQueueGenericSend                                 .pio/build/lptm4c1294ncpdt/src/NeonRTOS/kernel/queue.o
                                                  .pio/build/lptm4c1294ncpdt/src/NeonRTOS/lwip/arch/sys_arch.o
                                                  .pio/build/lptm4c1294ncpdt/src/NeonRTOS/kernel/timers.o
                                                  .pio/build/lptm4c1294ncpdt/src/NeonRTOS/NeonRTOS.o
xQueueGenericSendFromISR                          .pio/build/lptm4c1294ncpdt/src/NeonRTOS/kernel/queue.o
                                                  .pio/build/lptm4c1294ncpdt/src/NeonRTOS/kernel/timers.o
                                                  .pio/build/lptm4c1294ncpdt/src/NeonRTOS/NeonRTOS.o
xQueueGiveFromISR                                 .pio/build/lptm4c1294ncpdt/src/NeonRTOS/kernel/queue.o
                                                  .pio/build/lptm4c1294ncpdt/src/NeonRTOS/NeonRTOS.o
xQueueGiveMutexRecursive                          .pio/build/lptm4c1294ncpdt/src/NeonRTOS/kernel/queue.o
xQueueIsQueueEmptyFromISR                         .pio/build/lptm4c1294ncpdt/src/NeonRTOS/kernel/queue.o
xQueueIsQueueFullFromISR                          .pio/build/lptm4c1294ncpdt/src/NeonRTOS/kernel/queue.o
xQueuePeek                                        .pio/build/lptm4c1294ncpdt/src/NeonRTOS/kernel/queue.o
xQueuePeekFromISR                                 .pio/build/lptm4c1294ncpdt/src/NeonRTOS/kernel/queue.o
xQueueReceive                                     .pio/build/lptm4c1294ncpdt/src/NeonRTOS/kernel/queue.o
                                                  .pio/build/lptm4c1294ncpdt/src/NeonRTOS/lwip/arch/sys_arch.o
                                                  .pio/build/lptm4c1294ncpdt/src/NeonRTOS/kernel/timers.o
                                                  .pio/build/lptm4c1294ncpdt/src/NeonRTOS/NeonRTOS.o
xQueueReceiveFromISR                              .pio/build/lptm4c1294ncpdt/src/NeonRTOS/kernel/queue.o
xQueueRegistry                                    .pio/build/lptm4c1294ncpdt/src/NeonRTOS/kernel/queue.o
xQueueSemaphoreTake                               .pio/build/lptm4c1294ncpdt/src/NeonRTOS/kernel/queue.o
                                                  .pio/build/lptm4c1294ncpdt/src/NeonRTOS/lwip/arch/sys_arch.o
                                                  .pio/build/lptm4c1294ncpdt/src/NeonRTOS/NeonRTOS.o
xQueueTakeMutexRecursive                          .pio/build/lptm4c1294ncpdt/src/NeonRTOS/kernel/queue.o
xStreamBufferBytesAvailable                       .pio/build/lptm4c1294ncpdt/src/NeonRTOS/kernel/stream_buffer.o
xStreamBufferGenericCreate                        .pio/build/lptm4c1294ncpdt/src/NeonRTOS/kernel/stream_buffer.o
xStreamBufferIsEmpty                              .pio/build/lptm4c1294ncpdt/src/NeonRTOS/kernel/stream_buffer.o
xStreamBufferIsFull                               .pio/build/lptm4c1294ncpdt/src/NeonRTOS/kernel/stream_buffer.o
xStreamBufferNextMessageLengthBytes               .pio/build/lptm4c1294ncpdt/src/NeonRTOS/kernel/stream_buffer.o
xStreamBufferReceive                              .pio/build/lptm4c1294ncpdt/src/NeonRTOS/kernel/stream_buffer.o
xStreamBufferReceiveCompletedFromISR              .pio/build/lptm4c1294ncpdt/src/NeonRTOS/kernel/stream_buffer.o
xStreamBufferReceiveFromISR                       .pio/build/lptm4c1294ncpdt/src/NeonRTOS/kernel/stream_buffer.o
xStreamBufferReset                                .pio/build/lptm4c1294ncpdt/src/NeonRTOS/kernel/stream_buffer.o
xStreamBufferResetFromISR                         .pio/build/lptm4c1294ncpdt/src/NeonRTOS/kernel/stream_buffer.o
xStreamBufferSend                                 .pio/build/lptm4c1294ncpdt/src/NeonRTOS/kernel/stream_buffer.o
xStreamBufferSendCompletedFromISR                 .pio/build/lptm4c1294ncpdt/src/NeonRTOS/kernel/stream_buffer.o
xStreamBufferSendFromISR                          .pio/build/lptm4c1294ncpdt/src/NeonRTOS/kernel/stream_buffer.o
xStreamBufferSetTriggerLevel                      .pio/build/lptm4c1294ncpdt/src/NeonRTOS/kernel/stream_buffer.o
xStreamBufferSpacesAvailable                      .pio/build/lptm4c1294ncpdt/src/NeonRTOS/kernel/stream_buffer.o
xTaskCatchUpTicks                                 .pio/build/lptm4c1294ncpdt/src/NeonRTOS/kernel/tasks.o
xTaskCheckForTimeOut                              .pio/build/lptm4c1294ncpdt/src/NeonRTOS/kernel/tasks.o
                                                  .pio/build/lptm4c1294ncpdt/src/NeonRTOS/kernel/stream_buffer.o
                                                  .pio/build/lptm4c1294ncpdt/src/NeonRTOS/kernel/queue.o
xTaskCreate                                       .pio/build/lptm4c1294ncpdt/src/NeonRTOS/kernel/tasks.o
                                                  .pio/build/lptm4c1294ncpdt/src/NeonRTOS/lwip/arch/sys_arch.o
                                                  .pio/build/lptm4c1294ncpdt/src/NeonRTOS/kernel/timers.o
                                                  .pio/build/lptm4c1294ncpdt/src/NeonRTOS/NeonRTOS.o
xTaskDelayUntil                                   .pio/build/lptm4c1294ncpdt/src/NeonRTOS/kernel/tasks.o
xTaskGenericNotify                                .pio/build/lptm4c1294ncpdt/src/NeonRTOS/kernel/tasks.o
                                                  .pio/build/lptm4c1294ncpdt/src/NeonRTOS/kernel/stream_buffer.o
xTaskGenericNotifyFromISR                         .pio/build/lptm4c1294ncpdt/src/NeonRTOS/kernel/tasks.o
                                                  .pio/build/lptm4c1294ncpdt/src/NeonRTOS/kernel/stream_buffer.o
xTaskGenericNotifyStateClear                      .pio/build/lptm4c1294ncpdt/src/NeonRTOS/kernel/tasks.o
                                                  .pio/build/lptm4c1294ncpdt/src/NeonRTOS/kernel/stream_buffer.o
xTaskGenericNotifyWait                            .pio/build/lptm4c1294ncpdt/src/NeonRTOS/kernel/tasks.o
                                                  .pio/build/lptm4c1294ncpdt/src/NeonRTOS/kernel/stream_buffer.o
xTaskGetCurrentTaskHandle                         .pio/build/lptm4c1294ncpdt/src/NeonRTOS/kernel/tasks.o
                                                  .pio/build/lptm4c1294ncpdt/src/NeonRTOS/kernel/stream_buffer.o
                                                  .pio/build/lptm4c1294ncpdt/src/NeonRTOS/kernel/queue.o
xTaskGetCurrentTaskHandleForCore                  .pio/build/lptm4c1294ncpdt/src/NeonRTOS/kernel/tasks.o
xTaskGetSchedulerState                            .pio/build/lptm4c1294ncpdt/src/NeonRTOS/kernel/tasks.o
                                                  .pio/build/lptm4c1294ncpdt/src/NeonRTOS/kernel/timers.o
                                                  .pio/build/lptm4c1294ncpdt/src/NeonRTOS/kernel/queue.o
                                                  .pio/build/lptm4c1294ncpdt/src/NeonRTOS/kernel/event_groups.o
xTaskGetTickCount                                 .pio/build/lptm4c1294ncpdt/src/NeonRTOS/kernel/tasks.o
                                                  .pio/build/lptm4c1294ncpdt/src/NeonRTOS/lwip/arch/sys_arch.o
                                                  .pio/build/lptm4c1294ncpdt/src/NeonRTOS/kernel/timers.o
                                                  .pio/build/lptm4c1294ncpdt/src/NeonRTOS/kernel/croutine.o
                                                  .pio/build/lptm4c1294ncpdt/src/NeonRTOS/NeonRTOS.o
                                                  .pio/build/lptm4c1294ncpdt/src/Drivers/ethernetif/ethernetif_tm4c1294.o
xTaskGetTickCountFromISR                          .pio/build/lptm4c1294ncpdt/src/NeonRTOS/kernel/tasks.o
                                                  .pio/build/lptm4c1294ncpdt/src/NeonRTOS/NeonRTOS.o
xTaskIncrementTick                                .pio/build/lptm4c1294ncpdt/src/NeonRTOS/kernel/tasks.o
                                                  .pio/build/lptm4c1294ncpdt/src/NeonRTOS/kernel/portable/GCC/ARM_CM4F/port.o
xTaskPriorityDisinherit                           .pio/build/lptm4c1294ncpdt/src/NeonRTOS/kernel/tasks.o
                                                  .pio/build/lptm4c1294ncpdt/src/NeonRTOS/kernel/queue.o
xTaskPriorityInherit                              .pio/build/lptm4c1294ncpdt/src/NeonRTOS/kernel/tasks.o
                                                  .pio/build/lptm4c1294ncpdt/src/NeonRTOS/kernel/queue.o
xTaskRemoveFromEventList                          .pio/build/lptm4c1294ncpdt/src/NeonRTOS/kernel/tasks.o
                                                  .pio/build/lptm4c1294ncpdt/src/NeonRTOS/kernel/queue.o
xTaskResumeAll                                    .pio/build/lptm4c1294ncpdt/src/NeonRTOS/kernel/tasks.o
                                                  .pio/build/lptm4c1294ncpdt/src/NeonRTOS/kernel/timers.o
                                                  .pio/build/lptm4c1294ncpdt/src/NeonRTOS/kernel/stream_buffer.o
                                                  .pio/build/lptm4c1294ncpdt/src/NeonRTOS/kernel/queue.o
                                                  .pio/build/lptm4c1294ncpdt/src/NeonRTOS/kernel/portable/MemMang/heap_4.o
                                                  .pio/build/lptm4c1294ncpdt/src/NeonRTOS/kernel/event_groups.o
                                                  .pio/build/lptm4c1294ncpdt/src/NeonRTOS/NeonRTOS.o
xTaskResumeFromISR                                .pio/build/lptm4c1294ncpdt/src/NeonRTOS/kernel/tasks.o
xTimerCreate                                      .pio/build/lptm4c1294ncpdt/src/NeonRTOS/kernel/timers.o
                                                  .pio/build/lptm4c1294ncpdt/src/NeonRTOS/NeonRTOS.o
xTimerCreateTimerTask                             .pio/build/lptm4c1294ncpdt/src/NeonRTOS/kernel/timers.o
                                                  .pio/build/lptm4c1294ncpdt/src/NeonRTOS/kernel/tasks.o
xTimerGenericCommandFromISR                       .pio/build/lptm4c1294ncpdt/src/NeonRTOS/kernel/timers.o
                                                  .pio/build/lptm4c1294ncpdt/src/NeonRTOS/NeonRTOS.o
xTimerGenericCommandFromTask                      .pio/build/lptm4c1294ncpdt/src/NeonRTOS/kernel/timers.o
                                                  .pio/build/lptm4c1294ncpdt/src/NeonRTOS/NeonRTOS.o
xTimerGetExpiryTime                               .pio/build/lptm4c1294ncpdt/src/NeonRTOS/kernel/timers.o
xTimerGetPeriod                                   .pio/build/lptm4c1294ncpdt/src/NeonRTOS/kernel/timers.o
xTimerGetReloadMode                               .pio/build/lptm4c1294ncpdt/src/NeonRTOS/kernel/timers.o
xTimerGetTimerDaemonTaskHandle                    .pio/build/lptm4c1294ncpdt/src/NeonRTOS/kernel/timers.o
                                                  .pio/build/lptm4c1294ncpdt/src/NeonRTOS/kernel/tasks.o
xTimerIsTimerActive                               .pio/build/lptm4c1294ncpdt/src/NeonRTOS/kernel/timers.o
xTimerPendFunctionCall                            .pio/build/lptm4c1294ncpdt/src/NeonRTOS/kernel/timers.o
xTimerPendFunctionCallFromISR                     .pio/build/lptm4c1294ncpdt/src/NeonRTOS/kernel/timers.o
                                                  .pio/build/lptm4c1294ncpdt/src/NeonRTOS/kernel/event_groups.o
                                                  .pio/build/lptm4c1294ncpdt/src/NeonRTOS/NeonRTOS.o
